 dynamorio

 Timestamp is 627e108c (Fri May 13 16:02:20 2022)

 Preferred load address is 71000000

 Start         Length     Name                   Class
 0001:00000000 000b2e51H .text$mn                CODE
 0002:00000000 00000210H .idata$5                DATA
 0002:00000210 0005f740H .rdata                  DATA
 0002:0005f950 00006920H .edata                  DATA
 0002:00066270 00000f24H .rdata$voltmd           DATA
 0002:00067194 000001d0H .rdata$zzzdbg           DATA
 0002:00067364 00000014H .idata$2                DATA
 0002:00067378 00000014H .idata$3                DATA
 0002:0006738c 00000210H .idata$4                DATA
 0002:0006759c 000009caH .idata$6                DATA
 0003:00000000 0000d000H .data                   DATA
 0003:0000d000 00030be8H .bss                    DATA
 0004:00000000 000008e6H .fspdata                DATA
 0005:00000000 00000204H .cspdata                DATA
 0006:00000000 00004a14H .nspdata                DATA
 0007:00000000 000000f0H .rsrc$01                DATA
 0007:000000f0 00003bd8H .rsrc$02                DATA

  Address         Publics by Value              Rva+Base       Lib:Object

 0000:00000000       ___guard_fids_count        00000000     <absolute>
 0000:00000000       ___arm64x_native_entrypoint 00000000     <absolute>
 0000:00000000       ___guard_eh_cont_table     00000000     <absolute>
 0000:00000000       ___guard_longjmp_table     00000000     <absolute>
 0000:00000000       ___AbsoluteZero            00000000     <absolute>
 0000:00000000       ___guard_iat_count         00000000     <absolute>
 0000:00000000       ___arm64x_extra_rfe_table  00000000     <absolute>
 0000:00000000       ___arm64x_redirection_metadata 00000000     <absolute>
 0000:00000000       ___guard_eh_cont_count     00000000     <absolute>
 0000:00000000       ___x64_code_ranges_to_entry_points_count 00000000     <absolute>
 0000:00000000       ___guard_iat_table         00000000     <absolute>
 0000:00000000       ___hybrid_code_map_count   00000000     <absolute>
 0000:00000000       ___safe_se_handler_table   00000000     <absolute>
 0000:00000000       ___x64_code_ranges_to_entry_points 00000000     <absolute>
 0000:00000000       ___dynamic_value_reloc_table 00000000     <absolute>
 0000:00000000       ___hybrid_auxiliary_iat    00000000     <absolute>
 0000:00000000       ___safe_se_handler_count   00000000     <absolute>
 0000:00000000       ___guard_longjmp_count     00000000     <absolute>
 0000:00000000       ___hybrid_code_map         00000000     <absolute>
 0000:00000000       ___guard_check_icall_a64n_fptr 00000000     <absolute>
 0000:00000000       ___arm64x_redirection_metadata_count 00000000     <absolute>
 0000:00000000       ___arm64x_extra_rfe_table_size 00000000     <absolute>
 0000:00000000       ___hybrid_auxiliary_iat_copy 00000000     <absolute>
 0000:00000000       ___enclave_config          00000000     <absolute>
 0000:00000000       ___guard_fids_table        00000000     <absolute>
 0000:00000100       ___guard_flags             00000100     <absolute>
 0001:00000250       _check_list_default_and_append 71001250 f   options.obj
 0001:00000cd0       _check_param_bounds        71001cd0 f   options.obj
 0001:00000d10       _d_r_parse_word            71001d10 f   options.obj
 0001:00000de0       _dr_get_integer_option     71001de0 f   options.obj
 0001:00000e80       _dr_get_string_option      71001e80 f   options.obj
 0001:00000f30       _get_dynamo_options_string 71001f30 f   options.obj
 0001:00000fe0       _get_pcache_dynamo_options_string 71001fe0 f   options.obj
 0001:000010a0       _get_process_options       710020a0 f   options.obj
 0001:00001250       _has_pcache_dynamo_options 71002250 f   options.obj
 0001:00001320       _os_normalized_sysnum      71002320 f i syscall.obj
 0001:00001320       _instr_from_noalloc        71002320 f i options.obj
 0001:00001330       _instr_get_next            71002330 f i options.obj
 0001:00001340       _instr_get_next_app        71002340 f i options.obj
 0001:00001370       _instr_get_note            71002370 f i options.obj
 0001:00001380       _instr_get_prev            71002380 f i options.obj
 0001:00001390       _instr_get_prev_app        71002390 f i options.obj
 0001:000013c0       _instr_has_allocated_bits  710023c0 f i options.obj
 0001:000013d0       _instr_ok_to_mangle        710023d0 f i options.obj
 0001:000013d0       _instr_is_app              710023d0 f i options.obj
 0001:000013f0       _instr_is_meta             710023f0 f i options.obj
 0001:00001400       _instr_needs_encoding      71002400 f i options.obj
 0001:00001420       _instr_num_dsts            71002420 f i options.obj
 0001:00001440       _instr_num_srcs            71002440 f i options.obj
 0001:00001460       _instr_ok_to_emit          71002460 f i options.obj
 0001:00001480       _instr_operands_valid      71002480 f i options.obj
 0001:00001490       _instr_raw_bits_valid      71002490 f i options.obj
 0001:000014a0       _instr_set_next            710024a0 f i options.obj
 0001:000014b0       _instr_set_note            710024b0 f i options.obj
 0001:000014c0       _instr_set_prev            710024c0 f i options.obj
 0001:000014d0       _shared_library_error      710024d0 f i os.obj
 0001:000014d0       _opnd_create_null          710024d0 f i options.obj
 0001:000014e0       _opnd_create_pc            710024e0 f i options.obj
 0001:00001500       _opnd_create_reg           71002500 f i options.obj
 0001:00001520       _opnd_create_reg_ex        71002520 f i options.obj
 0001:00001560       _opnd_create_reg_partial   71002560 f i options.obj
 0001:00001580       _opnd_is_far_memory_reference 71002580 f i opnd_shared.obj
 0001:00001580       _opnd_is_far_base_disp     71002580 f i options.obj
 0001:000015a0       _opnd_is_immed             710025a0 f i options.obj
 0001:000015c0       _opnd_is_instr             710025c0 f i options.obj
 0001:000015e0       _opnd_is_near_base_disp    710025e0 f i options.obj
 0001:00001600       _opnd_is_pc                71002600 f i options.obj
 0001:00001620       _options_detach            71002620 f   options.obj
 0001:00001660       _options_exit              71002660 f   options.obj
 0001:00001670       _options_init              71002670 f   options.obj
 0001:000016d0       _options_make_writable     710026d0 f   options.obj
 0001:00001700       _options_restore_readonly  71002700 f   options.obj
 0001:00002940       _synchronize_dynamic_options 71003940 f   options.obj
 0001:00002be0       _create_callback_dcontext  71003be0 f   dynamo.obj
 0001:00002d80       _create_new_dynamo_context 71003d80 f   dynamo.obj
 0001:00002e50       _d_r_get_num_threads       71003e50 f   dynamo.obj
 0001:00002f10       _dr_app_cleanup            71003f10 f   dynamo.obj
 0001:00003010       _dr_app_setup              71004010 f   dynamo.obj
 0001:000030b0       _dr_app_setup_and_start    710040b0 f   dynamo.obj
 0001:000030d0       _dr_app_start_helper       710040d0 f   dynamo.obj
 0001:00003110       _native_module_unhook      71004110 f   native_pe.obj
 0001:00003110       _os_delete_memory_file     71004110 f   os.obj
 0001:00003110       _instrument_thread_exit    71004110 f   instrument.obj
 0001:00003110       _instrlist_set_auto_predicate 71004110 f   instrlist.obj
 0001:00003110       _check_for_run_once        71004110 f   inject_shared.obj
 0001:00003110       _mangle_arch_init          71004110 f   mangle.obj
 0001:00003110       _d_r_monitor_init          71004110 f   monitor.obj
 0001:00003110       _os_tls_exit               71004110 f   os.obj
 0001:00003110       _all_memory_areas_lock     71004110 f   os.obj
 0001:00003110       _monitor_thread_reset_init 71004110 f   monitor.obj
 0001:00003110       _synch_init                71004110 f   synch.obj
 0001:00003110       _loader_allow_unsafe_static_behavior 71004110 f   loader_shared.obj
 0001:00003110       _native_module_exit        71004110 f   native_pe.obj
 0001:00003110       _kernel32_redir_exit_proc  71004110 f   kernel32_proc.obj
 0001:00003110       _all_memory_areas_unlock   71004110 f   os.obj
 0001:00003110       _os_tls_init               71004110 f   os.obj
 0001:00003110       _loader_pre_client_thread_exit 71004110 f   loader.obj
 0001:00003110       _aslr_thread_exit          71004110 f   aslr.obj
 0001:00003110       _os_thread_init_finalize   71004110 f   os.obj
 0001:00003110       _update_all_memory_areas   71004110 f   os.obj
 0001:00003110       _dr_app_stop               71004110 f   dynamo.obj
 0001:00003110       _callback_init             71004110 f   callback.obj
 0001:00003110       _d_r_logopnd               71004110 f   instr_shared.obj
 0001:00003110       _unpatch_stub              71004110 f   emit_utils.obj
 0001:00003110       _dr_request_synchronized_exit 71004110 f   instrument.obj
 0001:00003110       _machine_cache_sync        71004110 f   proc.obj
 0001:00003110       _advapi32_redir_onload     71004110 f   advapi32_redir.obj
 0001:00003110       _dr_log                    71004110 f   instrument.obj
 0001:00003110       _proc_set_num_simd_saved   71004110 f   proc.obj
 0001:00003110       _perscache_slow_exit       71004110 f   perscache.obj
 0001:00003110       _native_module_init        71004110 f   native_pe.obj
 0001:00003110       _patch_stub                71004110 f   emit_utils.obj
 0001:00003110       _os_process_under_dynamorio_complete 71004110 f   os.obj
 0001:00003110       _d_r_mutex_mark_as_app     71004110 f   utils.obj
 0001:00003110       _rpcrt4_redir_onload       71004110 f   rpcrt4_redir.obj
 0001:00003110       _d_r_internal_error        71004110 f   drlibc:drlibc_notdr_error.obj
 0001:00003110       _d_r_loginst               71004110 f   instr_shared.obj
 0001:00003110       _aslr_thread_init          71004110 f   aslr.obj
 0001:00003110       _native_module_hook        71004110 f   native_pe.obj
 0001:00003120       _dr_app_stop_and_cleanup   71004120 f   dynamo.obj
 0001:00003130       _dr_app_stop_and_cleanup_with_stats 71004130 f   dynamo.obj
 0001:00003170       _dynamo_exit_post_detach   71004170 f   dynamo.obj
 0001:000031d0       _dynamo_other_thread_exit  710041d0 f   dynamo.obj
 0001:000034e0       _dynamo_process_exit       710044e0 f   dynamo.obj
 0001:00003870       _dynamo_process_exit_with_thread_info 71004870 f   dynamo.obj
 0001:00003880       _dynamo_shared_exit        71004880 f   dynamo.obj
 0001:00003df0       _dynamo_thread_exit        71004df0 f   dynamo.obj
 0001:000040e0       _dynamo_thread_exit_pre_client 710050e0 f   dynamo.obj
 0001:00004110       _dynamo_thread_init        71005110 f   dynamo.obj
 0001:000046b0       _dynamo_thread_not_under_dynamo 710056b0 f   dynamo.obj
 0001:000046d0       _dynamo_thread_stack_free_and_exit 710056d0 f   dynamo.obj
 0001:00004710       _dynamo_thread_under_dynamo 71005710 f   dynamo.obj
 0001:00004730       _dynamorio_app_exit        71005730 f   dynamo.obj
 0001:00004740       _dynamorio_app_init        71005740 f   dynamo.obj
 0001:00004820       _dynamorio_app_init_and_early_takeover 71005820 f   dynamo.obj
 0001:00004850       _dynamorio_app_init_part_two_finalize 71005850 f   dynamo.obj
 0001:00004bd0       _dynamorio_app_take_over_helper 71005bd0 f   dynamo.obj
 0001:00004d60       _dynamorio_earliest_init_takeover_C 71005d60 f   dynamo.obj
 0001:00004f20       _dynamorio_take_over_threads 71005f20 f   dynamo.obj
 0001:00005100       _entering_dynamorio        71006100 f   dynamo.obj
 0001:00005290       _exiting_dynamorio         71006290 f   dynamo.obj
 0001:00005440       _get_dr_stats              71006440 f   dynamo.obj
 0001:00005450       _get_list_of_threads       71006450 f   dynamo.obj
 0001:000054e0       _get_thread_num            710064e0 f   dynamo.obj
 0001:00005500       _initialize_dynamo_context 71006500 f   dynamo.obj
 0001:000055e0       _is_currently_on_dstack    710065e0 f   dynamo.obj
 0001:00005610       _is_last_app_thread        71006610 f   dynamo.obj
 0001:00005620       _is_on_dstack              71006620 f   dynamo.obj
 0001:00005650       _is_on_initstack           71006650 f   dynamo.obj
 0001:00005680       _is_thread_initialized     71006680 f   dynamo.obj
 0001:00005690       _is_thread_known           71006690 f   dynamo.obj
 0001:000056b0       _pre_second_thread         710066b0 f   dynamo.obj
 0001:00005790       _protect_data_section      71006790 f   dynamo.obj
 0001:000058e0       _remove_thread             710068e0 f   dynamo.obj
 0001:00005980       _standalone_exit           71006980 f   dynamo.obj
 0001:000059f0       _standalone_init           710069f0 f   dynamo.obj
 0001:00006280       _thread_lookup             71007280 f   dynamo.obj
 0001:00006510       _coarse_is_trace_head_in_own_unit 71007510 f   fragment.obj
 0001:000068b0       _enter_couldbelinking      710078b0 f   fragment.obj
 0001:00006960       _enter_nolinking           71007960 f   fragment.obj
 0001:00006af0       _enter_threadexit          71007af0 f   fragment.obj
 0001:00006b60       _flush_fragments_and_remove_region 71007b60 f   fragment.obj
 0001:00006ba0       _flush_fragments_end_synch 71007ba0 f   fragment.obj
 0001:00006ec0       _flush_fragments_from_region 71007ec0 f   fragment.obj
 0001:00006f00       _flush_fragments_in_region_finish 71007f00 f   fragment.obj
 0001:000070d0       _flush_fragments_in_region_start 710080d0 f   fragment.obj
 0001:000073e0       _flush_fragments_synch_unlink_priv 710083e0 f   fragment.obj
 0001:000079f0       _flush_fragments_unlink_shared 710089f0 f   fragment.obj
 0001:00007ac0       _flush_invalidate_ibl_shared_target 71008ac0 f   fragment.obj
 0001:00007b40       _fragment_add              71008b40 f   fragment.obj
 0001:00007be0       _fragment_add_ibl_target   71008be0 f   fragment.obj
 0001:00007eb0       _fragment_body_end_pc      71008eb0 f   fragment.obj
 0001:00008020       _fragment_coarse_add       71009020 f   fragment.obj
 0001:00008070       _fragment_coarse_create_entry_pclookup_table 71009070 f   fragment.obj
 0001:000083c0       _fragment_coarse_entry_pclookup 710093c0 f   fragment.obj
 0001:00008750       _fragment_coarse_free_entry_pclookup_table 71009750 f   fragment.obj
 0001:00008780       _fragment_coarse_htable_create 71009780 f   fragment.obj
 0001:00008910       _fragment_coarse_htable_free 71009910 f   fragment.obj
 0001:00008980       _fragment_coarse_htable_merge 71009980 f   fragment.obj
 0001:00008c90       _fragment_coarse_htable_persist 71009c90 f   fragment.obj
 0001:00008ce0       _fragment_coarse_htable_persist_size 71009ce0 f   fragment.obj
 0001:00008d10       _fragment_coarse_htable_resurrect 71009d10 f   fragment.obj
 0001:00008de0       _fragment_coarse_lookup    71009de0 f   fragment.obj
 0001:00008ff0       _fragment_coarse_lookup_in_unit 71009ff0 f   fragment.obj
 0001:000090c0       _fragment_coarse_lookup_wrapper 7100a0c0 f   fragment.obj
 0001:00009120       _fragment_coarse_num_entries 7100a120 f   fragment.obj
 0001:00009140       _fragment_coarse_pclookup  7100a140 f   fragment.obj
 0001:000096b0       _fragment_coarse_replace   7100a6b0 f   fragment.obj
 0001:00009790       _fragment_coarse_th_add    7100a790 f   fragment.obj
 0001:00009830       _fragment_coarse_th_unlink_and_add 7100a830 f   fragment.obj
 0001:000098c0       _fragment_coarse_unit_freeze 7100a8c0 f   fragment.obj
 0001:00009ac0       _fragment_coarse_wrapper   7100aac0 f   fragment.obj
 0001:00009b10       _fragment_copy_data_fields 7100ab10 f   fragment.obj
 0001:00009b80       _fragment_create           7100ab80 f   fragment.obj
 0001:00009cb0       _fragment_create_and_add_future 7100acb0 f   fragment.obj
 0001:00009e30       _fragment_delete           7100ae30 f   fragment.obj
 0001:0000a030       _fragment_delete_future    7100b030 f   fragment.obj
 0001:0000a1e0       _fragment_exit             7100b1e0 f   fragment.obj
 0001:0000a470       _fragment_exit_post_sideline 7100b470 f   fragment.obj
 0001:0000a480       _fragment_free             7100b480 f   fragment.obj
 0001:0000a650       _fragment_get_fragment_delete_mutex 7100b650 f   fragment.obj
 0001:0000a680       _fragment_init             7100b680 f   fragment.obj
 0001:0000a860       _fragment_initialized      7100b860 f   fragment.obj
 0001:0000a880       _fragment_lookup           7100b880 f   fragment.obj
 0001:0000a980       _fragment_lookup_bb        7100b980 f   fragment.obj
 0001:0000aa00       _fragment_lookup_fine_and_coarse 7100ba00 f   fragment.obj
 0001:0000ab70       _fragment_lookup_fine_and_coarse_sharing 7100bb70 f   fragment.obj
 0001:0000ac20       _fragment_lookup_future    7100bc20 f   fragment.obj
 0001:0000acf0       _fragment_lookup_private_future 7100bcf0 f   fragment.obj
 0001:0000ad20       _fragment_lookup_same_sharing 7100bd20 f   fragment.obj
 0001:0000ad40       _fragment_lookup_shared_bb 7100bd40 f   fragment.obj
 0001:0000ad90       _fragment_lookup_trace     7100bd90 f   fragment.obj
 0001:0000af50       _fragment_output           7100bf50 f   fragment.obj
 0001:0000afd0       _fragment_overlaps         7100bfd0 f   fragment.obj
 0001:0000b090       _fragment_pclookup         7100c090 f   fragment.obj
 0001:0000b0a0       _fragment_pclookup_with_linkstubs 7100c0a0 f   fragment.obj
 0001:0000b0f0       _fragment_prepare_for_removal 7100c0f0 f   fragment.obj
 0001:0000b300       _fragment_record_translation_info 7100c300 f   fragment.obj
 0001:0000b390       _fragment_recreate_with_linkstubs 7100c390 f   fragment.obj
 0001:0000b560       _fragment_release_fragment_delete_mutex 7100c560 f   fragment.obj
 0001:0000b590       _fragment_remove           7100c590 f   fragment.obj
 0001:0000b6b0       _fragment_remove_all_ibl_in_region 7100c6b0 f   fragment.obj
 0001:0000b730       _fragment_remove_from_ibt_tables 7100c730 f   fragment.obj
 0001:0000ba30       _fragment_remove_shared_no_flush 7100ca30 f   fragment.obj
 0001:0000bb50       _fragment_replace          7100cb50 f   fragment.obj
 0001:0000bd50       _fragment_reset_free       7100cd50 f   fragment.obj
 0001:0000bf60       _fragment_reset_init       7100cf60 f   fragment.obj
 0001:0000c1c0       _fragment_self_write       7100d1c0 f   fragment.obj
 0001:0000c250       _fragment_shift_fcache_pointers 7100d250 f   fragment.obj
 0001:0000c440       _fragment_stubs_end_pc     7100d440 f   fragment.obj
 0001:0000c470       _fragment_thread_exit      7100d470 f   fragment.obj
 0001:0000c5f0       _fragment_thread_exited    7100d5f0 f   fragment.obj
 0001:0000c620       _fragment_thread_init      7100d620 f   fragment.obj
 0001:0000c720       _fragment_thread_reset_free 7100d720 f   fragment.obj
 0001:0000c780       _fragment_thread_reset_init 7100d780 f   fragment.obj
 0001:0000cb40       _fragment_unlink_for_deletion 7100db40 f   fragment.obj
 0001:0000cbc0       _fragment_update_ibl_tables 7100dbc0 f   fragment.obj
 0001:0000cbe0       _get_at_syscall            7100dbe0 f   fragment.obj
 0001:0000cc00       _get_flushtime_last_update 7100dc00 f   fragment.obj
 0001:0000cc20       _get_fragment_coarse_info  7100dc20 f   fragment.obj
 0001:0000ec30       _increment_global_flushtime 7100fc30 f   fragment.obj
 0001:0000eca0       _invalidate_code_cache     7100fca0 f   fragment.obj
 0001:0000ecd0       _is_couldbelinking         7100fcd0 f   fragment.obj
 0001:0000ed00       _is_self_allsynch_flushing 7100fd00 f   fragment.obj
 0001:0000ed20       _is_self_couldbelinking    7100fd20 f   fragment.obj
 0001:0000ed50       _is_self_flushing          7100fd50 f   fragment.obj
 0001:0000f660       _set_at_syscall            71010660 f   fragment.obj
 0001:0000f680       _set_flushtime_last_update 71010680 f   fragment.obj
 0001:000103d0       _coarse_frozen_cache_size  710113d0 f   fcache.obj
 0001:00010480       _fcache_add_fragment       71011480 f   fcache.obj
 0001:00010ca0       _fcache_change_fragment_protection 71011ca0 f   fcache.obj
 0001:00010d30       _fcache_check_option_compatibility 71011d30 f   fcache.obj
 0001:00011200       _fcache_coarse_cache_delete 71012200 f   fcache.obj
 0001:00011230       _fcache_coarse_init_frozen 71012230 f   fcache.obj
 0001:00011280       _fcache_coarse_set_info    71012280 f   fcache.obj
 0001:000115d0       _fcache_exit               710125d0 f   fcache.obj
 0001:00011660       _fcache_flush_pending_units 71012660 f   fcache.obj
 0001:00011a70       _fcache_fragment_pclookup  71012a70 f   fcache.obj
 0001:00011bd0       _fcache_free_pending_units 71012bd0 f   fcache.obj
 0001:00012490       _fcache_init               71013490 f   fcache.obj
 0001:00012570       _fcache_is_flush_pending   71013570 f   fcache.obj
 0001:00012590       _fcache_is_writable        71013590 f   fcache.obj
 0001:000125b0       _fcache_low_on_memory      710135b0 f   fcache.obj
 0001:00012710       _fcache_profile_exit       71013710 f   fcache.obj
 0001:00012950       _fcache_refine_whereami    71013950 f   fcache.obj
 0001:00012a00       _fcache_remove_fragment    71013a00 f   fcache.obj
 0001:00012b50       _fcache_reset_all_caches_proactively 71013b50 f   fcache.obj
 0001:00012ee0       _fcache_return_extra_space 71013ee0 f   fcache.obj
 0001:00013880       _fcache_shift_start_pc     71014880 f   fcache.obj
 0001:00013930       _fcache_thread_exit        71014930 f   fcache.obj
 0001:00013940       _fcache_thread_init        71014940 f   fcache.obj
 0001:000140e0       _get_fcache_coarse_info    710150e0 f   fcache.obj
 0001:00014110       _in_fcache                 71015110 f   fcache.obj
 0001:000148e0       _schedule_reset            710158e0 f   fcache.obj
 0001:00014cc0       _coarse_deref_ibl_prefix   71015cc0 f   link.obj
 0001:00014d00       _coarse_frozen_stub_size   71015d00 f   link.obj
 0001:00014e40       _coarse_lazy_link          71015e40 f   link.obj
 0001:00015320       _coarse_mark_trace_head    71016320 f   link.obj
 0001:000154b0       _coarse_remove_outgoing    710164b0 f   link.obj
 0001:000155e0       _coarse_indirect_stub_size 710165e0 f   emit_utils_shared.obj
 0001:000155e0       _coarse_stub_alignment     710165e0 f   link.obj
 0001:000155f0       _coarse_stubs_create       710165f0 f   link.obj
 0001:00015660       _coarse_stubs_delete       71016660 f   link.obj
 0001:00015720       _coarse_stubs_set_end_pc   71016720 f   link.obj
 0001:00015740       _coarse_stubs_set_info     71016740 f   link.obj
 0001:00015760       _coarse_unit_shift_links   71016760 f   link.obj
 0001:00015950       _coarse_unit_unlink        71016950 f   link.obj
 0001:00015bc0       _coarse_unit_unlink_outgoing 71016bc0 f   link.obj
 0001:00015ca0       _coarse_update_outgoing    71016ca0 f   link.obj
 0001:00015e60       _d_r_link_exit             71016e60 f   link.obj
 0001:00015ea0       _d_r_link_init             71016ea0 f   link.obj
 0001:00015f30       _fcache_return_coarse_prefix 71016f30 f   link.obj
 0001:00015f60       _get_asynch_linkstub       71016f60 f   link.obj
 0001:00015f70       _get_client_linkstub       71016f70 f   link.obj
 0001:00015f80       _get_coarse_exit_linkstub  71016f80 f   link.obj
 0001:00015f90       _get_coarse_ibl_prefix     71016f90 f   link.obj
 0001:00015fd0       _get_coarse_trace_head_exit_linkstub 71016fd0 f   link.obj
 0001:00015fe0       _get_deleted_linkstub      71016fe0 f   link.obj
 0001:00015ff0       _get_ibl_deleted_linkstub  71016ff0 f   link.obj
 0001:00016000       _get_ibl_sourceless_linkstub 71017000 f   link.obj
 0001:00016070       _get_last_linkstub_ordinal 71017070 f   link.obj
 0001:00016090       _get_native_exec_linkstub  71017090 f   link.obj
 0001:000160a0       _get_native_exec_syscall_linkstub 710170a0 f   link.obj
 0001:000160b0       _get_reset_linkstub        710170b0 f   link.obj
 0001:000160c0       _get_selfmod_linkstub      710170c0 f   link.obj
 0001:000160d0       _get_shared_syscalls_bb_linkstub 710170d0 f   link.obj
 0001:000160e0       _get_shared_syscalls_trace_linkstub 710170e0 f   link.obj
 0001:000160f0       _get_shared_syscalls_unlinked_linkstub 710170f0 f   link.obj
 0001:00016100       _get_special_ibl_linkstub  71017100 f   link.obj
 0001:00016140       _get_starting_linkstub     71017140 f   link.obj
 0001:00016150       _get_stub_coarse_info      71017150 f   link.obj
 0001:00016170       _get_syscall_linkstub      71017170 f   link.obj
 0001:00016180       _in_coarse_stub_prefixes   71017180 f   link.obj
 0001:000161d0       _in_coarse_stubs           710171d0 f   link.obj
 0001:00016330       _incoming_remove_fragment  71017330 f   link.obj
 0001:00016620       _is_ibl_sourceless_linkstub 71017620 f   link.obj
 0001:00016670       _is_linkable               71017670 f   link.obj
 0001:00016710       _last_exit_deleted         71017710 f   link.obj
 0001:00016a60       _link_fragment_incoming    71017a60 f   link.obj
 0001:00016bb0       _link_fragment_outgoing    71017bb0 f   link.obj
 0001:00017240       _link_new_fragment         71018240 f   link.obj
 0001:000172e0       _link_reset_free           710182e0 f   link.obj
 0001:00017300       _link_reset_init           71018300 f   link.obj
 0001:00017330       _link_thread_exit          71018330 f   link.obj
 0001:00017350       _link_thread_init          71018350 f   link.obj
 0001:000173a0       _linkstub_frag_offs_at_end 710183a0 f   link.obj
 0001:000173e0       _linkstub_fragment         710183e0 f   link.obj
 0001:00017550       _linkstub_free_exitstubs   71018550 f   link.obj
 0001:00017690       _linkstub_propagatable_flags 71018690 f   link.obj
 0001:000176b0       _linkstub_shares_next_stub 710186b0 f   link.obj
 0001:00017830       _linkstub_size             71018830 f   link.obj
 0001:000178a0       _linkstubs_heap_size       710188a0 f   link.obj
 0001:000178f0       _linkstubs_init            710188f0 f   link.obj
 0001:00017990       _linkstubs_shift           71018990 f   link.obj
 0001:00017a40       _local_exit_stub_size      71018a40 f   link.obj
 0001:00017ab0       _separate_stub_create      71018ab0 f   link.obj
 0001:00017c10       _set_coarse_ibl_exit       71018c10 f   link.obj
 0001:00017ca0       _set_last_exit             71018ca0 f   link.obj
 0001:00017cd0       _shift_links_to_new_fragment 71018cd0 f   link.obj
 0001:00018670       _should_separate_stub      71019670 f   link.obj
 0001:000186e0       _trace_head_return_coarse_prefix 710196e0 f   link.obj
 0001:000189e0       _unlink_fragment_incoming  710199e0 f   link.obj
 0001:00018b10       _unlink_fragment_outgoing  71019b10 f   link.obj
 0001:00018bf0       _use_cbr_fallthrough_short 71019bf0 f   link.obj
 0001:00018bf0       _instr_is_exclusive_load   71019bf0 f   instr.obj
 0001:00018bf0       _opnd_disassemble_arch     71019bf0 f   disassemble.obj
 0001:00018bf0       _os_thread_re_take_over    71019bf0 f   os.obj
 0001:00018bf0       _parameters_stack_padded   71019bf0 f   mangle_shared.obj
 0001:00018bf0       _ignorable_system_call     71019bf0 f   syscall.obj
 0001:00018bf0       _reg_is_stolen             71019bf0 f   opnd.obj
 0001:00018bf0       _opnd_is_immed_int64       71019bf0 f   opnd_shared.obj
 0001:00018bf0       _instr_is_exclusive_store  71019bf0 f   instr.obj
 0001:00018c00       _d_r_dispatch              71019c00 f   dispatch.obj
 0001:0001acc0       _handle_system_call        7101bcc0 f   dispatch.obj
 0001:0001b0b0       _is_stopping_point         7101c0b0 f   dispatch.obj
 0001:0001b100       _issue_last_system_call_from_app 7101c100 f   dispatch.obj
 0001:0001b270       _transfer_to_dispatch      7101c270 f   dispatch.obj
 0001:0001b2f0       _emit_fragment             7101c2f0 f   emit.obj
 0001:0001b320       _emit_fragment_as_replacement 7101c320 f   emit.obj
 0001:0001be20       _emit_fragment_ex          7101ce20 f   emit.obj
 0001:0001be50       _emit_invisible_fragment   7101ce50 f   emit.obj
 0001:0001be80       _final_exit_shares_prev_stub 7101ce80 f   emit.obj
 0001:0001bf00       _set_linkstub_fields       7101cf00 f   emit.obj
 0001:0001c850       _acquire_recursive_app_lock 7101d850 f   utils.obj
 0001:0001c890       _acquire_recursive_lock    7101d890 f   utils.obj
 0001:0001c8d0       _bitmap_allocate_blocks    7101d8d0 f   utils.obj
 0001:0001caa0       _bitmap_free_blocks        7101daa0 f   utils.obj
 0001:0001cad0       _bitmap_initialize_free    7101dad0 f   utils.obj
 0001:0001caf0       _check_filter              7101daf0 f   utils.obj
 0001:0001cc10       _check_filter_with_wildcards 7101dc10 f   utils.obj
 0001:0001cc30       _check_low_disk_threshold  7101dc30 f   utils.obj
 0001:0001cc80       _close_log_file            7101dc80 f   utils.obj
 0001:0001cca0       _convert_date_to_millis    7101dca0 f   utils.obj
 0001:0001cd80       _convert_millis_to_date    7101dd80 f   utils.obj
 0001:0001d070       _create_log_dir            7101e070 f   utils.obj
 0001:0001d450       _d_r_crc32                 7101e450 f   utils.obj
 0001:0001d480       _d_r_get_random_seed       7101e480 f   utils.obj
 0001:0001d490       _d_r_md5_final             7101e490 f   utils.obj
 0001:0001d5b0       _d_r_md5_init              7101e5b0 f   utils.obj
 0001:0001d5f0       _d_r_md5_update            7101e5f0 f   utils.obj
 0001:0001d6b0       _spinmutex_delete          7101e6b0 f   utils.obj
 0001:0001d6b0       _d_r_mutex_delete          7101e6b0 f   utils.obj
 0001:0001d6e0       _d_r_mutex_lock            7101e6e0 f   utils.obj
 0001:0001d730       _d_r_mutex_lock_app        7101e730 f   utils.obj
 0001:0001d780       _d_r_mutex_trylock         7101e780 f   utils.obj
 0001:0001d7a0       _d_r_mutex_unlock          7101e7a0 f   utils.obj
 0001:0001d7c0       _d_r_notify                7101e7c0 f   utils.obj
 0001:0001d890       _d_r_read_lock             7101e890 f   utils.obj
 0001:0001d950       _d_r_read_unlock           7101e950 f   utils.obj
 0001:0001d990       _d_r_set_random_seed       7101e990 f   utils.obj
 0001:0001d9a0       _d_r_write_lock            7101e9a0 f   utils.obj
 0001:0001da00       _d_r_write_trylock         7101ea00 f   utils.obj
 0001:0001da60       _d_r_write_unlock          7101ea60 f   utils.obj
 0001:0001dac0       _divide_uint64_print       7101eac0 f   utils.obj
 0001:0001db50       _do_file_write             7101eb50 f   utils.obj
 0001:0001dbe0       _double_print              7101ebe0 f   utils.obj
 0001:0001dc90       _double_strchr             7101ec90 f   utils.obj
 0001:0001dcc0       _dr_strdup                 7101ecc0 f   utils.obj
 0001:0001dd10       _dr_strfree                7101ed10 f   utils.obj
 0001:0001dd40       _dr_wstrdup                7101ed40 f   utils.obj
 0001:0001de30       _dump_buffer_as_bytes      7101ee30 f   utils.obj
 0001:0001e160       _dump_global_rstats_to_stderr 7101f160 f   utils.obj
 0001:0001e710       _external_error            7101f710 f   utils.obj
 0001:0001e7d0       _get_log_dir               7101f7d0 f   utils.obj
 0001:0001e8b0       _get_random_offset         7101f8b0 f   utils.obj
 0001:0001e920       _get_short_name            7101f920 f   utils.obj
 0001:0001e940       _get_unique_logfile        7101f940 f   utils.obj
 0001:0001eb00       _hash_value                7101fb00 f   utils.obj
 0001:0001ebb0       _hashtable_num_bits        7101fbb0 f   utils.obj
 0001:0001ebd0       _is_readable_without_exception_try 7101fbd0 f   utils.obj
 0001:0001ec70       _is_string_readable_without_exception 7101fc70 f   utils.obj
 0001:0001ed70       _md5_digests_equal         7101fd70 f   utils.obj
 0001:0001eda0       _module_digests_equal      7101fda0 f   utils.obj
 0001:0001ee10       _open_log_file             7101fe10 f   utils.obj
 0001:0001f030       _our_wcsnlen               71020030 f   utils.obj
 0001:0001f050       _print_file                71020050 f   utils.obj
 0001:0001f070       _print_to_buffer           71020070 f   utils.obj
 0001:0001f090       _print_version_and_app_info 71020090 f   utils.obj
 0001:0001f100       _print_xml_cdata           71020100 f   utils.obj
 0001:0001f1b0       _region_intersection       710201b0 f   utils.obj
 0001:0001f1f0       _release_recursive_lock    710201f0 f   utils.obj
 0001:0001f220       _report_app_problem        71020220 f   utils.obj
 0001:0001f320       _report_dynamorio_problem  71020320 f   utils.obj
 0001:0001f640       _safe_write_try_except     71020640 f   utils.obj
 0001:0001f760       _self_owns_recursive_lock  71020760 f   utils.obj
 0001:0001f780       _self_owns_write_lock      71020780 f   utils.obj
 0001:0001f7a0       _set_display_version       710207a0 f   utils.obj
 0001:0001f810       _set_exception_strings     71020810 f   utils.obj
 0001:0001f900       _spinmutex_lock            71020900 f   utils.obj
 0001:0001f930       _spinmutex_lock_no_yield   71020930 f   utils.obj
 0001:0001f960       _spinmutex_trylock         71020960 f   utils.obj
 0001:0001f980       _spinmutex_unlock          71020980 f   utils.obj
 0001:0001f990       _stats_get_snapshot        71020990 f   utils.obj
 0001:0001fae0       _str_case_prefix           71020ae0 f   utils.obj
 0001:0001fb30       _try_recursive_lock        71020b30 f   utils.obj
 0001:0001fb80       _utils_exit                71020b80 f   utils.obj
 0001:0001fc00       _utils_init                71020c00 f   utils.obj
 0001:0001fd50       _config_heap_exit          71020d50 f   config.obj
 0001:0001fda0       _config_heap_init          71020da0 f   config.obj
 0001:00020030       _d_r_config_exit           71021030 f   config.obj
 0001:00020060       _d_r_config_init           71021060 f   config.obj
 0001:00020090       _d_r_get_parameter         71021090 f   config.obj
 0001:000200b0       _get_config_val            710210b0 f   config.obj
 0001:00020100       _get_config_val_other_app  71021100 f   config.obj
 0001:000201d0       _get_parameter_ex          710211d0 f   config.obj
 0001:00020ce0       _kstat_exit                71021ce0 f   stats.obj
 0001:00020d40       _kstat_init                71021d40 f   stats.obj
 0001:00022150       _kstat_thread_exit         71023150 f   stats.obj
 0001:000223a0       _kstat_thread_init         710233a0 f   stats.obj
 0001:00022820       _alloc_landing_pad         71023820 f   heap.obj
 0001:00023070       _d_r_heap_exit             71024070 f   heap.obj
 0001:000233c0       _d_r_heap_init             710243c0 f   heap.obj
 0001:00023590       _d_r_map_file              71024590 f   heap.obj
 0001:000235e0       _d_r_unmap_file            710245e0 f   heap.obj
 0001:00023990       _global_heap_alloc         71024990 f   heap.obj
 0001:000239d0       _global_heap_free          710249d0 f   heap.obj
 0001:00023a40       _global_heap_realloc       71024a40 f   heap.obj
 0001:00023b10       _global_unprotected_heap_alloc 71024b10 f   heap.obj
 0001:00023b30       _global_unprotected_heap_free 71024b30 f   heap.obj
 0001:00023bb0       _heap_alloc                71024bb0 f   heap.obj
 0001:00023c00       _heap_check_option_compatibility 71024c00 f   heap.obj
 0001:00023e30       _heap_free                 71024e30 f   heap.obj
 0001:00024110       _heap_mmap                 71025110 f   heap.obj
 0001:00024130       _heap_mmap_ex              71025130 f   heap.obj
 0001:00024150       _heap_mmap_extend_commitment 71025150 f   heap.obj
 0001:000241c0       _heap_mmap_reserve         710251c0 f   heap.obj
 0001:000241e0       _heap_mmap_reserve_post_stack 710251e0 f   heap.obj
 0001:000243f0       _heap_mmap_retract_commitment 710253f0 f   heap.obj
 0001:00024450       _heap_munmap               71025450 f   heap.obj
 0001:00024470       _heap_munmap_ex            71025470 f   heap.obj
 0001:00024490       _heap_munmap_post_stack    71025490 f   heap.obj
 0001:00024500       _heap_post_exit            71025500 f   heap.obj
 0001:00024510       _heap_reachable_alloc      71025510 f   heap.obj
 0001:00024580       _heap_reachable_free       71025580 f   heap.obj
 0001:00024590       _heap_reset_free           71025590 f   heap.obj
 0001:00024650       _heap_reset_init           71025650 f   heap.obj
 0001:000246a0       _heap_thread_exit          710256a0 f   heap.obj
 0001:00024800       _heap_thread_init          71025800 f   heap.obj
 0001:00024950       _heap_thread_reset_free    71025950 f   heap.obj
 0001:00024970       _heap_thread_reset_init    71025970 f   heap.obj
 0001:00024a00       _heap_vmareas_synch_units  71025a00 f   heap.obj
 0001:00024d30       _is_stack_overflow         71025d30 f   heap.obj
 0001:00024da0       _is_vmm_reserved_address   71025da0 f   heap.obj
 0001:00024ea0       _landing_pads_to_executable_areas 71025ea0 f   heap.obj
 0001:00024f60       _local_heap_protected      71025f60 f   heap.obj
 0001:00024fa0       _lockwise_safe_to_allocate_memory 71025fa0 f   heap.obj
 0001:00024fc0       _nonpersistent_heap_alloc  71025fc0 f   heap.obj
 0001:00025000       _nonpersistent_heap_free   71026000 f   heap.obj
 0001:000250a0       _print_vmm_heap_data       710260a0 f   heap.obj
 0001:00025110       _protect_global_heap       71026110 f   heap.obj
 0001:000251b0       _protect_local_heap        710261b0 f   heap.obj
 0001:00025610       _special_heap_alloc        71026610 f   heap.obj
 0001:00025630       _special_heap_calloc       71026630 f   heap.obj
 0001:00025860       _special_heap_cfree        71026860 f   heap.obj
 0001:00025b60       _special_heap_exit         71026b60 f   heap.obj
 0001:00025da0       _special_heap_free         71026da0 f   heap.obj
 0001:00025e60       _special_heap_init         71026e60 f   heap.obj
 0001:00026040       _special_heap_iterator_hasnext 71027040 f   heap.obj
 0001:00026050       _special_heap_iterator_next 71027050 f   heap.obj
 0001:000260a0       _special_heap_iterator_start 710270a0 f   heap.obj
 0001:000260d0       _special_heap_iterator_stop 710270d0 f   heap.obj
 0001:000260f0       _special_heap_pclookup_init 710270f0 f   heap.obj
 0001:00026130       _special_heap_profile_exit 71027130 f   heap.obj
 0001:00026200       _special_heap_set_unit_end 71027200 f   heap.obj
 0001:00026230       _special_heap_set_vector_data 71027230 f   heap.obj
 0001:00026260       _stack_alloc               71027260 f   heap.obj
 0001:00026360       _stack_free                71027360 f   heap.obj
 0001:000265a0       _trim_landing_pad          710275a0 f   heap.obj
 0001:000266d0       _vmcode_get_end            710276d0 f   heap.obj
 0001:000266f0       _vmcode_get_executable_addr 710276f0 f   heap.obj
 0001:00026730       _vmcode_get_start          71027730 f   heap.obj
 0001:00026740       _vmcode_get_writable_addr  71027740 f   heap.obj
 0001:00026770       _vmcode_unreachable_pc     71027770 f   heap.obj
 0001:00026a90       _vmm_heap_exit             71027a90 f   heap.obj
 0001:00026c50       _vmm_heap_handle_pending_low_on_memory_event_trigger 71027c50 f   heap.obj
 0001:00026c90       _vmm_heap_init             71027c90 f   heap.obj
 0001:00027c90       _cur_trace_vmlist          71028c90 f   monitor.obj
 0001:00027cb0       _d_r_monitor_exit          71028cb0 f   monitor.obj
 0001:00028670       _is_building_trace         71029670 f   monitor.obj
 0001:00028800       _mangle_trace_at_end       71029800 f   monitor.obj
 0001:00028820       _mark_trace_head           71029820 f   monitor.obj
 0001:00028a30       _monitor_cache_enter       71029a30 f   monitor.obj
 0001:00029870       _monitor_cache_exit        7102a870 f   monitor.obj
 0001:00029920       _monitor_delete_would_abort_trace 7102a920 f   monitor.obj
 0001:00029960       _monitor_is_linkable       7102a960 f   monitor.obj
 0001:000299e0       _monitor_remove_fragment   7102a9e0 f   monitor.obj
 0001:00029a50       _monitor_thread_exit       7102aa50 f   monitor.obj
 0001:00029a60       _monitor_thread_init       7102aa60 f   monitor.obj
 0001:00029ad0       _trace_abort_and_delete    7102aad0 f   monitor.obj
 0001:00029ad0       _monitor_thread_reset_free 7102aad0 f   monitor.obj
 0001:00029c50       _should_be_trace_head      7102ac50 f   monitor.obj
 0001:00029e20       _thcounter_range_remove    7102ae20 f   monitor.obj
 0001:00029e50       _trace_abort               7102ae50 f   monitor.obj
 0001:0002a080       _acquire_vm_areas_lock     7102b080 f   vmareas.obj
 0001:0002a0c0       _acquire_vm_areas_lock_if_not_already 7102b0c0 f   vmareas.obj
 0001:0002a120       _add_dynamo_heap_vm_area   7102b120 f   vmareas.obj
 0001:0002a160       _add_dynamo_vm_area        7102b160 f   vmareas.obj
 0001:0002a1e0       _add_executable_region     7102b1e0 f   vmareas.obj
 0001:0002a5e0       _add_to_lazy_deletion_list 7102b5e0 f   vmareas.obj
 0001:0002ae50       _app_memory_allocation     7102be50 f   vmareas.obj
 0001:0002afe0       _app_memory_deallocation   7102bfe0 f   vmareas.obj
 0001:0002b040       _app_memory_pre_alloc      7102c040 f   vmareas.obj
 0001:0002b120       _app_memory_protection_change 7102c120 f   vmareas.obj
 0001:0002b690       _check_in_last_thread_vm_area 7102c690 f   vmareas.obj
 0001:0002b820       _check_thread_vm_area      7102c820 f   vmareas.obj
 0001:0002c3f0       _check_thread_vm_area_abort 7102d3f0 f   vmareas.obj
 0001:0002c530       _dynamo_vm_area_overlap    7102d530 f   vmareas.obj
 0001:0002c580       _dynamo_vm_areas_exit      7102d580 f   vmareas.obj
 0001:0002c5b0       _dynamo_vm_areas_init      7102d5b0 f   vmareas.obj
 0001:0002c630       _dynamo_vm_areas_lock      7102d630 f   vmareas.obj
 0001:0002c750       _dynamo_vm_areas_unlock    7102d750 f   vmareas.obj
 0001:0002c780       _executable_area_overlap_bounds 7102d780 f   vmareas.obj
 0001:0002c9e0       _executable_areas_lock     7102d9e0 f   vmareas.obj
 0001:0002cb40       _executable_areas_unlock   7102db40 f   vmareas.obj
 0001:0002cb50       _executable_vm_area_coarse_overlap 7102db50 f   vmareas.obj
 0001:0002cba0       _executable_vm_area_executed_from 7102dba0 f   vmareas.obj
 0001:0002cbf0       _executable_vm_area_overlap 7102dbf0 f   vmareas.obj
 0001:0002cc90       _free_nonexec_coarse_and_unlock 7102dc90 f   vmareas.obj
 0001:0002ce70       _get_executable_area_coarse_info 7102de70 f   vmareas.obj
 0001:0002ce90       _get_executable_area_flags 7102de90 f   vmareas.obj
 0001:0002cef0       _get_selfmod_exec_counter  7102def0 f   vmareas.obj
 0001:0002cfc0       _handle_modified_code      7102dfc0 f   vmareas.obj
 0001:0002d650       _is_address_on_stack       7102e650 f   vmareas.obj
 0001:0002d6e0       _is_driver_address         7102e6e0 f   vmareas.obj
 0001:0002d750       _is_dynamo_address         7102e750 f   vmareas.obj
 0001:0002d7a0       _is_dynamo_area_buffer     7102e7a0 f   vmareas.obj
 0001:0002d820       _is_executable_area_writable 7102e820 f   vmareas.obj
 0001:0002d870       _is_jit_managed_area       7102e870 f   vmareas.obj
 0001:0002d980       _is_pretend_or_executable_writable 7102e980 f   vmareas.obj
 0001:0002da30       _is_pretend_writable_address 7102ea30 f   vmareas.obj
 0001:0002dae0       _mark_dynamo_vm_areas_stale 7102eae0 f   vmareas.obj
 0001:0002daf0       _mark_executable_area_coarse_frozen 7102eaf0 f   vmareas.obj
 0001:0002db60       _mark_unload_end           7102eb60 f   vmareas.obj
 0001:0002db90       _mark_unload_start         7102eb90 f   vmareas.obj
 0001:0002dcf0       _print_executable_areas    7102ecf0 f   vmareas.obj
 0001:0002dd40       _print_last_deallocated    7102ed40 f   vmareas.obj
 0001:0002dec0       _release_vm_areas_lock     7102eec0 f   vmareas.obj
 0001:0002df00       _remove_dynamo_heap_areas  7102ef00 f   vmareas.obj
 0001:0002e260       _remove_dynamo_vm_area     7102f260 f   vmareas.obj
 0001:0002e2b0       _remove_executable_region  7102f2b0 f   vmareas.obj
 0001:0002e4f0       _remove_from_lazy_deletion_list 7102f4f0 f   vmareas.obj
 0001:0002eb20       _revert_memory_regions     7102fb20 f   vmareas.obj
 0001:0002ebd0       _self_owns_dynamo_vm_area_lock 7102fbd0 f   vmareas.obj
 0001:0002ebf0       _set_region_jit_managed    7102fbf0 f   vmareas.obj
 0001:0002eca0       _set_thread_decode_page_start 7102fca0 f   vmareas.obj
 0001:0002ecc0       _tamper_resistant_region_add 7102fcc0 f   vmareas.obj
 0001:0002ece0       _thread_vm_area_overlap    7102fce0 f   vmareas.obj
 0001:0002ed50       _unlink_fragments_for_deletion 7102fd50 f   vmareas.obj
 0001:0002ee40       _vm_area_add_fragment      7102fe40 f   vmareas.obj
 0001:0002f0b0       _vm_area_add_to_list       710300b0 f   vmareas.obj
 0001:0002f4e0       _vm_area_allsynch_flush_fragments 710304e0 f   vmareas.obj
 0001:0002f7a0       _vm_area_check_shared_pending 710307a0 f   vmareas.obj
 0001:0002fc60       _vm_area_coarse_units_freeze 71030c60 f   vmareas.obj
 0001:0002fd00       _vm_area_coarse_units_reset_free 71030d00 f   vmareas.obj
 0001:0002fd90       _vm_area_delay_load_coarse_units 71030d90 f   vmareas.obj
 0001:0002fed0       _vm_area_destroy_list      71030ed0 f   vmareas.obj
 0001:0002fef0       _vm_area_flush_fragments   71030ef0 f   vmareas.obj
 0001:00030130       _vm_area_remove_fragment   71031130 f   vmareas.obj
 0001:00030210       _vm_area_selfmod_check_clear_exec_count 71031210 f   vmareas.obj
 0001:000303e0       _vm_area_unlink_fragments  710313e0 f   vmareas.obj
 0001:00030680       _vm_areas_exit             71031680 f   vmareas.obj
 0001:00030880       _vm_areas_init             71031880 f   vmareas.obj
 0001:00030cc0       _vm_areas_post_exit        71031cc0 f   vmareas.obj
 0001:00030cd0       _vm_areas_reset_free       71031cd0 f   vmareas.obj
 0001:00030d00       _vm_areas_reset_init       71031d00 f   vmareas.obj
 0001:00030d70       _vm_areas_thread_reset_free 71031d70 f   vmareas.obj
 0001:00030d70       _vm_areas_thread_exit      71031d70 f   vmareas.obj
 0001:00030d90       _vm_areas_thread_init      71031d90 f   vmareas.obj
 0001:00030e20       _vm_areas_thread_reset_init 71031e20 f   vmareas.obj
 0001:00030eb0       _vm_list_overlaps          71031eb0 f   vmareas.obj
 0001:00031000       _vmvector_add              71032000 f   vmareas.obj
 0001:00031070       _vmvector_add_replace      71032070 f   vmareas.obj
 0001:00031110       _vmvector_create_vector    71032110 f   vmareas.obj
 0001:00031140       _vmvector_delete_vector    71032140 f   vmareas.obj
 0001:000311e0       _vmvector_iterator_hasnext 710321e0 f   vmareas.obj
 0001:00031200       _vmvector_iterator_next    71032200 f   vmareas.obj
 0001:00031250       _vmvector_iterator_peek    71032250 f   vmareas.obj
 0001:000312a0       _vmvector_iterator_start   710322a0 f   vmareas.obj
 0001:000312f0       _vmvector_iterator_startover 710322f0 f   vmareas.obj
 0001:00031300       _vmvector_iterator_stop    71032300 f   vmareas.obj
 0001:00031340       _vmvector_lookup           71032340 f   vmareas.obj
 0001:000313b0       _vmvector_lookup_data      710323b0 f   vmareas.obj
 0001:00031440       _vmvector_modify_data      71032440 f   vmareas.obj
 0001:000314c0       _vmvector_overlap          710324c0 f   vmareas.obj
 0001:00031530       _vmvector_remove           71032530 f   vmareas.obj
 0001:00031590       _vmvector_remove_containing_area 71032590 f   vmareas.obj
 0001:00031620       _vmvector_reset_vector     71032620 f   vmareas.obj
 0001:00031690       _was_executable_area_writable 71032690 f   vmareas.obj
 0001:00031720       _generic_hash_add          71032720 f   hashtable.obj
 0001:00031750       _generic_hash_clear        71032750 f   hashtable.obj
 0001:000317d0       _generic_hash_create       710327d0 f   hashtable.obj
 0001:00031810       _generic_hash_destroy      71032810 f   hashtable.obj
 0001:000318d0       _generic_hash_iterate_next 710328d0 f   hashtable.obj
 0001:00031930       _generic_hash_iterate_remove 71032930 f   hashtable.obj
 0001:000319a0       _generic_hash_lookup       710329a0 f   hashtable.obj
 0001:000319d0       _generic_hash_range_remove 710329d0 f   hashtable.obj
 0001:000319f0       _generic_hash_remove       710329f0 f   hashtable.obj
 0001:00031a70       _hashtable_bits_given_entries 71032a70 f   hashtable.obj
 0001:00032640       _strhash_hash_add          71033640 f   hashtable.obj
 0001:00032670       _strhash_hash_create       71033670 f   hashtable.obj
 0001:00032700       _strhash_hash_destroy      71033700 f   hashtable.obj
 0001:000327c0       _strhash_hash_lookup       710337c0 f   hashtable.obj
 0001:000327f0       _strhash_hash_remove       710337f0 f   hashtable.obj
 0001:00032920       _is_module_list_initialized 71033920 f   module_list.obj
 0001:00032930       _module_calculate_digest   71033930 f   module_list.obj
 0001:00032c30       _module_iterator_hasnext   71033c30 f   module_list.obj
 0001:00032c90       _module_iterator_next      71033c90 f   module_list.obj
 0001:00032cb0       _module_iterator_start     71033cb0 f   module_list.obj
 0001:00032cf0       _module_iterator_stop      71033cf0 f   module_list.obj
 0001:00032d30       _module_list_add           71033d30 f   module_list.obj
 0001:00032dc0       _module_list_add_mapping   71033dc0 f   module_list.obj
 0001:00032de0       _module_list_remove        71033de0 f   module_list.obj
 0001:00032ed0       _module_list_remove_mapping 71033ed0 f   module_list.obj
 0001:00032ef0       _module_pc_lookup          71033ef0 f   module_list.obj
 0001:00032f10       _modules_exit              71033f10 f   module_list.obj
 0001:00033000       _modules_init              71034000 f   module_list.obj
 0001:00033020       _modules_reset_list        71034020 f   module_list.obj
 0001:000330e0       _os_get_module_info_lock   710340e0 f   module_list.obj
 0001:00033100       _os_get_module_info_unlock 71034100 f   module_list.obj
 0001:00033120       _os_get_module_info_write_lock 71034120 f   module_list.obj
 0001:00033140       _os_get_module_info_write_unlock 71034140 f   module_list.obj
 0001:00033160       _os_get_module_name_buf_strdup 71034160 f   module_list.obj
 0001:00033220       _os_get_module_name_strdup 71034220 f   module_list.obj
 0001:000332a0       _os_module_clear_flag      710342a0 f   module_list.obj
 0001:000332c0       _os_module_get_flag        710342c0 f   module_list.obj
 0001:00033320       _os_module_get_view_size   71034320 f   module_list.obj
 0001:00033380       _os_module_set_flag        71034380 f   module_list.obj
 0001:00033430       _moduledb_exit             71034430 f   moduledb.obj
 0001:000334a0       _moduledb_init             710344a0 f   moduledb.obj
 0001:000334c0       _moduledb_process_image    710344c0 f   moduledb.obj
 0001:000336c0       _print_moduledb_exempt_lists 710346c0 f   moduledb.obj
 0001:000341e0       _coarse_unit_check_persist_space 710351e0 f   perscache.obj
 0001:00034250       _coarse_unit_create        71035250 f   perscache.obj
 0001:000343d0       _coarse_unit_free          710353d0 f   perscache.obj
 0001:00034420       _coarse_unit_freeze        71035420 f   perscache.obj
 0001:000345e0       _coarse_unit_init          710355e0 f   perscache.obj
 0001:00034610       _coarse_unit_load          71035610 f   perscache.obj
 0001:000350f0       _coarse_unit_mark_in_use   710360f0 f   perscache.obj
 0001:00035170       _coarse_unit_merge         71036170 f   perscache.obj
 0001:00035720       _coarse_unit_persist       71036720 f   perscache.obj
 0001:00036060       _coarse_unit_reset_free    71037060 f   perscache.obj
 0001:00036590       _coarse_units_freeze_all   71037590 f   perscache.obj
 0001:00036b40       _dr_fragment_persistable   71037b40 f   perscache.obj
 0001:00036bb0       _dr_persist_size           71037bb0 f   perscache.obj
 0001:00036bc0       _dr_persist_start          71037bc0 f   perscache.obj
 0001:00036f10       _instrument_persist_section 71037f10 f   perscache.obj
 0001:00036fd0       _perscache_dirname         71037fd0 f   perscache.obj
 0001:000370b0       _perscache_fast_exit       710380b0 f   perscache.obj
 0001:000370f0       _perscache_init            710380f0 f   perscache.obj
 0001:00037370       _transfer_coarse_fragment  71038370 f   perscache.obj
 0001:000375d0       _transfer_coarse_stub      710385d0 f   perscache.obj
 0001:000376b0       _transfer_coarse_stub_fix_trace_head 710386b0 f   perscache.obj
 0001:000376f0       _generic_nudge_handler     710386f0 f   nudge.obj
 0001:00037940       _generic_nudge_target      71038940 f   nudge.obj
 0001:00037960       _nudge_internal            71038960 f   nudge.obj
 0001:00037aa0       _nudge_thread_cleanup      71038aa0 f   nudge.obj
 0001:00037b60       _at_safe_spot              71038b60 f   synch.obj
 0001:00037ce0       _check_wait_at_safe_spot   71038ce0 f   synch.obj
 0001:00037e80       _detach_on_permanent_stack 71038e80 f   synch.obj
 0001:000382f0       _end_synch_with_all_threads 710392f0 f   synch.obj
 0001:000383b0       _is_at_do_syscall          710393b0 f   synch.obj
 0001:00038530       _send_all_other_threads_native 71039530 f   synch.obj
 0001:00038720       _set_synch_state           71039720 f   synch.obj
 0001:00038750       _set_synched_thread_context 71039750 f   synch.obj
 0001:000388d0       _should_wait_at_safe_spot  710398d0 f   synch.obj
 0001:000388f0       _synch_exit                710398f0 f   synch.obj
 0001:00038900       _synch_thread_exit         71039900 f   synch.obj
 0001:000389a0       _synch_thread_init         710399a0 f   synch.obj
 0001:00038a10       _synch_with_all_threads    71039a10 f   synch.obj
 0001:00039060       _synch_with_thread         7103a060 f   synch.obj
 0001:000393c0       _thread_synch_state_no_xfer 7103a3c0 f   synch.obj
 0001:00039420       _thread_synch_successful   7103a420 f   synch.obj
 0001:00039440       _translate_from_synchall_to_dispatch 7103a440 f   synch.obj
 0001:000395b0       _translate_mcontext        7103a5b0 f   synch.obj
 0001:00039700       _in_private_library        7103a700 f   loader_shared.obj
 0001:00039720       _loader_exit               7103a720 f   loader_shared.obj
 0001:000398a0       _loader_init_epilogue      7103a8a0 f   loader_shared.obj
 0001:000399d0       _loader_init_prologue      7103a9d0 f   loader_shared.obj
 0001:00039b10       _loader_make_exit_calls    7103ab10 f   loader_shared.obj
 0001:00039b90       _loader_thread_exit        7103ab90 f   loader_shared.obj
 0001:00039bf0       _loader_thread_init        7103abf0 f   loader_shared.obj
 0001:00039c90       _locate_and_load_private_library 7103ac90 f   loader_shared.obj
 0001:00039d10       _privload_add_drext_path   7103ad10 f   loader_shared.obj
 0001:00039e50       _privload_first_module     7103ae50 f   loader_shared.obj
 0001:00039e60       _privload_insert           7103ae60 f   loader_shared.obj
 0001:00039fd0       _privload_load             7103afd0 f   loader_shared.obj
 0001:0003a190       _privload_lookup           7103b190 f   loader_shared.obj
 0001:0003a270       _privload_lookup_by_base   7103b270 f   loader_shared.obj
 0001:0003a2e0       _privload_lookup_by_pc     7103b2e0 f   loader_shared.obj
 0001:0003a360       _privload_next_module      7103b360 f   loader_shared.obj
 0001:0003a370       _privload_print_modules    7103b370 f   loader_shared.obj
 0001:0003a630       _privload_unload           7103b630 f   loader_shared.obj
 0001:0003a750       _redirect_calloc           7103b750 f   loader_shared.obj
 0001:0003a7b0       _redirect_free             7103b7b0 f   loader_shared.obj
 0001:0003a7e0       _redirect_malloc           7103b7e0 f   loader_shared.obj
 0001:0003a820       _redirect_malloc_requested_size 7103b820 f   loader_shared.obj
 0001:0003a860       _redirect_realloc          7103b860 f   loader_shared.obj
 0001:0003a920       _redirect_strdup           7103b920 f   loader_shared.obj
 0001:0003a9a0       _unload_private_library    7103b9a0 f   loader_shared.obj
 0001:0003aa60       _dr_snprintf               7103ba60 f   instrument.obj
 0001:0003aa60       _d_r_snprintf              7103ba60 f   io.obj
 0001:0003aa80       _d_r_snprintf_wide         7103ba80 f   io.obj
 0001:0003aa80       _dr_snwprintf              7103ba80 f   instrument.obj
 0001:0003aaa0       _dr_sscanf                 7103baa0 f   instrument.obj
 0001:0003aaa0       _d_r_sscanf                7103baa0 f   io.obj
 0001:0003aac0       _d_r_vsnprintf             7103bac0 f   io.obj
 0001:0003b840       _d_r_vsnprintf_wide        7103c840 f   io.obj
 0001:0003c160       _d_r_vsscanf               7103d160 f   io.obj
 0001:0003c780       _double2int_trunc          7103d780 f   io.obj
 0001:0003d220       _utf16_to_utf8_size        7103e220 f   io.obj
 0001:0003d520       _call_to_native            7103e520 f   native_exec.obj
 0001:0003d8b0       _interpret_back_from_native 7103e8b0 f   native_exec.obj
 0001:0003d8e0       _is_native_pc              7103e8e0 f   native_exec.obj
 0001:0003d900       _native_exec_exit          7103e900 f   native_exec.obj
 0001:0003d930       _native_exec_init          7103e930 f   native_exec.obj
 0001:0003d9b0       _native_exec_module_load   7103e9b0 f   native_exec.obj
 0001:0003d9e0       _native_exec_module_unload 7103e9e0 f   native_exec.obj
 0001:0003da10       _put_back_native_retaddrs  7103ea10 f   native_exec.obj
 0001:0003da50       _return_from_native        7103ea50 f   native_exec.obj
 0001:0003dab0       _return_to_native          7103eab0 f   native_exec.obj
 0001:0003db00       ___wrap_calloc             7103eb00 f   instrument.obj
 0001:0003db10       ___wrap_free               7103eb10 f   instrument.obj
 0001:0003db20       ___wrap_malloc             7103eb20 f   instrument.obj
 0001:0003db30       ___wrap_realloc            7103eb30 f   instrument.obj
 0001:0003db40       ___wrap_strdup             7103eb40 f   instrument.obj
 0001:0003ddf0       _dr_abort                  7103edf0 f   instrument.obj
 0001:0003de20       _dr_abort_with_code        7103ee20 f   instrument.obj
 0001:0003de50       _dr_allow_unsafe_static_behavior 7103ee50 f   instrument.obj
 0001:0003de60       _dr_app_arg_as_cstring     7103ee60 f   instrument.obj
 0001:0003dec0       _dr_app_pc_for_decoding    7103eec0 f   instrument.obj
 0001:0003def0       _dr_app_pc_from_cache_pc   7103eef0 f   instrument.obj
 0001:0003df60       _dr_app_recurlock_lock     7103ef60 f   instrument.obj
 0001:0003df80       _dr_atomic_add32_return_sum 7103ef80 f   instrument.obj
 0001:0003dfa0       _instrlist_first           7103efa0 f   instrlist.obj
 0001:0003dfa0       _dr_atomic_load32          7103efa0 f   instrument.obj
 0001:0003dfb0       _dr_atomic_store32         7103efb0 f   instrument.obj
 0001:0003dfc0       _dr_bb_exists_at           7103efc0 f   instrument.obj
 0001:0003dff0       _dr_bb_hook_exists         7103eff0 f   instrument.obj
 0001:0003e000       _dr_cleanup_after_call     7103f000 f   instrument.obj
 0001:0003e030       _dr_client_thread_set_suspendable 7103f030 f   instrument.obj
 0001:0003e060       _dr_clobber_retaddr_after_read 7103f060 f   instrument.obj
 0001:0003e0c0       _dr_close_file             7103f0c0 f   instrument.obj
 0001:0003e0c0       _destroy_event             7103f0c0 f   os.obj
 0001:0003e0d0       _dr_convert_handle_to_pid  7103f0d0 f   instrument.obj
 0001:0003e0e0       _dr_convert_pid_to_handle  7103f0e0 f   instrument.obj
 0001:0003e0f0       _dr_create_dir             7103f0f0 f   instrument.obj
 0001:0003e110       _dr_create_memory_dump     7103f110 f   instrument.obj
 0001:0003e140       _dr_custom_alloc           7103f140 f   instrument.obj
 0001:0003e1e0       _dr_custom_free            7103f1e0 f   instrument.obj
 0001:0003e290       _dr_delay_flush_region     7103f290 f   instrument.obj
 0001:0003e310       _dr_delete_dir             7103f310 f   instrument.obj
 0001:0003e320       _dr_delete_file            7103f320 f   instrument.obj
 0001:0003e330       _dr_delete_fragment        7103f330 f   instrument.obj
 0001:0003e430       _dr_directory_exists       7103f430 f   instrument.obj
 0001:0003e450       _dr_dup_file_handle        7103f450 f   instrument.obj
 0001:0003e490       _dr_enable_console_printing 7103f490 f   instrument.obj
 0001:0003e570       _dr_end_trace_hook_exists  7103f570 f   instrument.obj
 0001:0003e580       _dr_event_create           7103f580 f   instrument.obj
 0001:0003e590       _dr_event_destroy          7103f590 f   instrument.obj
 0001:0003e5b0       _dr_event_reset            7103f5b0 f   instrument.obj
 0001:0003e5d0       _dr_event_signal           7103f5d0 f   instrument.obj
 0001:0003e5f0       _dr_event_wait             7103f5f0 f   instrument.obj
 0001:0003e660       _dr_exit_hook_exists       7103f660 f   instrument.obj
 0001:0003e670       _dr_exit_process           7103f670 f   instrument.obj
 0001:0003e730       _dr_file_exists            7103f730 f   instrument.obj
 0001:0003e750       _dr_file_seek              7103f750 f   instrument.obj
 0001:0003e770       _dr_file_size              7103f770 f   instrument.obj
 0001:0003e780       _dr_file_tell              7103f780 f   instrument.obj
 0001:0003e790       _dr_flush_file             7103f790 f   instrument.obj
 0001:0003e7a0       _dr_flush_region           7103f7a0 f   instrument.obj
 0001:0003e7c0       _dr_flush_region_ex        7103f7c0 f   instrument.obj
 0001:0003e830       _dr_fprintf                7103f830 f   instrument.obj
 0001:0003e890       _dr_fragment_app_pc        7103f890 f   instrument.obj
 0001:0003e8c0       _dr_fragment_deleted_hook_exists 7103f8c0 f   instrument.obj
 0001:0003e8d0       _dr_fragment_exists_at     7103f8d0 f   instrument.obj
 0001:0003e900       _dr_fragment_size          7103f900 f   instrument.obj
 0001:0003e950       _kernel32_redir_init_proc  7103f950 f   kernel32_proc.obj
 0001:0003e950       _dr_get_app_PEB            7103f950 f   instrument.obj
 0001:0003e960       _dr_get_app_args           7103f960 f   instrument.obj
 0001:0003e970       _dr_get_application_name   7103f970 f   instrument.obj
 0001:0003e980       _dr_get_client_base        7103f980 f   instrument.obj
 0001:0003e9c0       _dr_get_client_path        7103f9c0 f   instrument.obj
 0001:0003ea00       _dr_get_current_directory  7103fa00 f   instrument.obj
 0001:0003ea10       _dr_get_current_drcontext  7103fa10 f   instrument.obj
 0001:0003ea20       _dr_get_dr_segment_base    7103fa20 f   instrument.obj
 0001:0003ea30       _dr_get_dr_thread_handle   7103fa30 f   instrument.obj
 0001:0003ea50       _dr_get_error_code         7103fa50 f   instrument.obj
 0001:0003ea70       _os_create_memory_file     7103fa70 f   os.obj
 0001:0003ea70       _reg_parameter_num         7103fa70 f   opnd_shared.obj
 0001:0003ea70       _dr_get_logfile            7103fa70 f   instrument.obj
 0001:0003ea70       _redirect_GetCurrentProcess@0 7103fa70 f   kernel32_proc.obj
 0001:0003ea80       _dr_get_mcontext           7103fa80 f   instrument.obj
 0001:0003eaa0       _dr_get_mcontext_priv      7103faa0 f   instrument.obj
 0001:0003ec30       _dr_get_microseconds       7103fc30 f   instrument.obj
 0001:0003ec40       _dr_get_milliseconds       7103fc40 f   instrument.obj
 0001:0003ec50       _dr_get_option_array       7103fc50 f   instrument.obj
 0001:0003eca0       _dr_get_options            7103fca0 f   instrument.obj
 0001:0003edc0       _dr_get_os_version         7103fdc0 f   instrument.obj
 0001:0003ef80       _redirect_GetCurrentProcessId@0 7103ff80 f   kernel32_proc.obj
 0001:0003ef80       _dr_get_process_id_from_drcontext 7103ff80 f   instrument.obj
 0001:0003ef80       _dr_get_process_id         7103ff80 f   instrument.obj
 0001:0003ef90       _dr_get_random_seed        7103ff90 f   instrument.obj
 0001:0003efa0       _dr_get_random_value       7103ffa0 f   instrument.obj
 0001:0003efb0       _dr_get_stats              7103ffb0 f   instrument.obj
 0001:0003efc0       _dr_get_stderr_file        7103ffc0 f   instrument.obj
 0001:0003efd0       _dr_get_stdin_file         7103ffd0 f   instrument.obj
 0001:0003efe0       _dr_get_stdout_file        7103ffe0 f   instrument.obj
 0001:0003eff0       _opnd_get_flags            7103fff0 f   opnd_shared.obj
 0001:0003eff0       _instr_get_isa_mode        7103fff0 f   instr.obj
 0001:0003eff0       _dr_get_stolen_reg         7103fff0 f   instrument.obj
 0001:0003eff0       _instrlist_get_auto_predicate 7103fff0 f   instrlist.obj
 0001:0003eff0       _dr_insert_it_instrs       7103fff0 f   instrument.obj
 0001:0003eff0       _dr_remove_it_instrs       7103fff0 f   instrument.obj
 0001:0003f000       _dr_get_thread_id          71040000 f   instrument.obj
 0001:0003f010       _dr_get_time               71040010 f   instrument.obj
 0001:0003f030       _dr_get_tls_field          71040030 f   instrument.obj
 0001:0003f040       _dr_get_token              71040040 f   instrument.obj
 0001:0003f070       _dr_global_alloc           71040070 f   instrument.obj
 0001:0003f090       _dr_global_free            71040090 f   instrument.obj
 0001:0003f0b0       _dr_insert_call            710400b0 f   instrument.obj
 0001:0003f150       _dr_insert_call_ex         71040150 f   instrument.obj
 0001:0003f1c0       _dr_insert_call_instrumentation 710401c0 f   instrument.obj
 0001:0003f330       _dr_insert_call_noreturn   71040330 f   instrument.obj
 0001:0003f3a0       _dr_insert_cbr_instrumentation 710403a0 f   instrument.obj
 0001:0003f3e0       _dr_insert_cbr_instrumentation_ex 710403e0 f   instrument.obj
 0001:0003fa90       _dr_insert_clean_call      71040a90 f   instrument.obj
 0001:0003fb00       _dr_insert_clean_call_ex   71040b00 f   instrument.obj
 0001:0003fb60       _dr_insert_clean_call_ex_varg 71040b60 f   instrument.obj
 0001:000400d0       _dr_insert_get_seg_base    710410d0 f   instrument.obj
 0001:000401b0       _private_lib_handle_cb     710411b0 f   loader.obj
 0001:000401b0       _dr_mutex_self_owns        710411b0 f   instrument.obj
 0001:000401b0       _os_heap_systemwide_overcommit 710411b0 f   os.obj
 0001:000401b0       _dr_insert_set_stolen_reg_value 710411b0 f   instrument.obj
 0001:000401b0       _dr_insert_get_stolen_reg_value 710411b0 f   instrument.obj
 0001:000401b0       _remove_from_all_memory_areas 710411b0 f   os.obj
 0001:000401b0       _exit_cti_reaches_target   710411b0 f   emit_utils.obj
 0001:000401c0       _dr_insert_mbr_instrumentation 710411c0 f   instrument.obj
 0001:00040520       _dr_insert_read_raw_tls    71041520 f   instrument.obj
 0001:000405a0       _dr_insert_read_tls_field  710415a0 f   instrument.obj
 0001:000406b0       _dr_insert_ubr_instrumentation 710416b0 f   instrument.obj
 0001:000406c0       _dr_insert_write_raw_tls   710416c0 f   instrument.obj
 0001:00040740       _dr_insert_write_tls_field 71041740 f   instrument.obj
 0001:000408a0       _dr_is_detaching           710418a0 f   instrument.obj
 0001:000408b0       _dr_is_notify_on           710418b0 f   instrument.obj
 0001:000408c0       _dr_is_nudge_thread        710418c0 f   instrument.obj
 0001:000408e0       _dr_is_thread_native       710418e0 f   instrument.obj
 0001:00040900       _dr_is_tracking_where_am_i 71041900 f   instrument.obj
 0001:00040900       _should_track_where_am_i   71041900 f   instrument.obj
 0001:00040920       _dr_is_wow64               71041920 f   instrument.obj
 0001:00040930       _dr_load_aux_library       71041930 f   instrument.obj
 0001:000409c0       _dr_load_aux_x64_library   710419c0 f   instrument.obj
 0001:000409f0       _dr_lookup_aux_library_routine 710419f0 f   instrument.obj
 0001:00040a10       _dr_lookup_aux_x64_library_routine 71041a10 f   instrument.obj
 0001:00040a30       _dr_map_executable_file    71041a30 f   instrument.obj
 0001:00040a60       _dr_map_file               71041a60 f   instrument.obj
 0001:00040a90       _dr_mark_safe_to_suspend   71041a90 f   instrument.obj
 0001:00040ab0       _dr_mark_trace_head        71041ab0 f   instrument.obj
 0001:00040b90       _dr_max_opnd_accessible_spill_slot 71041b90 f   instrument.obj
 0001:00040bb0       _dr_mcontext_xmm_fields_valid 71041bb0 f   instrument.obj
 0001:00040bc0       _dr_mcontext_zmm_fields_valid 71041bc0 f   instrument.obj
 0001:00040bd0       _dr_memory_is_dr_internal  71041bd0 f   instrument.obj
 0001:00040be0       _dr_memory_is_in_client    71041be0 f   instrument.obj
 0001:00040c40       _dr_memory_is_readable     71041c40 f   instrument.obj
 0001:00040c40       _is_readable_without_exception_query_os 71041c40 f   os.obj
 0001:00040c40       _is_readable_without_exception_query_os_noblock 71041c40 f   os.obj
 0001:00040c50       _dr_memory_protect         71041c50 f   instrument.obj
 0001:00040cb0       _dr_merge_arith_flags      71041cb0 f   instrument.obj
 0001:00040ce0       _dr_messagebox             71041ce0 f   instrument.obj
 0001:00040db0       _dr_modload_hook_exists    71041db0 f   instrument.obj
 0001:00040dc0       _dr_mutex_create           71041dc0 f   instrument.obj
 0001:00040df0       _dr_mutex_destroy          71041df0 f   instrument.obj
 0001:00040e10       _dr_mutex_lock             71041e10 f   instrument.obj
 0001:00040e80       _dr_recurlock_mark_as_app  71041e80 f   instrument.obj
 0001:00040e80       _dr_mutex_mark_as_app      71041e80 f   instrument.obj
 0001:00040e80       _dr_rwlock_mark_as_app     71041e80 f   instrument.obj
 0001:00040ea0       _dr_mutex_trylock          71041ea0 f   instrument.obj
 0001:00040f20       _dr_mutex_unlock           71041f20 f   instrument.obj
 0001:00040f60       _dr_nonheap_alloc          71041f60 f   instrument.obj
 0001:00040f80       _dr_nonheap_free           71041f80 f   instrument.obj
 0001:00040fa0       _dr_nudge_client           71041fa0 f   instrument.obj
 0001:00040fd0       _dr_nudge_client_ex        71041fd0 f   instrument.obj
 0001:00041060       _dr_num_app_args           71042060 f   instrument.obj
 0001:00041070       _dr_open_file              71042070 f   instrument.obj
 0001:000410e0       _dr_page_size              710420e0 f   instrument.obj
 0001:000410f0       _dr_prepare_for_call       710420f0 f   instrument.obj
 0001:00041170       _dr_prepopulate_cache      71042170 f   instrument.obj
 0001:00041250       _dr_prepopulate_indirect_targets 71042250 f   instrument.obj
 0001:000412c0       _dr_print_instr            710422c0 f   instrument.obj
 0001:00041300       _dr_print_opnd             71042300 f   instrument.obj
 0001:00041350       _dr_printf                 71042350 f   instrument.obj
 0001:00041380       _dr_query_memory           71042380 f   instrument.obj
 0001:000413d0       _dr_query_memory_ex        710423d0 f   instrument.obj
 0001:00041400       _dr_raw_mem_alloc          71042400 f   instrument.obj
 0001:00041420       _dr_raw_mem_free           71042420 f   instrument.obj
 0001:000414a0       _dr_raw_tls_calloc         710424a0 f   instrument.obj
 0001:000414d0       _dr_raw_tls_cfree          710424d0 f   instrument.obj
 0001:000414f0       _dr_raw_tls_opnd           710424f0 f   instrument.obj
 0001:00041530       _dr_read_file              71042530 f   instrument.obj
 0001:00041540       _dr_read_saved_reg         71042540 f   instrument.obj
 0001:00041590       _dr_recurlock_create       71042590 f   instrument.obj
 0001:000415d0       _dr_recurlock_destroy      710425d0 f   instrument.obj
 0001:000415f0       _dr_recurlock_lock         710425f0 f   instrument.obj
 0001:00041600       _dr_recurlock_self_owns    71042600 f   instrument.obj
 0001:00041610       _dr_recurlock_trylock      71042610 f   instrument.obj
 0001:00041620       _dr_recurlock_unlock       71042620 f   instrument.obj
 0001:00041630       _dr_redirect_execution     71042630 f   instrument.obj
 0001:00041810       _dr_redirect_native_target 71042810 f   instrument.obj
 0001:00041820       _dr_reg_spill_slot_opnd    71042820 f   instrument.obj
 0001:00041890       _dr_register_bb_event      71042890 f   instrument.obj
 0001:000418b0       _dr_register_clean_call_insertion_event 710428b0 f   instrument.obj
 0001:000418d0       _dr_register_delete_event  710428d0 f   instrument.obj
 0001:000418f0       _dr_register_end_trace_event 710428f0 f   instrument.obj
 0001:00041910       _dr_register_exception_event 71042910 f   instrument.obj
 0001:00041930       _dr_register_exit_event    71042930 f   instrument.obj
 0001:00041950       _dr_register_filter_syscall_event 71042950 f   instrument.obj
 0001:00041970       _dr_register_kernel_xfer_event 71042970 f   instrument.obj
 0001:00041990       _dr_register_low_on_memory_event 71042990 f   instrument.obj
 0001:000419b0       _dr_register_module_load_event 710429b0 f   instrument.obj
 0001:000419d0       _dr_register_module_unload_event 710429d0 f   instrument.obj
 0001:000419f0       _dr_register_nudge_event   710429f0 f   instrument.obj
 0001:00041ae0       _dr_register_persist_patch 71042ae0 f   instrument.obj
 0001:00041b10       _dr_register_persist_ro    71042b10 f   instrument.obj
 0001:00041b60       _dr_register_persist_rw    71042b60 f   instrument.obj
 0001:00041bb0       _dr_register_persist_rx    71042bb0 f   instrument.obj
 0001:00041c00       _dr_register_post_syscall_event 71042c00 f   instrument.obj
 0001:00041c20       _dr_register_pre_syscall_event 71042c20 f   instrument.obj
 0001:00041c40       _dr_register_restore_state_event 71042c40 f   instrument.obj
 0001:00041c60       _dr_register_restore_state_ex_event 71042c60 f   instrument.obj
 0001:00041c80       _dr_register_thread_exit_event 71042c80 f   instrument.obj
 0001:00041ca0       _dr_register_thread_init_event 71042ca0 f   instrument.obj
 0001:00041cc0       _dr_register_trace_event   71042cc0 f   instrument.obj
 0001:00041ce0       _dr_rename_file            71042ce0 f   instrument.obj
 0001:00041cf0       _dr_replace_fragment       71042cf0 f   instrument.obj
 0001:00041e00       _dr_restore_app_stack      71042e00 f   instrument.obj
 0001:00041e60       _dr_restore_arith_flags    71042e60 f   instrument.obj
 0001:00041e90       _dr_restore_arith_flags_from_reg 71042e90 f   instrument.obj
 0001:00041f50       _dr_restore_arith_flags_from_xax 71042f50 f   instrument.obj
 0001:00041f70       _dr_restore_reg            71042f70 f   instrument.obj
 0001:00042060       _dr_resume_all_other_threads 71043060 f   instrument.obj
 0001:000420f0       _dr_retakeover_suspended_native_thread 710430f0 f   instrument.obj
 0001:00042450       _dr_rwlock_create          71043450 f   instrument.obj
 0001:000424b0       _dr_rwlock_destroy         710434b0 f   instrument.obj
 0001:000424d0       _dr_rwlock_read_lock       710434d0 f   instrument.obj
 0001:000424e0       _dr_rwlock_read_unlock     710434e0 f   instrument.obj
 0001:000424f0       _dr_rwlock_self_owns_write_lock 710434f0 f   instrument.obj
 0001:00042500       _dr_rwlock_write_lock      71043500 f   instrument.obj
 0001:00042510       _dr_rwlock_write_trylock   71043510 f   instrument.obj
 0001:00042520       _dr_rwlock_write_unlock    71043520 f   instrument.obj
 0001:00042530       _dr_safe_read              71043530 f   instrument.obj
 0001:00042540       _dr_safe_write             71043540 f   instrument.obj
 0001:00042550       _dr_save_arith_flags       71043550 f   instrument.obj
 0001:00042580       _dr_save_arith_flags_to_reg 71043580 f   instrument.obj
 0001:00042610       _dr_save_arith_flags_to_xax 71043610 f   instrument.obj
 0001:00042630       _dr_save_reg               71043630 f   instrument.obj
 0001:00042770       _dr_set_client_name        71043770 f   instrument.obj
 0001:000427a0       _dr_set_client_version_string 710437a0 f   instrument.obj
 0001:000427c0       _dr_set_mcontext           710437c0 f   instrument.obj
 0001:00042860       _dr_set_process_exit_behavior 71043860 f   instrument.obj
 0001:000428d0       _dr_set_random_seed        710438d0 f   instrument.obj
 0001:000428e0       _dr_set_tls_field          710438e0 f   instrument.obj
 0001:00042900       _dr_sleep                  71043900 f   instrument.obj
 0001:00042980       _dr_standalone_exit        71043980 f   instrument.obj
 0001:00042990       _dr_standalone_init        71043990 f   instrument.obj
 0001:000429a0       _dr_suspend_all_other_threads 710439a0 f   instrument.obj
 0001:000429c0       _dr_suspend_all_other_threads_ex 710439c0 f   instrument.obj
 0001:00042af0       _dr_swap_to_clean_stack    71043af0 f   instrument.obj
 0001:00042ba0       _dr_switch_to_app_state    71043ba0 f   instrument.obj
 0001:00042bc0       _dr_switch_to_app_state_ex 71043bc0 f   instrument.obj
 0001:00042be0       _dr_switch_to_dr_state     71043be0 f   instrument.obj
 0001:00042c00       _dr_switch_to_dr_state_ex  71043c00 f   instrument.obj
 0001:00042c20       _dr_thread_alloc           71043c20 f   instrument.obj
 0001:00042c30       _dr_thread_exit_hook_exists 71043c30 f   instrument.obj
 0001:00042c40       _dr_thread_free            71043c40 f   instrument.obj
 0001:00042c50       _dr_thread_yield           71043c50 f   instrument.obj
 0001:00042cc0       _dr_trace_exists_at        71043cc0 f   instrument.obj
 0001:00042d10       _dr_trace_head_at          71043d10 f   instrument.obj
 0001:00042d70       _dr_trace_hook_exists      71043d70 f   instrument.obj
 0001:00042d80       _dr_track_where_am_i       71043d80 f   instrument.obj
 0001:00042d90       _dr_try_setup              71043d90 f   instrument.obj
 0001:00042dc0       _dr_try_stop               71043dc0 f   instrument.obj
 0001:00042df0       _dr_unlink_flush_region    71043df0 f   instrument.obj
 0001:00042e50       _dr_unload_aux_library     71043e50 f   instrument.obj
 0001:00042f10       _dr_unload_aux_x64_library 71043f10 f   instrument.obj
 0001:00042f40       _dr_unmap_executable_file  71043f40 f   instrument.obj
 0001:00042f60       _dr_unmap_file             71043f60 f   instrument.obj
 0001:00042ff0       _dr_unregister_bb_event    71043ff0 f   instrument.obj
 0001:000430b0       _dr_unregister_clean_call_insertion_event 710440b0 f   instrument.obj
 0001:00043170       _dr_unregister_delete_event 71044170 f   instrument.obj
 0001:00043230       _dr_unregister_end_trace_event 71044230 f   instrument.obj
 0001:000432f0       _dr_unregister_exception_event 710442f0 f   instrument.obj
 0001:000433b0       _dr_unregister_exit_event  710443b0 f   instrument.obj
 0001:00043470       _dr_unregister_filter_syscall_event 71044470 f   instrument.obj
 0001:00043530       _dr_unregister_kernel_xfer_event 71044530 f   instrument.obj
 0001:000435f0       _dr_unregister_low_on_memory_event 710445f0 f   instrument.obj
 0001:000436b0       _dr_unregister_module_load_event 710446b0 f   instrument.obj
 0001:00043770       _dr_unregister_module_unload_event 71044770 f   instrument.obj
 0001:00043830       _dr_unregister_nudge_event 71044830 f   instrument.obj
 0001:000438e0       _dr_unregister_persist_patch 710448e0 f   instrument.obj
 0001:000439a0       _dr_unregister_persist_ro  710449a0 f   instrument.obj
 0001:00043a20       _dr_unregister_persist_rw  71044a20 f   instrument.obj
 0001:00043aa0       _dr_unregister_persist_rx  71044aa0 f   instrument.obj
 0001:00043b20       _dr_unregister_post_syscall_event 71044b20 f   instrument.obj
 0001:00043be0       _dr_unregister_pre_syscall_event 71044be0 f   instrument.obj
 0001:00043ca0       _dr_unregister_restore_state_event 71044ca0 f   instrument.obj
 0001:00043d60       _dr_unregister_restore_state_ex_event 71044d60 f   instrument.obj
 0001:00043e20       _dr_unregister_thread_exit_event 71044e20 f   instrument.obj
 0001:00043ee0       _dr_unregister_thread_init_event 71044ee0 f   instrument.obj
 0001:00043fa0       _dr_unregister_trace_event 71044fa0 f   instrument.obj
 0001:00044060       _dr_using_all_private_caches 71045060 f   instrument.obj
 0001:00044080       _dr_using_app_state        71045080 f   instrument.obj
 0001:00044090       _dr_using_console          71045090 f   instrument.obj
 0001:00044120       _dr_vfprintf               71045120 f   instrument.obj
 0001:00044180       _dr_vsnprintf              71045180 f   instrument.obj
 0001:00044190       _dr_vsnwprintf             71045190 f   instrument.obj
 0001:000441a0       _dr_where_am_i             710451a0 f   instrument.obj
 0001:000441e0       _dr_write_file             710451e0 f   instrument.obj
 0001:00044240       _dr_write_saved_reg        71045240 f   instrument.obj
 0001:00044360       _dr_xl8_hook_exists        71045360 f   instrument.obj
 0001:000449e0       _get_client_path_from_addr 710459e0 f   instrument.obj
 0001:00044a30       _get_num_client_threads    71045a30 f   instrument.obj
 0001:00044a40       _hide_tag_from_client      71045a40 f   instrument.obj
 0001:00044b00       _instrlist_meta_fault_append 71045b00 f   instrument.obj
 0001:00044b20       _instrlist_meta_fault_postinsert 71045b20 f   instrument.obj
 0001:00044b40       _instrlist_meta_fault_preinsert 71045b40 f   instrument.obj
 0001:00044b60       _instrument_basic_block    71045b60 f   instrument.obj
 0001:00044d00       _instrument_client_lib_loaded 71045d00 f   instrument.obj
 0001:00044d20       _instrument_client_lib_unloaded 71045d20 f   instrument.obj
 0001:00044d40       _instrument_client_thread_init 71045d40 f   instrument.obj
 0001:00044dc0       _instrument_end_trace      71045dc0 f   instrument.obj
 0001:00044ed0       _instrument_exception      71045ed0 f   instrument.obj
 0001:00044ff0       _instrument_exit           71045ff0 f   instrument.obj
 0001:00045100       _instrument_exit_event     71046100 f   instrument.obj
 0001:000451f0       _instrument_filter_syscall 710461f0 f   instrument.obj
 0001:00045300       _instrument_fragment_deleted 71046300 f   instrument.obj
 0001:00045410       _instrument_init           71046410 f   instrument.obj
 0001:000457d0       _instrument_invoke_another_syscall 710467d0 f   instrument.obj
 0001:000457f0       _instrument_kernel_xfer    710467f0 f   instrument.obj
 0001:000459a0       _instrument_load_client_libs 710469a0 f   instrument.obj
 0001:00045c40       _instrument_low_on_memory  71046c40 f   instrument.obj
 0001:00045d10       _instrument_module_load    71046d10 f   instrument.obj
 0001:00045e30       _instrument_module_load_trigger 71046e30 f   instrument.obj
 0001:00045ec0       _instrument_module_unload  71046ec0 f   instrument.obj
 0001:00045fe0       _instrument_nudge          71046fe0 f   instrument.obj
 0001:00046170       _instrument_persist_patch  71047170 f   instrument.obj
 0001:000462c0       _instrument_persist_ro     710472c0 f   instrument.obj
 0001:00046480       _instrument_persist_ro_size 71047480 f   instrument.obj
 0001:000465f0       _instrument_persist_rw     710475f0 f   instrument.obj
 0001:00046740       _instrument_persist_rw_size 71047740 f   instrument.obj
 0001:00046880       _instrument_persist_rx     71047880 f   instrument.obj
 0001:000469d0       _instrument_persist_rx_size 710479d0 f   instrument.obj
 0001:00046b10       _instrument_post_syscall   71047b10 f   instrument.obj
 0001:00046c20       _instrument_pre_syscall    71047c20 f   instrument.obj
 0001:00046d80       _instrument_restore_nonfcache_state 71047d80 f   instrument.obj
 0001:00046e10       _instrument_restore_nonfcache_state_prealloc 71047e10 f   instrument.obj
 0001:00046eb0       _instrument_restore_state  71047eb0 f   instrument.obj
 0001:000470f0       _instrument_resurrect_ro   710480f0 f   instrument.obj
 0001:00047290       _instrument_resurrect_rw   71048290 f   instrument.obj
 0001:000473b0       _instrument_resurrect_rx   710483b0 f   instrument.obj
 0001:000474d0       _instrument_thread_exit_event 710484d0 f   instrument.obj
 0001:000475f0       _instrument_thread_init    710485f0 f   instrument.obj
 0001:00047720       _instrument_trace          71048720 f   instrument.obj
 0001:00047850       _is_in_client_lib          71048850 f   instrument.obj
 0001:00047b10       _reg_spill_slot_opnd       71048b10 f   instrument.obj
 0001:00047c40       _set_client_error_code     71048c40 f   instrument.obj
 0001:00047c70       _wait_for_outstanding_nudges 71048c70 f   instrument.obj
 0001:00047d70       _copy_module_area_to_module_data 71048d70 f   module_api.obj
 0001:00047ef0       _dr_copy_module_data       71048ef0 f   module_api.obj
 0001:00047f40       _dr_free_module_data       71048f40 f   module_api.obj
 0001:00047f90       _dr_get_main_module        71048f90 f   module_api.obj
 0001:00047fa0       _dr_get_proc_address       71048fa0 f   module_api.obj
 0001:00047fb0       _dr_get_proc_address_ex    71048fb0 f   module_api.obj
 0001:00047ff0       _dr_lookup_module          71048ff0 f   module_api.obj
 0001:00048060       _dr_lookup_module_by_name  71049060 f   module_api.obj
 0001:00048130       _dr_lookup_module_section  71049130 f   module_api.obj
 0001:00048140       _dr_module_contains_addr   71049140 f   module_api.obj
 0001:00048160       _ksynch_var_initialized    71049160 f   os.obj
 0001:00048160       _dr_module_iterator_hasnext 71049160 f   module_api.obj
 0001:00048170       _dr_module_iterator_next   71049170 f   module_api.obj
 0001:00048190       _dr_module_iterator_start  71049190 f   module_api.obj
 0001:00048260       _dr_module_iterator_stop   71049260 f   module_api.obj
 0001:000482f0       _dr_module_preferred_name  710492f0 f   module_api.obj
 0001:00048320       _dr_module_set_should_instrument 71049320 f   module_api.obj
 0001:00048370       _dr_module_should_instrument 71049370 f   module_api.obj
 0001:000483a0       _record_translation_info   710493a0 f   translate.obj
 0001:00048750       _recreate_app_pc           71049750 f   translate.obj
 0001:000487b0       _recreate_app_state        710497b0 f   translate.obj
 0001:000497d0       _translation_info_free     7104a7d0 f   translate.obj
 0001:000497f0       _annotation_exit           7104a7f0 f   annotations.obj
 0001:00049890       _annotation_init           7104a890 f   annotations.obj
 0001:00049950       _dr_annotation_pass_pc     7104a950 f   annotations.obj
 0001:000499c0       _dr_annotation_register_call 7104a9c0 f   annotations.obj
 0001:00049bb0       _dr_annotation_register_return 7104abb0 f   annotations.obj
 0001:00049c80       _dr_annotation_register_valgrind 7104ac80 f   annotations.obj
 0001:00049d30       _dr_annotation_unregister_call 7104ad30 f   annotations.obj
 0001:00049de0       _dr_annotation_unregister_return 7104ade0 f   annotations.obj
 0001:00049e60       _dr_annotation_unregister_valgrind 7104ae60 f   annotations.obj
 0001:0004a090       _instrument_annotation     7104b090 f   annotations.obj
 0001:0004a430       _instrument_valgrind_annotation 7104b430 f   annotations.obj
 0001:0004a560       _redirect_ignore_arg0@0    7104b560 f   drwinapi.obj
 0001:0004abe0       _jitopt_add_dgc_bb         7104bbe0 f   jit_opt.obj
 0001:0004ac00       _jitopt_clear_span         7104bc00 f   jit_opt.obj
 0001:0004ac50       _jitopt_exit               7104bc50 f   jit_opt.obj
 0001:0004ac90       _jitopt_init               7104bc90 f   jit_opt.obj
 0001:0004ad20       _after_do_syscall_addr     7104bd20 f   arch.obj
 0001:0004ad90       _after_do_syscall_code_ex  7104bd90 f   arch.obj
 0001:0004ad90       _after_do_syscall_code     7104bd90 f   arch.obj
 0001:0004ade0       _after_shared_syscall_addr 7104bde0 f   arch.obj
 0001:0004ae50       _after_shared_syscall_code_ex 7104be50 f   arch.obj
 0001:0004ae50       _after_shared_syscall_code 7104be50 f   arch.obj
 0001:0004b170       _arch_patch_syscall        7104c170 f   arch.obj
 0001:0004b210       _arch_profile_exit         7104c210 f   arch.obj
 0001:0004b240       _arch_thread_exit          7104c240 f   arch.obj
 0001:0004b280       _arch_thread_init          7104c280 f   arch.obj
 0001:0004b9a0       _arch_thread_profile_exit  7104c9a0 f   arch.obj
 0001:0004ba20       _check_syscall_method      7104ca20 f   arch.obj
 0001:0004bc10       _copy_mcontext             7104cc10 f   arch.obj
 0001:0004bc30       _d_r_arch_exit             7104cc30 f   arch.obj
 0001:0004bcc0       _d_r_arch_init             7104ccc0 f   arch.obj
 0001:0004bd00       _does_syscall_ret_to_callsite 7104cd00 f   arch.obj
 0001:0004bd30       _dr_mcontext_as_priv_mcontext 7104cd30 f   arch.obj
 0001:0004bd40       _dr_mcontext_init          7104cd40 f   arch.obj
 0001:0004bd60       _dr_mcontext_to_priv_mcontext 7104cd60 f   arch.obj
 0001:0004c030       _dump_mcontext             7104d030 f   arch.obj
 0001:0004c3d0       _fcache_return_coarse_routine 7104d3d0 f   arch.obj
 0001:0004c3f0       _fcache_return_routine     7104d3f0 f   arch.obj
 0001:0004c3f0       _fcache_return_routine_ex  7104d3f0 f   arch.obj
 0001:0004c430       _fcache_return_shared_routine 7104d430 f   arch.obj
 0001:0004c440       _get_alternate_ibl_routine 7104d440 f   arch.obj
 0001:0004c4d0       _get_app_sysenter_addr     7104d4d0 f   arch.obj
 0001:0004c4e0       _get_clean_call_restore    7104d4e0 f   arch.obj
 0001:0004c560       _get_clean_call_save       7104d560 f   arch.obj
 0001:0004c5e0       _get_cleanup_and_terminate_global_do_syscall_entry 7104d5e0 f   arch.obj
 0001:0004c650       _get_client_ibl_xfer_entry 7104d650 f   arch.obj
 0001:0004c6a0       _get_do_callback_return_entry 7104d6a0 f   arch.obj
 0001:0004c6f0       _get_do_syscall_entry      7104d6f0 f   arch.obj
 0001:0004c780       _get_fcache_enter_gonative_routine 7104d780 f   arch.obj
 0001:0004c780       _get_fcache_enter_private_routine 7104d780 f   arch.obj
 0001:0004c7c0       _get_fcache_enter_indirect_routine 7104d7c0 f   arch.obj
 0001:0004c810       _get_fcache_enter_shared_routine 7104d810 f   arch.obj
 0001:0004c820       _get_fcache_target         7104d820 f   arch.obj
 0001:0004c830       _get_global_do_syscall_entry 7104d830 f   arch.obj
 0001:0004c880       _get_ibl_branch_type       7104d880 f   arch.obj
 0001:0004c8b0       _get_ibl_routine           7104d8b0 f   arch.obj
 0001:0004c8c0       _get_ibl_routine_code      7104d8c0 f   arch.obj
 0001:0004c8c0       _get_ibl_routine_code_ex   7104d8c0 f   arch.obj
 0001:0004c9f0       _get_ibl_routine_ex        7104d9f0 f   arch.obj
 0001:0004ca50       _get_ibl_routine_name      7104da50 f   arch.obj
 0001:0004cae0       _get_ibl_routine_type      7104dae0 f   arch.obj
 0001:0004caf0       _get_ibl_routine_type_ex   7104daf0 f   arch.obj
 0001:0004cc10       _get_linked_entry          7104dc10 f   arch.obj
 0001:0004ccc0       _get_priv_mcontext_from_dstack 7104dcc0 f   arch.obj
 0001:0004cce0       _get_reset_exit_stub       7104dce0 f   arch.obj
 0001:0004cd30       _get_source_fragment_type  7104dd30 f   arch.obj
 0001:0004cd60       _get_syscall_method        7104dd60 f   arch.obj
 0001:0004cd70       _get_target_delete_entry_pc 7104dd70 f   arch.obj
 0001:0004cdd0       _get_unlinked_entry        7104ddd0 f   arch.obj
 0001:0004ce80       _in_generated_routine      7104de80 f   arch.obj
 0001:0004cf00       _in_indirect_branch_lookup_code 7104df00 f   arch.obj
 0001:0004cf60       _is_after_syscall_address  7104df60 f   arch.obj
 0001:0004d020       _is_after_syscall_that_rets 7104e020 f   arch.obj
 0001:0004d100       _is_indirect_branch_lookup_routine 7104e100 f   arch.obj
 0001:0004d130       _is_shared_syscall_routine 7104e130 f   arch.obj
 0001:0004d1b0       _priv_mcontext_to_dr_mcontext 7104e1b0 f   arch.obj
 0001:0004d3b0       _protect_generated_code    7104e3b0 f   arch.obj
 0001:0004d420       _reg_spill_tls_offs        7104e420 f   arch.obj
 0001:0004d470       _set_fcache_target         7104e470 f   arch.obj
 0001:0004d490       _set_syscall_method        7104e490 f   arch.obj
 0001:0004d890       _shared_syscall_routine    7104e890 f   arch.obj
 0001:0004d890       _shared_syscall_routine_ex 7104e890 f   arch.obj
 0001:0004d8f0       _trace_head_return_coarse_routine 7104e8f0 f   arch.obj
 0001:0004d910       _unlinked_shared_syscall_routine_ex 7104e910 f   arch.obj
 0001:0004d910       _unlinked_shared_syscall_routine 7104e910 f   arch.obj
 0001:0004d970       _update_generated_hashtable_access 7104e970 f   arch.obj
 0001:0004d980       _add_patch_entry_internal  7104e980 f   emit_utils_shared.obj
 0001:0004da00       _add_patch_marker          7104ea00 f   emit_utils_shared.obj
 0001:0004da90       _append_fcache_return_common 7104ea90 f   emit_utils_shared.obj
 0001:0004dd20       _append_ibl_found          7104ed20 f   emit_utils_shared.obj
 0001:0004df80       _client_clean_call_is_thread_private 7104ef80 f   emit_utils_shared.obj
 0001:0004dfb0       _coarse_cti_is_intra_fragment 7104efb0 f   emit_utils_shared.obj
 0001:0004e0d0       _coarse_exit_prefix_size   7104f0d0 f   emit_utils_shared.obj
 0001:0004e120       _coarse_indirect_stub_jmp_target 7104f120 f   emit_utils_shared.obj
 0001:0004e140       _coarse_is_indirect_stub   7104f140 f   emit_utils_shared.obj
 0001:0004e160       _coarse_is_trace_head      7104f160 f   emit_utils_shared.obj
 0001:0004e1a0       _create_syscall_instr      7104f1a0 f   emit_utils_shared.obj
 0001:0004e3f0       _emit_clean_call_restore   7104f3f0 f   emit_utils_shared.obj
 0001:0004e600       _emit_clean_call_save      7104f600 f   emit_utils_shared.obj
 0001:0004e910       _emit_client_ibl_xfer      7104f910 f   emit_utils_shared.obj
 0001:0004e950       _emit_coarse_exit_prefix   7104f950 f   emit_utils_shared.obj
 0001:0004ec30       _emit_detach_callback_code 7104fc30 f   emit_utils_shared.obj
 0001:0004f4c0       _emit_detach_callback_final_jmp 710504c0 f   emit_utils_shared.obj
 0001:0004f6a0       _emit_do_callback_return   710506a0 f   emit_utils_shared.obj
 0001:0004f7e0       _emit_do_syscall           710507e0 f   emit_utils_shared.obj
 0001:0004f920       _emit_far_ibl              71050920 f   emit_utils_shared.obj
 0001:0004f9a0       _emit_fcache_enter         710509a0 f   emit_utils_shared.obj
 0001:0004fa50       _emit_fcache_enter_indirect 71050a50 f   emit_utils_shared.obj
 0001:0004fb40       _emit_fcache_enter_shared  71050b40 f   emit_utils_shared.obj
 0001:0004fc50       _emit_fcache_return        71050c50 f   emit_utils_shared.obj
 0001:0004fcc0       _emit_fcache_return_coarse 71050cc0 f   emit_utils_shared.obj
 0001:0004fd40       _emit_fcache_return_shared 71050d40 f   emit_utils_shared.obj
 0001:0004fdb0       _emit_patch_syscall        71050db0 f   emit_utils_shared.obj
 0001:0004ff40       _emit_shared_syscall       71050f40 f   emit_utils_shared.obj
 0001:00050b40       _emit_shared_syscall_dispatch 71051b40 f   emit_utils_shared.obj
 0001:00050e30       _emit_trace_head_return_coarse 71051e30 f   emit_utils_shared.obj
 0001:00050eb0       _emit_unlinked_shared_syscall_dispatch 71051eb0 f   emit_utils_shared.obj
 0001:00050ed0       _encode_with_patch_list    71051ed0 f   emit_utils_shared.obj
 0001:00051120       _entrance_stub_from_cti    71052120 f   emit_utils_shared.obj
 0001:00051140       _entrance_stub_jmp_target  71052140 f   emit_utils_shared.obj
 0001:00051160       _entrance_stub_linked      71052160 f   emit_utils_shared.obj
 0001:000511a0       _entrance_stub_target_tag  710521a0 f   emit_utils_shared.obj
 0001:000511f0       _exit_stub_size            710521f0 f   emit_utils_shared.obj
 0001:00051310       _extend_trace_pad_bytes    71052310 f   emit_utils_shared.obj
 0001:000513d0       _fragment_prefix_size      710523d0 f   emit_utils_shared.obj
 0001:00051460       _get_direct_exit_target    71052460 f   emit_utils_shared.obj
 0001:000514c0       _indirect_linkstub_target  710524c0 f   emit_utils_shared.obj
 0001:000515e0       _init_patch_list           710525e0 f   emit_utils_shared.obj
 0001:00051600       _insert_exit_stub          71052600 f   emit_utils_shared.obj
 0001:00051780       _insert_return_to_native   71052780 f   emit_utils_shared.obj
 0001:000518f0       _insert_shared_get_dcontext 710528f0 f   emit_utils_shared.obj
 0001:00051a20       _insert_shared_restore_dcontext_reg 71052a20 f   emit_utils_shared.obj
 0001:00051a40       _is_exit_cti_patchable     71052a40 f   emit_utils_shared.obj
 0001:00051af0       _is_exit_cti_stub_patchable 71052af0 f   emit_utils_shared.obj
 0001:00051bc0       _link_direct_exit          71052bc0 f   emit_utils_shared.obj
 0001:00051d30       _link_entrance_stub        71052d30 f   emit_utils_shared.obj
 0001:00051d40       _link_indirect_exit        71052d40 f   emit_utils_shared.obj
 0001:00051ef0       _link_shared_syscall       71052ef0 f   emit_utils_shared.obj
 0001:00051f40       _link_special_ibl_xfer     71052f40 f   emit_utils_shared.obj
 0001:00051f60       _linkstub_cbr_disambiguate 71052f60 f   emit_utils_shared.obj
 0001:00052030       _linkstub_unlink_entry_offset 71053030 f   emit_utils_shared.obj
 0001:000520c0       _pad_for_exitstub_alignment 710530c0 f   emit_utils_shared.obj
 0001:000522f0       _patch_coarse_exit_prefix  710532f0 f   emit_utils_shared.obj
 0001:00052390       _preinsert_swap_peb        71053390 f   emit_utils_shared.obj
 0001:00052c40       _remove_nops_from_ilist    71053c40 f   emit_utils_shared.obj
 0001:00052c90       _special_ibl_xfer_is_thread_private 71053c90 f   emit_utils_shared.obj
 0001:00052cb0       _special_ibl_xfer_tgt      71053cb0 f   emit_utils_shared.obj
 0001:00052d10       _unlink_direct_exit        71053d10 f   emit_utils_shared.obj
 0001:00052e20       _unlink_entrance_stub      71053e20 f   emit_utils_shared.obj
 0001:00052e60       _unlink_shared_syscall     71053e60 f   emit_utils_shared.obj
 0001:00052eb0       _unlink_special_ibl_xfer   71053eb0 f   emit_utils_shared.obj
 0001:00052ed0       _update_indirect_branch_lookup 71053ed0 f   emit_utils_shared.obj
 0001:00052ff0       _update_indirect_exit_stub 71053ff0 f   emit_utils_shared.obj
 0001:000531a0       _append_call_enter_dr_hook 710541a0 f   emit_utils.obj
 0001:00053820       _append_call_exit_dr_hook  71054820 f   emit_utils.obj
 0001:00053be0       _append_fcache_enter_prologue 71054be0 f   emit_utils.obj
 0001:00053c80       _append_ibl_head           71054c80 f   emit_utils.obj
 0001:00054380       _append_restore_gpr        71055380 f   emit_utils.obj
 0001:00054510       _append_restore_simd_reg   71055510 f   emit_utils.obj
 0001:000548f0       _append_restore_xflags     710558f0 f   emit_utils.obj
 0001:000549f0       _append_save_clear_xflags  710559f0 f   emit_utils.obj
 0001:00054b90       _append_save_gpr           71055b90 f   emit_utils.obj
 0001:00054de0       _append_save_simd_reg      71055de0 f   emit_utils.obj
 0001:000551c0       _cbr_fallthrough_exit_cti  710561c0 f   emit_utils.obj
 0001:000551e0       _coarse_is_entrance_stub   710561e0 f   emit_utils.obj
 0001:00055220       _emit_indirect_branch_lookup 71056220 f   emit_utils.obj
 0001:00056070       _emit_inline_ibl_stub      71057070 f   emit_utils.obj
 0001:000564f0       _entrance_stub_jmp         710574f0 f   emit_utils.obj
 0001:00056500       _exit_cti_disp_pc          71057500 f   emit_utils.obj
 0001:00056560       _fill_with_nops            71057560 f   emit_utils.obj
 0001:00056670       _fragment_ibt_prefix_size  71057670 f   emit_utils.obj
 0001:00056890       _indirect_linkstub_stub_pc 71057890 f   emit_utils.obj
 0001:00056980       _insert_exit_stub_other_flags 71057980 f   emit_utils.obj
 0001:00056bf0       _insert_fragment_prefix    71057bf0 f   emit_utils.obj
 0001:00057070       _insert_relative_jump      71058070 f   emit_utils.obj
 0001:000570a0       _insert_relative_target    710580a0 f   emit_utils.obj
 0001:000570d0       _insert_restore_eflags     710580d0 f   emit_utils.obj
 0001:00057380       _insert_save_eflags        71058380 f   emit_utils.obj
 0001:00057470       _is_jmp_rel32              71058470 f   emit_utils.obj
 0001:000574a0       _link_indirect_exit_arch   710584a0 f   emit_utils.obj
 0001:00057600       _nop_pad_ilist             71058600 f   emit_utils.obj
 0001:000577f0       _patch_branch              710587f0 f   emit_utils.obj
 0001:00057850       _relink_special_ibl_xfer   71058850 f   emit_utils.obj
 0001:000578c0       _unlink_indirect_exit      710588c0 f   emit_utils.obj
 0001:00057c70       _get_register_name         71058c70 f   opnd_shared.obj
 0001:00057c80       _opnd_add_flags            71058c80 f   opnd_shared.obj
 0001:00057cb0       _opnd_compute_address      71058cb0 f   opnd_shared.obj
 0001:00057d70       _opnd_compute_address_helper 71058d70 f   opnd_shared.obj
 0001:00057de0       _opnd_compute_address_priv 71058de0 f   opnd_shared.obj
 0001:00057e90       _opnd_create_abs_addr      71058e90 f   opnd_shared.obj
 0001:00057ed0       _opnd_create_base_disp     71058ed0 f   opnd_shared.obj
 0001:00057f50       _opnd_create_base_disp_ex  71058f50 f   opnd_shared.obj
 0001:00057fa0       _opnd_create_dcontext_field 71058fa0 f   opnd_shared.obj
 0001:00058060       _opnd_create_dcontext_field_sz 71059060 f   opnd_shared.obj
 0001:00058120       _opnd_create_dcontext_field_via_reg 71059120 f   opnd_shared.obj
 0001:000581f0       _opnd_create_dcontext_field_via_reg_sz 710591f0 f   opnd_shared.obj
 0001:00058230       _opnd_create_far_abs_addr  71059230 f   opnd_shared.obj
 0001:000582a0       _opnd_create_far_base_disp 710592a0 f   opnd_shared.obj
 0001:00058330       _opnd_create_far_base_disp_ex 71059330 f   opnd_shared.obj
 0001:000583b0       _opnd_create_far_instr     710593b0 f   opnd_shared.obj
 0001:000583d0       _opnd_create_far_pc        710593d0 f   opnd_shared.obj
 0001:000583f0       _opnd_create_immed_float   710593f0 f   opnd_shared.obj
 0001:00058410       _opnd_create_immed_float_for_opcode 71059410 f   opnd_shared.obj
 0001:00058440       _opnd_create_immed_uint    71059440 f   opnd_shared.obj
 0001:00058440       _opnd_create_immed_int     71059440 f   opnd_shared.obj
 0001:00058460       _opnd_create_immed_int64   71059460 f   opnd_shared.obj
 0001:00058490       _opnd_create_instr         71059490 f   opnd_shared.obj
 0001:000584c0       _opnd_create_instr_ex      710594c0 f   opnd_shared.obj
 0001:000584e0       _opnd_create_mem_instr     710594e0 f   opnd_shared.obj
 0001:00058500       _opnd_create_tls_slot      71059500 f   opnd_shared.obj
 0001:00058530       _opnd_defines_use          71059530 f   opnd_shared.obj
 0001:000586a0       _opnd_get_addr             710596a0 f   opnd_shared.obj
 0001:000586e0       _opnd_get_base             710596e0 f   opnd_shared.obj
 0001:000586f0       _opnd_get_disp             710596f0 f   opnd_shared.obj
 0001:000586f0       _opnd_get_immed_int        710596f0 f   opnd_shared.obj
 0001:000586f0       _canonicalize_pc_target    710596f0 f   decode.obj
 0001:000586f0       _dr_app_pc_as_load_target  710596f0 f   decode.obj
 0001:000586f0       _dr_app_pc_as_jump_target  710596f0 f   decode.obj
 0001:000586f0       _opnd_get_instr            710596f0 f   opnd_shared.obj
 0001:00058700       _opnd_get_immed_float      71059700 f   opnd_shared.obj
 0001:00058710       _opnd_get_immed_int64      71059710 f   opnd_shared.obj
 0001:00058720       _opnd_get_index            71059720 f   opnd_shared.obj
 0001:00058750       _opnd_get_mem_instr_disp   71059750 f   opnd_shared.obj
 0001:00058750       _opnd_get_shift            71059750 f   opnd_shared.obj
 0001:00058760       _opnd_get_pc               71059760 f   opnd_shared.obj
 0001:00058780       _opnd_get_reg              71059780 f   opnd_shared.obj
 0001:00058790       _opnd_get_reg_used         71059790 f   opnd_shared.obj
 0001:00058840       _opnd_get_scale            71059840 f   opnd_shared.obj
 0001:00058850       _opnd_get_segment          71059850 f   opnd_shared.obj
 0001:00058860       _opnd_get_segment_selector 71059860 f   opnd_shared.obj
 0001:00058880       _opnd_get_size             71059880 f   opnd_shared.obj
 0001:000588f0       _opnd_is_abs_base_disp     710598f0 f   opnd_shared.obj
 0001:000588f0       _opnd_is_abs_addr          710598f0 f   opnd_shared.obj
 0001:00058930       _opnd_is_base_disp         71059930 f   opnd_shared.obj
 0001:00058940       _opnd_is_disp_encode_zero  71059940 f   opnd_shared.obj
 0001:00058960       _opnd_is_disp_force_full   71059960 f   opnd_shared.obj
 0001:00058980       _opnd_is_disp_short_addr   71059980 f   opnd_shared.obj
 0001:000589a0       _opnd_is_far_abs_addr      710599a0 f   opnd_shared.obj
 0001:000589e0       _opnd_is_far_instr         710599e0 f   opnd_shared.obj
 0001:000589f0       _opnd_is_far_pc            710599f0 f   opnd_shared.obj
 0001:00058a00       _opnd_is_immed_float       71059a00 f   opnd_shared.obj
 0001:00058a10       _opnd_is_immed_int         71059a10 f   opnd_shared.obj
 0001:00058a20       _opnd_is_mem_instr         71059a20 f   opnd_shared.obj
 0001:00058a30       _opnd_is_memory_reference  71059a30 f   opnd_shared.obj
 0001:00058a50       _opnd_is_near_abs_addr     71059a50 f   opnd_shared.obj
 0001:00058a90       _opnd_is_near_instr        71059a90 f   opnd_shared.obj
 0001:00058aa0       _opnd_is_near_memory_reference 71059aa0 f   opnd_shared.obj
 0001:00058ad0       _opnd_is_near_pc           71059ad0 f   opnd_shared.obj
 0001:00058ae0       _opnd_is_null              71059ae0 f   opnd_shared.obj
 0001:00058af0       _opnd_is_reg               71059af0 f   opnd_shared.obj
 0001:00058b00       _opnd_is_reg_32bit         71059b00 f   opnd_shared.obj
 0001:00058b00       _opnd_is_reg_pointer_sized 71059b00 f   opnd_shared.obj
 0001:00058b20       _opnd_is_reg_64bit         71059b20 f   opnd_shared.obj
 0001:00058b40       _opnd_is_reg_partial       71059b40 f   opnd_shared.obj
 0001:00058b90       _opnd_is_vsib              71059b90 f   opnd_shared.obj
 0001:00058c20       _opnd_num_regs_used        71059c20 f   opnd_shared.obj
 0001:00058ca0       _opnd_replace_reg          71059ca0 f   opnd_shared.obj
 0001:00058e90       _opnd_replace_reg_resize   71059e90 f   opnd_shared.obj
 0001:00059120       _opnd_same                 7105a120 f   opnd_shared.obj
 0001:00059310       _opnd_same_address         7105a310 f   opnd_shared.obj
 0001:000593b0       _opnd_set_disp             7105a3b0 f   opnd_shared.obj
 0001:000593d0       _opnd_set_disp_ex          7105a3d0 f   opnd_shared.obj
 0001:00059410       _opnd_set_flags            7105a410 f   opnd_shared.obj
 0001:00059420       _opnd_set_size             7105a420 f   opnd_shared.obj
 0001:00059460       _opnd_share_reg            7105a460 f   opnd_shared.obj
 0001:00059550       _opnd_shrink_to_16_bits    7105a550 f   opnd_shared.obj
 0001:00059670       _opnd_size_from_bytes      7105a670 f   opnd_shared.obj
 0001:00059880       _opnd_size_in_bits         7105a880 f   opnd_shared.obj
 0001:00059940       _opnd_size_in_bytes        7105a940 f   opnd_shared.obj
 0001:00059ba0       _opnd_uses_reg             7105aba0 f   opnd_shared.obj
 0001:00059c60       _reg_32_to_16              7105ac60 f   opnd_shared.obj
 0001:00059c70       _reg_32_to_8               7105ac70 f   opnd_shared.obj
 0001:00059c90       _reg_32_to_opsz            7105ac90 f   opnd_shared.obj
 0001:00059cd0       _reg_get_bits              7105acd0 f   opnd_shared.obj
 0001:00059e00       _reg_get_size              7105ae00 f   opnd_shared.obj
 0001:00059ec0       _reg_get_value             7105aec0 f   opnd_shared.obj
 0001:00059ee0       _reg_get_value_ex          7105aee0 f   opnd_shared.obj
 0001:0005a040       _reg_get_value_priv        7105b040 f   opnd_shared.obj
 0001:0005a0f0       _reg_is_32bit              7105b0f0 f   opnd_shared.obj
 0001:0005a0f0       _reg_is_pointer_sized      7105b0f0 f   opnd_shared.obj
 0001:0005a110       _reg_is_64bit              7105b110 f   opnd_shared.obj
 0001:0005a150       _reg_overlap               7105b150 f   opnd_shared.obj
 0001:0005a1a0       _reg_resize_to_opsz        7105b1a0 f   opnd_shared.obj
 0001:0005a320       _reg_set_value             7105b320 f   opnd_shared.obj
 0001:0005a350       _reg_set_value_ex          7105b350 f   opnd_shared.obj
 0001:0005a440       _reg_set_value_priv        7105b440 f   opnd_shared.obj
 0001:0005a460       _reg_to_pointer_sized      7105b460 f   opnd_shared.obj
 0001:0005a480       _opnd_create_sized_tls_slot 7105b480 f   opnd.obj
 0001:0005a4c0       _opnd_get_reg_dcontext_offs 7105b4c0 f   opnd.obj
 0001:0005a530       _opnd_immed_float_arch     7105b530 f   opnd.obj
 0001:0005a5a0       _convert_to_near_rel       7105b5a0 f   instr_shared.obj
 0001:0005a5c0       _decode_memory_reference_size 7105b5c0 f   instr_shared.obj
 0001:0005a630       _instr_allocate_raw_bits   7105b630 f   instr_shared.obj
 0001:0005a6d0       _instr_branch_set_padded   7105b6d0 f   instr_shared.obj
 0001:0005a6f0       _instr_branch_set_special_exit 7105b6f0 f   instr_shared.obj
 0001:0005a710       _instr_branch_special_exit 7105b710 f   instr_shared.obj
 0001:0005a720       _instr_build               7105b720 f   instr_shared.obj
 0001:0005a760       _instr_build_bits          7105b760 f   instr_shared.obj
 0001:0005aae0       _instr_clear_label_callback 7105bae0 f   instr_shared.obj
 0001:0005aaf0       _instr_clone               7105baf0 f   instr_shared.obj
 0001:0005ac20       _instr_compute_address     7105bc20 f   instr_shared.obj
 0001:0005ac60       _instr_compute_address_ex  7105bc60 f   instr_shared.obj
 0001:0005ac90       _instr_compute_address_ex_pos 7105bc90 f   instr_shared.obj
 0001:0005af50       _instr_convert_short_meta_jmp_to_long 7105bf50 f   instr_shared.obj
 0001:0005af90       _instr_create              7105bf90 f   instr_shared.obj
 0001:0005afc0       _instr_create_0dst_0src    7105bfc0 f   instr_shared.obj
 0001:0005b000       _instr_create_0dst_1src    7105c000 f   instr_shared.obj
 0001:0005b050       _instr_create_0dst_2src    7105c050 f   instr_shared.obj
 0001:0005b0f0       _instr_create_0dst_3src    7105c0f0 f   instr_shared.obj
 0001:0005b1b0       _instr_create_0dst_4src    7105c1b0 f   instr_shared.obj
 0001:0005b290       _instr_create_1dst_0src    7105c290 f   instr_shared.obj
 0001:0005b320       _instr_create_1dst_1src    7105c320 f   instr_shared.obj
 0001:0005b3c0       _instr_create_1dst_2src    7105c3c0 f   instr_shared.obj
 0001:0005b4a0       _instr_create_1dst_3src    7105c4a0 f   instr_shared.obj
 0001:0005b5a0       _instr_create_1dst_4src    7105c5a0 f   instr_shared.obj
 0001:0005b6c0       _instr_create_1dst_5src    7105c6c0 f   instr_shared.obj
 0001:0005b800       _instr_create_2dst_0src    7105c800 f   instr_shared.obj
 0001:0005b8b0       _instr_create_2dst_1src    7105c8b0 f   instr_shared.obj
 0001:0005b970       _instr_create_2dst_2src    7105c970 f   instr_shared.obj
 0001:0005ba70       _instr_create_2dst_3src    7105ca70 f   instr_shared.obj
 0001:0005bb90       _instr_create_2dst_4src    7105cb90 f   instr_shared.obj
 0001:0005bcd0       _instr_create_2dst_5src    7105ccd0 f   instr_shared.obj
 0001:0005be30       _instr_create_3dst_0src    7105ce30 f   instr_shared.obj
 0001:0005bf00       _instr_create_3dst_1src    7105cf00 f   instr_shared.obj
 0001:0005bfe0       _instr_create_3dst_2src    7105cfe0 f   instr_shared.obj
 0001:0005c100       _instr_create_3dst_3src    7105d100 f   instr_shared.obj
 0001:0005c240       _instr_create_3dst_4src    7105d240 f   instr_shared.obj
 0001:0005c3a0       _instr_create_3dst_5src    7105d3a0 f   instr_shared.obj
 0001:0005c520       _instr_create_3dst_6src    7105d520 f   instr_shared.obj
 0001:0005c6c0       _instr_create_4dst_1src    7105d6c0 f   instr_shared.obj
 0001:0005c7c0       _instr_create_4dst_2src    7105d7c0 f   instr_shared.obj
 0001:0005c900       _instr_create_4dst_3src    7105d900 f   instr_shared.obj
 0001:0005ca60       _instr_create_4dst_4src    7105da60 f   instr_shared.obj
 0001:0005cbe0       _instr_create_4dst_5src    7105dbe0 f   instr_shared.obj
 0001:0005cd80       _instr_create_4dst_6src    7105dd80 f   instr_shared.obj
 0001:0005cf50       _instr_create_4dst_7src    7105df50 f   instr_shared.obj
 0001:0005d140       _instr_create_5dst_3src    7105e140 f   instr_shared.obj
 0001:0005d2c0       _instr_create_5dst_4src    7105e2c0 f   instr_shared.obj
 0001:0005d460       _instr_create_5dst_5src    7105e460 f   instr_shared.obj
 0001:0005d630       _instr_create_5dst_8src    7105e630 f   instr_shared.obj
 0001:0005d870       _instr_create_Ndst_Msrc_vardst 7105e870 f   instr_shared.obj
 0001:0005da40       _instr_create_Ndst_Msrc_varsrc 7105ea40 f   instr_shared.obj
 0001:0005dc30       _instr_create_jump_via_dcontext 7105ec30 f   instr_shared.obj
 0001:0005dca0       _instr_create_raw_1byte    7105eca0 f   instr_shared.obj
 0001:0005dcf0       _instr_create_raw_2bytes   7105ecf0 f   instr_shared.obj
 0001:0005dd50       _instr_create_raw_3bytes   7105ed50 f   instr_shared.obj
 0001:0005ddc0       _instr_create_restore_dynamo_stack 7105edc0 f   instr_shared.obj
 0001:0005de70       _instr_create_restore_from_dc_via_reg 7105ee70 f   instr_shared.obj
 0001:0005df30       _instr_create_restore_from_dcontext 7105ef30 f   instr_shared.obj
 0001:0005dfd0       _instr_create_restore_from_tls 7105efd0 f   instr_shared.obj
 0001:0005e030       _instr_create_save_immed16_to_dcontext 7105f030 f   instr_shared.obj
 0001:0005e0a0       _instr_create_save_immed32_to_dcontext 7105f0a0 f   instr_shared.obj
 0001:0005e110       _instr_create_save_immed8_to_dcontext 7105f110 f   instr_shared.obj
 0001:0005e180       _instr_create_save_immed_to_dc_via_reg 7105f180 f   instr_shared.obj
 0001:0005e1f0       _instr_create_save_to_dc_via_reg 7105f1f0 f   instr_shared.obj
 0001:0005e2c0       _instr_create_save_to_dcontext 7105f2c0 f   instr_shared.obj
 0001:0005e370       _instr_create_save_to_tls  7105f370 f   instr_shared.obj
 0001:0005e3d0       _instr_decode              7105f3d0 f   instr_shared.obj
 0001:0005e470       _instr_decode_with_current_dcontext 7105f470 f   instr_shared.obj
 0001:0005e520       _instr_destroy             7105f520 f   instr_shared.obj
 0001:0005e540       _instr_eflags_conditionally 7105f540 f   instr_shared.obj
 0001:0005e5b0       _instr_exit_branch_set_type 7105f5b0 f   instr_shared.obj
 0001:0005e5d0       _instr_exit_branch_type    7105f5d0 f   instr_shared.obj
 0001:0005e5e0       _instr_expand              7105f5e0 f   instr_shared.obj
 0001:0005e7d0       _instr_free                7105f7d0 f   instr_shared.obj
 0001:0005e880       _instr_free_raw_bits       7105f880 f   instr_shared.obj
 0001:0005e8c0       _instrlist_get_return_target 7105f8c0 f   instrlist.obj
 0001:0005e8c0       _instr_get_app_pc          7105f8c0 f   instr_shared.obj
 0001:0005e8c0       _instr_get_translation     7105f8c0 f   instr_shared.obj
 0001:0005e8c0       _instrlist_get_fall_through_target 7105f8c0 f   instrlist.obj
 0001:0005e8d0       _instr_get_arith_flags     7105f8d0 f   instr_shared.obj
 0001:0005e900       _instr_get_branch_target_pc 7105f900 f   instr_shared.obj
 0001:0005e940       _instr_get_dst             7105f940 f   instr_shared.obj
 0001:0005e980       _instr_get_eflags          7105f980 f   instr_shared.obj
 0001:0005ea50       _instr_get_instr_info      7105fa50 f   instr_shared.obj
 0001:0005ea90       _instr_get_interrupt_number 7105fa90 f   instr_shared.obj
 0001:0005eaf0       _instr_get_label_data_area 7105faf0 f   instr_shared.obj
 0001:0005eb10       _instr_get_next_expanded   7105fb10 f   instr_shared.obj
 0001:0005eb30       _instr_get_opcode          7105fb30 f   instr_shared.obj
 0001:0005eb50       _instr_get_opcode_eflags   7105fb50 f   instr_shared.obj
 0001:0005eb70       _instr_get_predicate       7105fb70 f   instr_shared.obj
 0001:0005eb80       _instr_get_prefix_flag     7105fb80 f   instr_shared.obj
 0001:0005eba0       _instr_get_prefixes        7105fba0 f   instr_shared.obj
 0001:0005ebb0       _instr_get_prev_expanded   7105fbb0 f   instr_shared.obj
 0001:0005ebd0       _instr_get_raw_bits        7105fbd0 f   instr_shared.obj
 0001:0005ebd0       _instrlist_get_translation_target 7105fbd0 f   instrlist.obj
 0001:0005ebe0       _instr_get_raw_byte        7105fbe0 f   instr_shared.obj
 0001:0005ec00       _instr_get_raw_word        7105fc00 f   instr_shared.obj
 0001:0005ec20       _instr_get_rel_data_or_instr_target 7105fc20 f   instr_shared.obj
 0001:0005ec40       _instr_get_rel_target      7105fc40 f   instr_shared.obj
 0001:0005edc0       _instr_get_rip_rel_pos     7105fdc0 f   instr_shared.obj
 0001:0005edd0       _instr_get_src             7105fdd0 f   instr_shared.obj
 0001:0005ee30       _instr_get_target          7105fe30 f   instr_shared.obj
 0001:0005ee60       _instr_has_encoding_hint   7105fe60 f   instr_shared.obj
 0001:0005ef10       _instr_init                7105ff10 f   instr_shared.obj
 0001:0005ef40       _instr_is_DR_reg_spill_or_restore 7105ff40 f   instr_shared.obj
 0001:0005f050       _instr_is_call             71060050 f   instr_shared.obj
 0001:0005f080       _instr_is_cbr              71060080 f   instr_shared.obj
 0001:0005f0b0       _instr_is_cti              710600b0 f   instr_shared.obj
 0001:0005f110       _instr_is_exit_cti         71060110 f   instr_shared.obj
 0001:0005f180       _instr_is_label            71060180 f   instr_shared.obj
 0001:0005f1a0       _instr_is_mbr              710601a0 f   instr_shared.obj
 0001:0005f1d0       _instr_is_meta_may_fault   710601d0 f   instr_shared.obj
 0001:0005f1f0       _instr_is_our_mangling     710601f0 f   instr_shared.obj
 0001:0005f200       _instr_is_our_mangling_epilogue 71060200 f   instr_shared.obj
 0001:0005f210       _instr_is_predicated       71060210 f   instr_shared.obj
 0001:0005f230       _instr_is_reg_spill_or_restore 71060230 f   instr_shared.obj
 0001:0005f350       _instr_is_tls_xcx_spill    71060350 f   instr_shared.obj
 0001:0005f430       _instr_is_ubr              71060430 f   instr_shared.obj
 0001:0005f460       _instr_is_xsave            71060460 f   instr_shared.obj
 0001:0005f4b0       _instr_length              710604b0 f   instr_shared.obj
 0001:0005f4f0       _instr_make_persistent     710604f0 f   instr_shared.obj
 0001:0005f520       _instr_mem_usage           71060520 f   instr_shared.obj
 0001:0005f570       _instr_memory_reference_size 71060570 f   instr_shared.obj
 0001:0005f6c0       _instr_noalloc_init        710606c0 f   instr_shared.obj
 0001:0005f700       _instr_opcode_valid        71060700 f   instr_shared.obj
 0001:0005f720       _instr_raw_is_tls_spill    71060720 f   instr_shared.obj
 0001:0005f7a0       _instr_reads_from_exact_reg 710607a0 f   instr_shared.obj
 0001:0005f980       _instr_reads_from_reg      71060980 f   instr_shared.obj
 0001:0005fa50       _instr_reads_memory        71060a50 f   instr_shared.obj
 0001:0005faf0       _instr_reg_in_dst          71060af0 f   instr_shared.obj
 0001:0005fb70       _instr_reg_in_src          71060b70 f   instr_shared.obj
 0001:0005fc10       _instr_remove_dsts         71060c10 f   instr_shared.obj
 0001:0005fcd0       _instr_remove_srcs         71060cd0 f   instr_shared.obj
 0001:0005fdf0       _instr_replace_reg_resize  71060df0 f   instr_shared.obj
 0001:0005ff90       _instr_replace_src_opnd    71060f90 f   instr_shared.obj
 0001:000600c0       _instr_reset               710610c0 f   instr_shared.obj
 0001:00060120       _instr_reuse               71061120 f   instr_shared.obj
 0001:00060230       _instr_rip_rel_valid       71061230 f   instr_shared.obj
 0001:00060250       _instr_same                71061250 f   instr_shared.obj
 0001:00060450       _instr_set_app             71061450 f   instr_shared.obj
 0001:00060460       _instr_set_arith_flags_valid 71061460 f   instr_shared.obj
 0001:00060480       _instr_set_branch_target_pc 71061480 f   instr_shared.obj
 0001:000604d0       _instr_set_dst             710614d0 f   instr_shared.obj
 0001:00060510       _instr_set_eflags_valid    71061510 f   instr_shared.obj
 0001:00060530       _instr_set_encoding_hint   71061530 f   instr_shared.obj
 0001:00060540       _instrlist_set_translation_target 71061540 f   instrlist.obj
 0001:00060540       _instr_set_label_callback  71061540 f   instr_shared.obj
 0001:00060550       _instr_set_meta            71061550 f   instr_shared.obj
 0001:00060550       _instr_set_meta_may_fault  71061550 f   instr_shared.obj
 0001:00060560       _instr_set_meta_no_translation 71061560 f   instr_shared.obj
 0001:000605a0       _instr_set_num_opnds       710615a0 f   instr_shared.obj
 0001:00060620       _instr_set_ok_to_emit      71061620 f   instr_shared.obj
 0001:00060640       _instr_set_ok_to_mangle    71061640 f   instr_shared.obj
 0001:00060660       _instr_set_opcode          71061660 f   instr_shared.obj
 0001:00060680       _instr_set_operands_valid  71061680 f   instr_shared.obj
 0001:000606a0       _instr_set_our_mangling    710616a0 f   instr_shared.obj
 0001:000606c0       _instr_set_predicate       710616c0 f   instr_shared.obj
 0001:000606e0       _instr_set_prefix_flag     710616e0 f   instr_shared.obj
 0001:00060700       _instr_set_prefixes        71061700 f   instr_shared.obj
 0001:00060720       _instr_set_raw_bits        71061720 f   instr_shared.obj
 0001:00060760       _instr_set_raw_bits_valid  71061760 f   instr_shared.obj
 0001:00060780       _instr_set_raw_byte        71061780 f   instr_shared.obj
 0001:000607a0       _instr_set_raw_bytes       710617a0 f   instr_shared.obj
 0001:000607d0       _instr_set_raw_word        710617d0 f   instr_shared.obj
 0001:000607f0       _instr_set_rip_rel_pos     710617f0 f   instr_shared.obj
 0001:00060810       _instr_set_src             71061810 f   instr_shared.obj
 0001:00060870       _instr_set_target          71061870 f   instr_shared.obj
 0001:000608b0       _instr_set_translation     710618b0 f   instr_shared.obj
 0001:000608f0       _instr_shift_raw_bits      710618f0 f   instr_shared.obj
 0001:00060910       _instr_shrink_to_16_bits   71061910 f   instr_shared.obj
 0001:00060b00       _instr_uses_fp_reg         71061b00 f   instr_shared.obj
 0001:00060cb0       _instr_uses_reg            71061cb0 f   instr_shared.obj
 0001:00060ce0       _instr_valid               71061ce0 f   instr_shared.obj
 0001:00060cf0       _instr_writes_memory       71061cf0 f   instr_shared.obj
 0001:00060d70       _instr_writes_to_exact_reg 71061d70 f   instr_shared.obj
 0001:00060e30       _instr_writes_to_reg       71061e30 f   instr_shared.obj
 0001:00060ed0       _instr_zeroes_ymmh         71061ed0 f   instr_shared.obj
 0001:00060f80       _instr_zeroes_zmmh         71061f80 f   instr_shared.obj
 0001:00061060       _instrlist_first_expanded  71062060 f   instr_shared.obj
 0001:00061090       _move_mm_avx512_reg_opcode 71062090 f   instr_shared.obj
 0001:000610b0       _move_mm_reg_opcode        710620b0 f   instr_shared.obj
 0001:00061220       _instr_branch_type         71062220 f   instr.obj
 0001:00061340       _instr_can_set_single_step 71062340 f   instr.obj
 0001:00061370       _instr_cbr_taken           71062370 f   instr.obj
 0001:00061420       _instr_cmovcc_to_jcc       71062420 f   instr.obj
 0001:000614b0       _instr_cmovcc_triggered    710624b0 f   instr.obj
 0001:00061890       _instr_compute_address_VSIB 71062890 f   instr.obj
 0001:00061950       _instr_create_nbyte_nop    71062950 f   instr.obj
 0001:00061aa0       _instr_create_popa         71062aa0 f   instr.obj
 0001:00061c80       _instr_create_pusha        71062c80 f   instr.obj
 0001:00061f60       _instr_invert_cbr          71062f60 f   instr.obj
 0001:00062280       _instr_is_3DNow            71063280 f   instr.obj
 0001:000622c0       _instr_is_call_arch        710632c0 f   instr.obj
 0001:000622f0       _instr_is_call_direct      710632f0 f   instr.obj
 0001:00062310       _instr_is_call_indirect    71063310 f   instr.obj
 0001:00062330       _instr_is_cbr_arch         71063330 f   instr.obj
 0001:00062370       _instr_is_cti_loop         71063370 f   instr.obj
 0001:00062390       _instr_is_cti_short        71063390 f   instr.obj
 0001:00062400       _instr_is_cti_short_rewrite 71063400 f   instr.obj
 0001:000624a0       _instr_is_far_abs_cti      710634a0 f   instr.obj
 0001:000624c0       _instr_is_far_cti          710634c0 f   instr.obj
 0001:00062500       _instr_is_floating         71063500 f   instr.obj
 0001:00062520       _instr_is_floating_ex      71063520 f   instr.obj
 0001:000629c0       _instr_is_gather           710639c0 f   instr.obj
 0001:00062a00       _instr_is_interrupt        71063a00 f   instr.obj
 0001:00062a30       _instr_is_mbr_arch         71063a30 f   instr.obj
 0001:00062a70       _instr_is_mmx              71063a70 f   instr.obj
 0001:00062ac0       _instr_is_mov              71063ac0 f   instr.obj
 0001:00062af0       _instr_is_mov_constant     71063af0 f   instr.obj
 0001:00062bd0       _instr_is_mov_imm_to_tos   71063bd0 f   instr.obj
 0001:00062d20       _instr_is_near_call_direct 71063d20 f   instr.obj
 0001:00062d40       _instr_is_near_ubr         71063d40 f   instr.obj
 0001:00062d60       _instr_is_nop              71063d60 f   instr.obj
 0001:00062fc0       _instr_is_opmask           71063fc0 f   instr.obj
 0001:00063030       _instr_is_prefetch         71064030 f   instr.obj
 0001:00063070       _instr_is_rep_string_op    71064070 f   instr.obj
 0001:000630d0       _instr_is_return           710640d0 f   instr.obj
 0001:00063100       _instr_is_scatter          71064100 f   instr.obj
 0001:00063180       _instr_is_sse              71064180 f   instr.obj
 0001:00063300       _instr_is_sse2             71064300 f   instr.obj
 0001:000634a0       _instr_is_sse3             710644a0 f   instr.obj
 0001:000634c0       _instr_is_sse41            710644c0 f   instr.obj
 0001:000634f0       _instr_is_sse42            710644f0 f   instr.obj
 0001:00063530       _instr_is_sse4A            71064530 f   instr.obj
 0001:00063550       _instr_is_sse_or_sse2      71064550 f   instr.obj
 0001:00063580       _instr_is_ssse3            71064580 f   instr.obj
 0001:000635a0       _instr_is_string_op        710645a0 f   instr.obj
 0001:000635f0       _instr_is_syscall          710645f0 f   instr.obj
 0001:00063640       _instr_is_ubr_arch         71064640 f   instr.obj
 0001:00063660       _instr_is_undefined        71064660 f   instr.obj
 0001:000636a0       _instr_is_wow64_syscall    710646a0 f   instr.obj
 0001:000637f0       _instr_jcc_taken           710647f0 f   instr.obj
 0001:00063810       _instr_length_arch         71064810 f   instr.obj
 0001:000639a0       _instr_may_write_zmm_or_opmask_register 710649a0 f   instr.obj
 0001:00063a40       _instr_predicate_is_cond   71064a40 f   instr.obj
 0001:00063a50       _instr_predicate_reads_srcs 71064a50 f   instr.obj
 0001:00063a50       _instr_predicate_writes_eflags 71064a50 f   instr.obj
 0001:00063a60       _instr_predicate_triggered 71064a60 f   instr.obj
 0001:00063c00       _instr_saves_float_pc      71064c00 f   instr.obj
 0001:00063c60       _instr_set_isa_mode        71064c60 f   instr.obj
 0001:00063c70       _opc_is_not_a_real_memory_load 71064c70 f   instr.obj
 0001:00063f80       _opnd_same_sizes_ok        71064f80 f   instr.obj
 0001:00063fd0       _reg_is_bnd                71064fd0 f   instr.obj
 0001:00063ff0       _reg_is_fp                 71064ff0 f   instr.obj
 0001:00064010       _reg_is_gpr                71065010 f   instr.obj
 0001:00064020       _reg_is_mmx                71065020 f   instr.obj
 0001:00064040       _reg_is_opmask             71065040 f   instr.obj
 0001:00064060       _reg_is_segment            71065060 f   instr.obj
 0001:00064080       _reg_is_simd               71065080 f   instr.obj
 0001:000640c0       _reg_is_strictly_xmm       710650c0 f   instr.obj
 0001:000640e0       _reg_is_strictly_ymm       710650e0 f   instr.obj
 0001:000640e0       _reg_is_ymm                710650e0 f   instr.obj
 0001:00064100       _reg_is_strictly_zmm       71065100 f   instr.obj
 0001:00064120       _reg_is_vector_simd        71065120 f   instr.obj
 0001:00064150       _reg_is_xmm                71065150 f   instr.obj
 0001:00064180       _instrlist_append          71065180 f   instrlist.obj
 0001:00064220       _instrlist_clear           71065220 f   instrlist.obj
 0001:00064280       _instrlist_clear_and_destroy 71065280 f   instrlist.obj
 0001:000642a0       _instrlist_clone           710652a0 f   instrlist.obj
 0001:000644f0       _instrlist_create          710654f0 f   instrlist.obj
 0001:00064530       _instrlist_cut             71065530 f   instrlist.obj
 0001:00064560       _instrlist_destroy         71065560 f   instrlist.obj
 0001:00064580       _instrlist_encode          71065580 f   instrlist.obj
 0001:00064600       _instrlist_encode_to_copy  71065600 f   instrlist.obj
 0001:000646a0       _instrlist_first_app       710656a0 f   instrlist.obj
 0001:000646e0       _instrlist_first_nonlabel  710656e0 f   instrlist.obj
 0001:00064710       _instrlist_init            71065710 f   instrlist.obj
 0001:00064740       _instrlist_insert_mov_immed_ptrsz 71065740 f   instrlist.obj
 0001:00064780       _instrlist_insert_mov_instr_addr 71065780 f   instrlist.obj
 0001:000647d0       _instrlist_insert_push_immed_ptrsz 710657d0 f   instrlist.obj
 0001:000647e0       _instrlist_insert_push_instr_addr 710657e0 f   instrlist.obj
 0001:00064800       _instrlist_last            71065800 f   instrlist.obj
 0001:00064810       _instrlist_last_app        71065810 f   instrlist.obj
 0001:00064850       _instrlist_meta_append     71065850 f   instrlist.obj
 0001:00064870       _instrlist_meta_postinsert 71065870 f   instrlist.obj
 0001:00064890       _instrlist_meta_preinsert  71065890 f   instrlist.obj
 0001:000648b0       _instrlist_postinsert      710658b0 f   instrlist.obj
 0001:00064970       _instrlist_preinsert       71065970 f   instrlist.obj
 0001:00064a40       _instrlist_prepend         71065a40 f   instrlist.obj
 0001:00064ae0       _instrlist_remove          71065ae0 f   instrlist.obj
 0001:00064b30       _instrlist_replace         71065b30 f   instrlist.obj
 0001:00064ba0       _instrlist_set_return_target 71065ba0 f   instrlist.obj
 0001:00064ba0       _instrlist_set_fall_through_target 71065ba0 f   instrlist.obj
 0001:00064bb0       _instrlist_set_our_mangling 71065bb0 f   instrlist.obj
 0001:00064be0       _d_r_decode_init           71065be0 f   decode_shared.obj
 0001:00064bf0       _dr_get_isa_mode           71065bf0 f   decode_shared.obj
 0001:00064c20       _dr_set_isa_mode           71065c20 f   decode_shared.obj
 0001:00064ca0       _decode                    71065ca0 f   decode.obj
 0001:000650d0       _decode_eflags_usage       710660d0 f   decode.obj
 0001:00065170       _decode_first_opcode_byte  71066170 f   decode.obj
 0001:00065190       _decode_from_copy          71066190 f   decode.obj
 0001:000651a0       _decode_get_compressed_disp_scale 710661a0 f   decode.obj
 0001:00065360       _decode_get_tuple_type_input_size 71066360 f   decode.obj
 0001:00065e80       _decode_opcode             71066e80 f   decode.obj
 0001:00065f10       _decode_opcode_name        71066f10 f   decode.obj
 0001:000679f0       _decode_predicate_from_instr_info 710689f0 f   decode.obj
 0001:00067a70       _expand_subreg_size        71068a70 f   decode.obj
 0001:00067b60       _get_next_instr_info       71068b60 f   decode.obj
 0001:00067b70       _indir_var_reg_offs_factor 71068b70 f   decode.obj
 0001:00067bb0       _indir_var_reg_size        71068bb0 f   decode.obj
 0001:00067c10       _is_isa_mode_legal         71068c10 f   decode.obj
 0001:00067c20       _opcode_to_encoding_info   71068c20 f   decode.obj
 0001:00067c30       _optype_is_indir_reg       71068c30 f   decode.obj
 0001:00068d00       _resolve_addr_size         71069d00 f   decode.obj
 0001:00068d20       _resolve_var_reg           71069d20 f   decode.obj
 0001:00068d60       _resolve_var_reg_size      71069d60 f   decode.obj
 0001:00068da0       _resolve_variable_size     71069da0 f   decode.obj
 0001:00069140       _resolve_variable_size_dc  7106a140 f   decode.obj
 0001:00069170       _get_encoding_info         7106a170 f   encode_shared.obj
 0001:000691e0       _instr_encode              7106a1e0 f   encode_shared.obj
 0001:00069200       _instr_encode_check_reachability 7106a200 f   encode_shared.obj
 0001:00069220       _instr_encode_ignore_reachability 7106a220 f   encode_shared.obj
 0001:00069240       _instr_encode_to_copy      7106a240 f   encode_shared.obj
 0001:00069260       _instr_is_encoding_possible 7106a260 f   encode_shared.obj
 0001:00069360       _copy_and_re_relativize_raw_instr 7106a360 f   encode.obj
 0001:000694b0       _decode_info_init_for_instr 7106a4b0 f   encode.obj
 0001:0006a000       _encoding_possible         7106b000 f   encode.obj
 0001:0006c2a0       _instr_encode_arch         7106d2a0 f   encode.obj
 0001:0006cc70       _instr_info_extra_opnds    7106dc70 f   encode.obj
 0001:0006cca0       _instr_info_opnd_type      7106dca0 f   encode.obj
 0001:0006f1f0       _disassemble               710701f0 f   disassemble_shared.obj
 0001:0006f2d0       _disassemble_app_bb        710702d0 f   disassemble_shared.obj
 0001:0006f2f0       _disassemble_fragment_body 710702f0 f   disassemble_shared.obj
 0001:0006f310       _disassemble_fragment_header 71070310 f   disassemble_shared.obj
 0001:0006f330       _disassemble_from_copy     71070330 f   disassemble_shared.obj
 0001:0006f390       _disassemble_options_init  71070390 f   disassemble_shared.obj
 0001:0006f3e0       _disassemble_set_syntax    710703e0 f   disassemble_shared.obj
 0001:0006f400       _disassemble_to_buffer     71070400 f   disassemble_shared.obj
 0001:0006f450       _disassemble_with_bytes    71070450 f   disassemble_shared.obj
 0001:0006f4d0       _disassemble_with_info     710704d0 f   disassemble_shared.obj
 0001:0006f530       _dump_callstack            71070530 f   disassemble_shared.obj
 0001:0006f590       _dump_callstack_to_buffer  71070590 f   disassemble_shared.obj
 0001:0006f5a0       _dump_dr_callstack         710705a0 f   disassemble_shared.obj
 0001:0006f610       _instr_disassemble         71070610 f   disassemble_shared.obj
 0001:0006fb40       _instr_disassemble_to_buffer 71070b40 f   disassemble_shared.obj
 0001:0006fb70       _instrlist_disassemble     71070b70 f   disassemble_shared.obj
 0001:00070630       _internal_opnd_disassemble 71071630 f   disassemble_shared.obj
 0001:00071240       _opnd_disassemble          71072240 f   disassemble_shared.obj
 0001:00071290       _opnd_disassemble_to_buffer 71072290 f   disassemble_shared.obj
 0001:00071770       _reg_disassemble           71072770 f   disassemble_shared.obj
 0001:00071c10       _opnd_base_disp_scale_disassemble 71072c10 f   disassemble.obj
 0001:00071c60       _opnd_disassemble_noimplicit 71072c60 f   disassemble.obj
 0001:00071dd0       _print_bytes_to_buffer     71072dd0 f   disassemble.obj
 0001:00071ea0       _print_extra_bytes_to_buffer 71072ea0 f   disassemble.obj
 0001:00071f10       _print_instr_prefixes      71072f10 f   disassemble.obj
 0001:00071fe0       _print_opcode_name         71072fe0 f   disassemble.obj
 0001:00072080       _insert_mov_immed_ptrsz    71073080 f   ir_utils_shared.obj
 0001:000720c0       _insert_mov_instr_addr     710730c0 f   ir_utils_shared.obj
 0001:00072100       _insert_push_immed_ptrsz   71073100 f   ir_utils_shared.obj
 0001:00072130       _insert_push_instr_addr    71073130 f   ir_utils_shared.obj
 0001:00072160       _convert_to_near_rel_arch  71073160 f   ir_utils.obj
 0001:00072410       _insert_mov_immed_arch     71073410 f   ir_utils.obj
 0001:000724a0       _insert_push_immed_arch    710734a0 f   ir_utils.obj
 0001:00072590       _remangle_short_rewrite    71073590 f   ir_utils.obj
 0001:00072620       _decode_cti                71073620 f   decode_fast.obj
 0001:00073160       _decode_next_pc            71074160 f   decode_fast.obj
 0001:00073190       _decode_raw                71074190 f   decode_fast.obj
 0001:000731e0       _decode_sizeof             710741e0 f   decode_fast.obj
 0001:00073200       _decode_sizeof_ex          71074200 f   decode_fast.obj
 0001:00073750       _app_bb_overlaps           71074750 f   interp.obj
 0001:00073810       _append_trace_speculate_last_ibl 71074810 f   interp.obj
 0001:00073ab0       _bb_build_abort            71074ab0 f   interp.obj
 0001:000743e0       _build_app_bb_ilist        710753e0 f   interp.obj
 0001:00074440       _build_basic_block_fragment 71075440 f   interp.obj
 0001:000771b0       _d_r_emulate               710781b0 f   interp.obj
 0001:00077390       _decode_as_bb              71078390 f   interp.obj
 0001:00077400       _decode_fragment           71078400 f   interp.obj
 0001:00077ef0       _decode_fragment_exact     71078ef0 f   interp.obj
 0001:00077f40       _decode_trace              71078f40 f   interp.obj
 0001:000780c0       _expand_should_set_translation 710790c0 f   interp.obj
 0001:000780e0       _extend_trace              710790e0 f   interp.obj
 0001:000781f0       _find_app_bb_end           710791f0 f   interp.obj
 0001:00078720       _forward_eflags_analysis   71079720 f   interp.obj
 0001:00078b10       _instr_eflags_to_fragment_eflags 71079b10 f   interp.obj
 0001:00078b40       _instr_is_call_sysenter_pattern 71079b40 f   interp.obj
 0001:00078d50       _instr_is_trace_cmp        71079d50 f   interp.obj
 0001:00078e10       _interp_exit               71079e10 f   interp.obj
 0001:00078e40       _interp_init               71079e40 f   interp.obj
 0001:00078fe0       _mangle_trace              71079fe0 f   interp.obj
 0001:00079650       _reached_image_entry_yet   7107a650 f   interp.obj
 0001:00079660       _recreate_bb_ilist         7107a660 f   interp.obj
 0001:00079790       _recreate_fragment_ilist   7107a790 f   interp.obj
 0001:00079d80       _set_reached_image_entry   7107ad80 f   interp.obj
 0001:00079dc0       _shift_ctis_in_fragment    7107adc0 f   interp.obj
 0001:0007a000       _proc_bump_to_end_of_cache_line 7107b000 f   proc_shared.obj
 0001:0007a030       _proc_get_L1_dcache_size   7107b030 f   proc_shared.obj
 0001:0007a040       _proc_get_L1_icache_size   7107b040 f   proc_shared.obj
 0001:0007a050       _proc_get_L2_cache_size    7107b050 f   proc_shared.obj
 0001:0007a060       _proc_get_all_feature_bits 7107b060 f   proc_shared.obj
 0001:0007a070       _proc_get_brand_string     7107b070 f   proc_shared.obj
 0001:0007a080       _proc_get_cache_line_size  7107b080 f   proc_shared.obj
 0001:0007a090       _proc_get_cache_size_str   7107b090 f   proc_shared.obj
 0001:0007a0a0       _proc_get_containing_page  7107b0a0 f   proc_shared.obj
 0001:0007a0b0       _proc_get_family           7107b0b0 f   proc_shared.obj
 0001:0007a0c0       _proc_get_model            7107b0c0 f   proc_shared.obj
 0001:0007a0d0       _proc_get_stepping         7107b0d0 f   proc_shared.obj
 0001:0007a0e0       _proc_get_type             7107b0e0 f   proc_shared.obj
 0001:0007a0f0       _proc_get_vendor           7107b0f0 f   proc_shared.obj
 0001:0007a100       _proc_init                 7107b100 f   proc_shared.obj
 0001:0007a120       _proc_is_cache_aligned     7107b120 f   proc_shared.obj
 0001:0007a130       _proc_set_cache_size       7107b130 f   proc_shared.obj
 0001:0007a230       _proc_set_vendor           7107b230 f   proc_shared.obj
 0001:0007a2a0       _dr_insert_restore_fpstate 7107b2a0 f   proc.obj
 0001:0007a320       _dr_insert_save_fpstate    7107b320 f   proc.obj
 0001:0007a800       _proc_avx512_enabled       7107b800 f   proc.obj
 0001:0007a810       _proc_avx_enabled          7107b810 f   proc.obj
 0001:0007a820       _proc_fpstate_save_size    7107b820 f   proc.obj
 0001:0007a840       _proc_has_feature          7107b840 f   proc.obj
 0001:0007a8b0       _proc_init_arch            7107b8b0 f   proc.obj
 0001:0007a9e0       _proc_num_opmask_registers 7107b9e0 f   proc.obj
 0001:0007a9f0       _proc_num_simd_registers   7107b9f0 f   proc.obj
 0001:0007aa00       _proc_num_simd_saved       7107ba00 f   proc.obj
 0001:0007aa10       _proc_num_simd_sse_avx_registers 7107ba10 f   proc.obj
 0001:0007aa20       _proc_num_simd_sse_avx_saved 7107ba20 f   proc.obj
 0001:0007aa30       _proc_restore_fpstate      7107ba30 f   proc.obj
 0001:0007aa50       _proc_save_fpstate         7107ba50 f   proc.obj
 0001:0007aa90       _clean_call_info_init      7107ba90 f   mangle_shared.obj
 0001:0007aad0       _clean_call_needs_simd     7107bad0 f   mangle_shared.obj
 0001:0007ab00       _cleanup_after_clean_call  7107bb00 f   mangle_shared.obj
 0001:0007ac10       _d_r_mangle                7107bc10 f   mangle_shared.obj
 0001:0007b290       _find_syscall_num          7107c290 f   mangle_shared.obj
 0001:0007b5d0       _get_app_instr_xl8         7107c5d0 f   mangle_shared.obj
 0001:0007b600       _get_call_return_address   7107c600 f   mangle_shared.obj
 0001:0007b690       _get_clean_call_switch_stack_size 7107c690 f   mangle_shared.obj
 0001:0007b6a0       _get_clean_call_temp_stack_size 7107c6a0 f   mangle_shared.obj
 0001:0007b6b0       _insert_get_mcontext_base  7107c6b0 f   mangle_shared.obj
 0001:0007b740       _insert_meta_call_vargs    7107c740 f   mangle_shared.obj
 0001:0007ba50       _mangle_exit               7107ca50 f   mangle_shared.obj
 0001:0007ba60       _mangle_finalize           7107ca60 f   mangle_shared.obj
 0001:0007ba80       _mangle_init               7107ca80 f   mangle_shared.obj
 0001:0007bab0       _prepare_for_clean_call    7107cab0 f   mangle_shared.obj
 0001:0007bc30       _finalize_selfmod_sandbox  7107cc30 f   mangle.obj
 0001:0007bcf0       _float_pc_update           7107ccf0 f   mangle.obj
 0001:0007bdb0       _insert_clear_eflags       7107cdb0 f   mangle.obj
 0001:0007bf20       _insert_out_of_line_context_switch 7107cf20 f   mangle.obj
 0001:0007c090       _insert_parameter_preparation 7107d090 f   mangle.obj
 0001:0007c770       _insert_pop_all_registers  7107d770 f   mangle.obj
 0001:0007cc60       _insert_push_all_registers 7107dc60 f   mangle.obj
 0001:0007d390       _insert_push_retaddr       7107e390 f   mangle.obj
 0001:0007d490       _insert_reachable_cti      7107e490 f   mangle.obj
 0001:0007d5b0       _insert_selfmod_sandbox    7107e5b0 f   mangle.obj
 0001:0007d880       _instr_check_xsp_mangling  7107e880 f   mangle.obj
 0001:0007dc70       _mangle_annotation_helper  7107ec70 f   mangle.obj
 0001:0007dd70       _mangle_direct_call        7107ed70 f   mangle.obj
 0001:0007df00       _mangle_exit_cti_prefixes  7107ef00 f   mangle.obj
 0001:0007e080       _mangle_far_direct_jump    7107f080 f   mangle.obj
 0001:0007e140       _mangle_float_pc           7107f140 f   mangle.obj
 0001:0007e690       _mangle_indirect_call      7107f690 f   mangle.obj
 0001:0007e8a0       _mangle_indirect_jump      7107f8a0 f   mangle.obj
 0001:0007ea00       _mangle_interrupt          7107fa00 f   mangle.obj
 0001:0007ea40       _mangle_possible_single_step 7107fa40 f   mangle.obj
 0001:0007ea80       _mangle_return             7107fa80 f   mangle.obj
 0001:0007f020       _mangle_single_step        71080020 f   mangle.obj
 0001:0007f0e0       _mangle_syscall_arch       710800e0 f   mangle.obj
 0001:00080670       _set_selfmod_sandbox_offsets 71081670 f   mangle.obj
 0001:000807b0       _shrink_reg_for_param      710817b0 f   mangle.obj
 0001:00080830       _analyze_clean_call        71081830 f   clean_call_opt_shared.obj
 0001:00080d10       _callee_info_reserve_slot  71081d10 f   clean_call_opt_shared.obj
 0001:00080d60       _callee_info_slot_opnd     71081d60 f   clean_call_opt_shared.obj
 0001:00080e00       _clean_call_opt_exit       71081e00 f   clean_call_opt_shared.obj
 0001:00080e20       _clean_call_opt_init       71081e20 f   clean_call_opt_shared.obj
 0001:00081160       _insert_inline_clean_call  71082160 f   clean_call_opt_shared.obj
 0001:00081200       _analyze_callee_regs_usage 71082200 f   clean_call_opt.obj
 0001:00081450       _analyze_callee_save_reg   71082450 f   clean_call_opt.obj
 0001:00081950       _analyze_callee_tls        71082950 f   clean_call_opt.obj
 0001:00081a60       _analyze_clean_call_aflags 71082a60 f   clean_call_opt.obj
 0001:00081af0       _check_callee_ilist_inline 71082af0 f   clean_call_opt.obj
 0001:00082050       _check_callee_instr_level2 71083050 f   clean_call_opt.obj
 0001:000822a0       _insert_inline_arg_setup   710832a0 f   clean_call_opt.obj
 0001:00082490       _insert_inline_reg_restore 71083490 f   clean_call_opt.obj
 0001:000825c0       _insert_inline_reg_save    710835c0 f   clean_call_opt.obj
 0001:00082790       _auto_setup                71083790 f   x86_code.obj
 0001:00082870       _dynamo_start              71083870 f   x86_code.obj
 0001:00082900       _get_simd_vals             71083900 f   x86_code.obj
 0001:00082960       _is_safe_read_pc           71083960 f   x86_code.obj
 0001:00082990       _native_get_retstack_idx   71083990 f   x86_code.obj
 0001:000829b0       _nt_continue_setup         710839b0 f   x86_code.obj
 0001:00082a80       _safe_read_fast            71083a80 f   x86_code.obj
 0001:00082ab0       _safe_read_resume_pc       71083ab0 f   x86_code.obj
 0001:00082c50       _eventlog_fast_exit        71083c50 f   eventlog.obj
 0001:00082d30       _eventlog_init             71083d30 f   eventlog.obj
 0001:00082ed0       _eventlog_register         71083ed0 f   eventlog.obj
 0001:00083350       _eventlog_slow_exit        71084350 f   eventlog.obj
 0001:000833b0       _get_computer_name         710843b0 f   eventlog.obj
 0001:00083450       _os_syslog                 71084450 f   eventlog.obj
 0001:000835e0       _DllMain@12                710845e0 f   os.obj
 0001:00083640       _change_protection         71084640 f   os.obj
 0001:00083680       _check_for_ldrpLoadImportModule 71084680 f   os.obj
 0001:00083730       _client_thread_target      71084730 f   os.obj
 0001:00083770       _convert_NT_to_Dos_path    71084770 f   os.obj
 0001:000838e0       _convert_to_NT_file_path   710848e0 f   os.obj
 0001:00083ad0       _convert_to_NT_file_path_wide 71084ad0 f   os.obj
 0001:00083d00       _convert_to_NT_file_path_wide_free 71084d00 f   os.obj
 0001:00083d10       _create_broadcast_event    71084d10 f   os.obj
 0001:00083d20       _create_event              71084d20 f   os.obj
 0001:00083d30       _create_profile            71084d30 f   os.obj
 0001:00083dc0       _d_r_os_init               71084dc0 f   os.obj
 0001:00084290       _d_r_safe_read             71085290 f   os.obj
 0001:000842f0       _debugbox                  710852f0 f   os.obj
 0001:00084380       _debugbox_get_title        71085380 f   os.obj
 0001:00084390       _debugbox_setup_title      71085390 f   os.obj
 0001:000843d0       _detach_do_not_translate   710853d0 f   os.obj
 0001:000843e0       _detach_finalize_cleanup   710853e0 f   os.obj
 0001:00084410       _detach_finalize_translation 71085410 f   os.obj
 0001:000844d0       _detach_handle_callbacks   710854d0 f   os.obj
 0001:00084740       _detach_helper             71085740 f   os.obj
 0001:000847a0       _detach_internal           710857a0 f   os.obj
 0001:00084800       _detach_remove_image_entry_hook 71085800 f   os.obj
 0001:00084850       _dr_create_client_thread   71085850 f   os.obj
 0001:000848d0       _dr_mcontext_to_context    710858d0 f   os.obj
 0001:00084970       _dr_virtual_query          71085970 f   os.obj
 0001:00084ab0       _dump_mbi_addr             71085ab0 f   os.obj
 0001:00084be0       _dump_profile              71085be0 f   os.obj
 0001:00084c90       _dump_profile_range        71085c90 f   os.obj
 0001:00084d40       _earliest_inject_cleanup   71085d40 f   os.obj
 0001:00084d60       _earliest_inject_init      71085d60 f   os.obj
 0001:00084dc0       _early_inject_init         71085dc0 f   os.obj
 0001:00085610       _find_dynamo_library_vm_areas 71086610 f   os.obj
 0001:00085750       _find_executable_vm_areas  71086750 f   os.obj
 0001:00085920       _free_profile              71086920 f   os.obj
 0001:00085970       _get_allocation_base       71086970 f   os.obj
 0001:000859b0       _get_allocation_size       710869b0 f   os.obj
 0001:00085a80       _num_app_args              71086a80 f   os.obj
 0001:00085a80       _get_app_args              71086a80 f   os.obj
 0001:00085a90       _get_application_base      71086a90 f   os.obj
 0001:00085af0       _get_application_end       71086af0 f   os.obj
 0001:00085b60       _get_current_protection    71086b60 f   os.obj
 0001:00085c10       _get_dynamorio_dll_preferred_base 71086c10 f   os.obj
 0001:00085c70       _get_dynamorio_dll_start   71086c70 f   os.obj
 0001:00085cc0       _get_dynamorio_library_path 71086cc0 f   os.obj
 0001:00085cf0       _get_image_entry           71086cf0 f   os.obj
 0001:00085d50       _get_local_state           71086d50 f   os.obj
 0001:00085d60       _get_memory_info           71086d60 f   os.obj
 0001:00085ec0       _get_num_processors        71086ec0 f   os.obj
 0001:00085f10       _get_os_version            71086f10 f   os.obj
 0001:00085f20       _get_os_version_ex         71086f20 f   os.obj
 0001:00085f80       _get_stack_bounds          71086f80 f   os.obj
 0001:00086060       _get_thread_private_dcontext 71087060 f   os.obj
 0001:00086080       _get_timer_frequency       71087080 f   os.obj
 0001:00086740       _is_first_thread_in_new_process 71087740 f   os.obj
 0001:00086840       _is_in_dynamo_dll          71087840 f   os.obj
 0001:00086860       _is_new_thread_client_thread 71087860 f   os.obj
 0001:000868c0       _is_phandle_me             710878c0 f   os.obj
 0001:000868f0       _is_pid_me                 710878f0 f   os.obj
 0001:00086900       _is_thread_currently_native 71087900 f   os.obj
 0001:00086930       _is_user_address           71087930 f   os.obj
 0001:00086950       _load_shared_library       71087950 f   os.obj
 0001:000869b0       _lookup_library_routine    710879b0 f   os.obj
 0001:000869c0       _make_copy_on_writable     710879c0 f   os.obj
 0001:000869e0       _make_hookable             710879e0 f   os.obj
 0001:00086a20       _make_unhookable           71087a20 f   os.obj
 0001:00086a60       _make_unwritable           71087a60 f   os.obj
 0001:00086a80       _make_writable             71087a80 f   os.obj
 0001:00086aa0       _mark_page_as_guard        71087aa0 f   os.obj
 0001:00086b80       _maybe_inject_into_process 71087b80 f   os.obj
 0001:00086db0       _mcontext_to_os_context    71087db0 f   os.obj
 0001:00086e00       _memprot_to_osprot         71087e00 f   os.obj
 0001:00086e80       _merge_writecopy_pages     71087e80 f   os.obj
 0001:00086f10       _mutex_free_contended_event 71087f10 f   os.obj
 0001:00086f30       _mutex_notify_released_lock 71087f30 f   os.obj
 0001:00086f80       _mutex_wait_contended_lock 71087f80 f   os.obj
 0001:00087020       _os_check_option_compatibility 71088020 f   os.obj
 0001:000870a0       _os_close                  710880a0 f   os.obj
 0001:000870a0       _os_close_protected        710880a0 f   os.obj
 0001:000870a0       _nt_close_object_directory 710880a0 f   ntdll.obj
 0001:000870a0       _nt_close_event            710880a0 f   ntdll.obj
 0001:000870b0       _os_context_to_mcontext    710880b0 f   os.obj
 0001:00087170       _os_create_dir             71088170 f   os.obj
 0001:000871f0       _os_current_user_directory 710881f0 f   os.obj
 0001:00087310       _os_delete_dir             71088310 f   os.obj
 0001:00087360       _os_delete_file            71088360 f   os.obj
 0001:000873f0       _os_delete_file_w          710883f0 f   os.obj
 0001:00087450       _os_delete_mapped_file     71088450 f   os.obj
 0001:00087550       _os_dump_core              71088550 f   os.obj
 0001:00087750       _os_dump_core_live         71088750 f   os.obj
 0001:00087f60       _os_fast_exit              71088f60 f   os.obj
 0001:00088190       _os_file_exists            71089190 f   os.obj
 0001:000881f0       _os_find_free_code_space_in_libs 710891f0 f   os.obj
 0001:00088240       _os_flush                  71089240 f   os.obj
 0001:00088250       _os_get_current_dir        71089250 f   os.obj
 0001:000882a0       _os_get_disk_free_space    710892a0 f   os.obj
 0001:00088330       _os_get_file_size          71089330 f   os.obj
 0001:000883a0       _os_get_file_size_by_handle 710893a0 f   os.obj
 0001:000883e0       _os_heap_commit            710893e0 f   os.obj
 0001:00088410       _os_heap_decommit          71089410 f   os.obj
 0001:00088430       _os_heap_free              71089430 f   os.obj
 0001:00088450       _os_heap_get_commit_limit  71089450 f   os.obj
 0001:000884a0       _os_heap_reserve           710894a0 f   os.obj
 0001:000884e0       _os_heap_reserve_in_region 710894e0 f   os.obj
 0001:00088610       _os_local_state_offset     71089610 f   os.obj
 0001:00088620       _os_map_file               71089620 f   os.obj
 0001:000886f0       _os_open                   710896f0 f   os.obj
 0001:00088800       _os_open_directory         71089800 f   os.obj
 0001:00088870       _os_open_protected         71089870 f   os.obj
 0001:00088980       _os_page_size              71089980 f   os.obj
 0001:00088990       _os_process_not_under_dynamorio 71089990 f   os.obj
 0001:000889d0       _os_process_under_dynamorio_initiate 710899d0 f   os.obj
 0001:00088a10       _os_raise_exception        71089a10 f   os.obj
 0001:00088b30       _os_random_seed            71089b30 f   os.obj
 0001:00088b60       _os_raw_mem_alloc          71089b60 f   os.obj
 0001:00088bc0       _os_raw_mem_free           71089bc0 f   os.obj
 0001:00088c10       _os_read                   71089c10 f   os.obj
 0001:00088c50       _os_rename_file            71089c50 f   os.obj
 0001:00088d50       _os_rename_file_in_directory 71089d50 f   os.obj
 0001:00088e20       _os_seek                   71089e20 f   os.obj
 0001:00088ec0       _os_set_file_size          71089ec0 f   os.obj
 0001:00088ef0       _os_slow_exit              71089ef0 f   os.obj
 0001:00088f30       _os_take_over_all_unknown_threads 71089f30 f   os.obj
 0001:00089440       _os_take_over_mark_thread  7108a440 f   os.obj
 0001:00089730       _os_take_over_unmark_thread 7108a730 f   os.obj
 0001:00089a40       _os_tell                   7108aa40 f   os.obj
 0001:00089a70       _os_terminate              7108aa70 f   os.obj
 0001:00089a90       _os_terminate_common       7108aa90 f   os.obj
 0001:00089fe0       _os_terminate_with_code    7108afe0 f   os.obj
 0001:0008a000       _os_terminate_wow64_stack  7108b000 f   os.obj
 0001:0008a050       _os_terminate_wow64_write_args 7108b050 f   os.obj
 0001:0008a0d0       _os_thread_exit            7108b0d0 f   os.obj
 0001:0008a0e0       _os_thread_init            7108b0e0 f   os.obj
 0001:0008a1c0       _os_thread_not_under_dynamo 7108b1c0 f   os.obj
 0001:0008a1e0       _os_thread_resume          7108b1e0 f   os.obj
 0001:0008a200       _os_thread_sleep           7108b200 f   os.obj
 0001:0008a230       _os_thread_stack_exit      7108b230 f   os.obj
 0001:0008a2c0       _os_thread_suspend         7108b2c0 f   os.obj
 0001:0008a2e0       _os_thread_take_over_secondary 7108b2e0 f   os.obj
 0001:0008a320       _os_thread_take_over_suspended_native 7108b320 f   os.obj
 0001:0008a370       _os_thread_terminate       7108b370 f   os.obj
 0001:0008a390       _os_thread_under_dynamo    7108b390 f   os.obj
 0001:0008a3b0       _os_thread_yield           7108b3b0 f   os.obj
 0001:0008a3c0       _os_timeout                7108b3c0 f   os.obj
 0001:0008a3f0       _os_tls_calloc             7108b3f0 f   os.obj
 0001:0008a420       _os_tls_cfree              7108b420 f   os.obj
 0001:0008a440       _os_tls_offset             7108b440 f   os.obj
 0001:0008a450       _os_unmap_file             7108b450 f   os.obj
 0001:0008a470       _os_user_directory_supports_ownership 7108b470 f   os.obj
 0001:0008a5f0       _os_validate_user_owned    7108b5f0 f   os.obj
 0001:0008ace0       _os_wait_handle            7108bce0 f   os.obj
 0001:0008ad30       _os_write                  7108bd30 f   os.obj
 0001:0008ad70       _osprot_add_writecopy      7108bd70 f   os.obj
 0001:0008ada0       _osprot_replace_memprot    7108bda0 f   os.obj
 0001:0008ae10       _osprot_to_memprot         7108be10 f   os.obj
 0001:0008b170       _process_mmap              7108c170 f   os.obj
 0001:0008b270       _prot_is_executable        7108c270 f   os.obj
 0001:0008b360       _prot_is_writable          7108c360 f   os.obj
 0001:0008b390       _prot_string               7108c390 f   os.obj
 0001:0008b4a0       _query_memory_cur_base     7108c4a0 f   os.obj
 0001:0008b4c0       _query_memory_ex           7108c4c0 f   os.obj
 0001:0008b6b0       _reset_event               7108c6b0 f   os.obj
 0001:0008b6c0       _reset_profile             7108c6c0 f   os.obj
 0001:0008b6e0       _rwlock_notify_readers     7108c6e0 f   os.obj
 0001:0008b730       _rwlock_notify_writer      7108c730 f   os.obj
 0001:0008b780       _rwlock_wait_contended_reader 7108c780 f   os.obj
 0001:0008b7d0       _rwlock_wait_contended_writer 7108c7d0 f   os.obj
 0001:0008b820       _safe_read_ex              7108c820 f   os.obj
 0001:0008b860       _safe_write                7108c860 f   os.obj
 0001:0008b880       _safe_write_ex             7108c880 f   os.obj
 0001:0008b930       _set_protection            7108c930 f   os.obj
 0001:0008b980       _set_thread_private_dcontext 7108c980 f   os.obj
 0001:0008b9a0       _shared_library_bounds     7108c9a0 f   os.obj
 0001:0008b9d0       _should_inject_into_process 7108c9d0 f   os.obj
 0001:0008ba80       _signal_event              7108ca80 f   os.obj
 0001:0008ba90       _start_profile             7108ca90 f   os.obj
 0001:0008bab0       _stop_profile              7108cab0 f   os.obj
 0001:0008bad0       _sum_profile               7108cad0 f   os.obj
 0001:0008bb10       _sum_profile_range         7108cb10 f   os.obj
 0001:0008bbb0       _thread_attach_context_revert 7108cbb0 f   os.obj
 0001:0008bc30       _thread_attach_exit        7108cc30 f   os.obj
 0001:0008bd50       _thread_attach_setup       7108cd50 f   os.obj
 0001:0008bf40       _thread_attach_translate   7108cf40 f   os.obj
 0001:0008bfc0       _thread_get_context        7108cfc0 f   os.obj
 0001:0008bfe0       _thread_get_mcontext       7108cfe0 f   os.obj
 0001:0008c070       _thread_set_context        7108d070 f   os.obj
 0001:0008c090       _thread_set_mcontext       7108d090 f   os.obj
 0001:0008c130       _thread_set_self_context   7108d130 f   os.obj
 0001:0008c140       _thread_set_self_mcontext  7108d140 f   os.obj
 0001:0008c1c0       _translate_context         7108d1c0 f   os.obj
 0001:0008c220       _unload_shared_library     7108d220 f   os.obj
 0001:0008c240       _unmark_page_as_guard      7108d240 f   os.obj
 0001:0008c280       _wait_for_event            7108d280 f   os.obj
 0001:0008c2a0       _windows_version_init      7108d2a0 f   os.obj
 0001:0008d2e0       _dr_syscall_get_param      7108e2e0 f   syscall.obj
 0001:0008d310       _dr_syscall_get_result     7108e310 f   syscall.obj
 0001:0008d330       _dr_syscall_get_result_ex  7108e330 f   syscall.obj
 0001:0008d380       _dr_syscall_intercept_natively 7108e380 f   syscall.obj
 0001:0008d500       _dr_syscall_invoke_another 7108e500 f   syscall.obj
 0001:0008d5a0       _dr_syscall_set_param      7108e5a0 f   syscall.obj
 0001:0008d5f0       _dr_syscall_set_result     7108e5f0 f   syscall.obj
 0001:0008d5f0       _dr_syscall_set_sysnum     7108e5f0 f   syscall.obj
 0001:0008d620       _dr_syscall_set_result_ex  7108e620 f   syscall.obj
 0001:0008d690       _exit_syscall_trampolines  7108e690 f   syscall.obj
 0001:0008d910       _init_syscall_trampolines  7108e910 f   syscall.obj
 0001:0008da70       _is_cb_return_syscall      7108ea70 f   syscall.obj
 0001:0008dab0       _optimizable_system_call   7108eab0 f   syscall.obj
 0001:0008daf0       _post_system_call          7108eaf0 f   syscall.obj
 0001:0008f5f0       _pre_system_call           710905f0 f   syscall.obj
 0001:00091cc0       _syscall_interception_exit 71092cc0 f   syscall.obj
 0001:00091ce0       _syscall_interception_init 71092ce0 f   syscall.obj
 0001:00091d00       _syscall_uses_edx_param_base 71092d00 f   syscall.obj
 0001:00091d20       _syscall_uses_wow64_index  71092d20 f   syscall.obj
 0001:00091d30       _syscall_while_native      71092d30 f   syscall.obj
 0001:00092050       _callback_exit             71093050 f   callback.obj
 0001:00092080       _callback_interception_exit 71093080 f   callback.obj
 0001:000920c0       _callback_interception_init_finish 710930c0 f   callback.obj
 0001:00092230       _callback_interception_init_start 71093230 f   callback.obj
 0001:000923e0       _callback_interception_unintercept 710933e0 f   callback.obj
 0001:00092510       _callback_start_return     71093510 f   callback.obj
 0001:00094e40       _found_modified_code       71095e40 f   callback.obj
 0001:000950e0       _get_app_pc_from_intercept_pc 710960e0 f   callback.obj
 0001:00095130       _get_segment_base          71096130 f   callback.obj
 0001:00095130       _get_app_segment_base      71096130 f   callback.obj
 0001:00095170       _get_drmarker              71096170 f   callback.obj
 0001:00095180       _get_intercept_pc_from_app_pc 71096180 f   callback.obj
 0001:000951e0       _get_pc_after_call         710961e0 f   callback.obj
 0001:00095360       _get_prev_swapped_dcontext 71096360 f   callback.obj
 0001:00095d40       _intercept_asynch_for_thread 71096d40 f   callback.obj
 0001:00096a60       _intercept_load_dll        71097a60 f   callback.obj
 0001:00096ce0       _intercept_nt_continue     71097ce0 f   callback.obj
 0001:00097000       _intercept_nt_setcontext   71098000 f   callback.obj
 0001:000971b0       _intercept_syscall_wrapper 710981b0 f   callback.obj
 0001:00097420       _intercept_unload_dll      71098420 f   callback.obj
 0001:00097770       _internal_exception_info   71098770 f   callback.obj
 0001:00097870       _is_in_interception_buffer 71098870 f   callback.obj
 0001:00097890       _is_intercepted_app_pc     71098890 f   callback.obj
 0001:000979b0       _is_on_interception_initial_route 710989b0 f   callback.obj
 0001:00097a00       _is_part_of_interception   71098a00 f   callback.obj
 0001:00097a40       _is_syscall_trampoline     71098a40 f   callback.obj
 0001:00097bd0       _new_thread_is_waiting_for_dr_init 71098bd0 f   callback.obj
 0001:00097c10       _os_forge_exception        71098c10 f   callback.obj
 0001:00097d90       _remove_image_entry_trampoline 71098d90 f   callback.obj
 0001:00097dc0       _remove_trampoline         71098dc0 f   callback.obj
 0001:00097e30       _retakeover_after_native   71098e30 f   callback.obj
 0001:00097f00       _set_asynch_interception   71098f00 f   callback.obj
 0001:00098810       _take_over_primary_thread  71099810 f   callback.obj
 0001:00098980       _init_dr_marker            71099980 f   drmarker.obj
 0001:000989f0       _read_and_verify_dr_marker 710999f0 f   drmarker.obj
 0001:00098b40       _nt_wow64_query_info_process64 71099b40 f   ntdll_shared.obj
 0001:00098bd0       _nt_wow64_read_virtual_memory64 71099bd0 f   ntdll_shared.obj
 0001:00098c80       _read_remote_memory_maybe64 71099c80 f   ntdll_shared.obj
 0001:00098d30       _write_remote_memory_maybe64 71099d30 f   ntdll_shared.obj
 0001:00098de0       _bitmap_find_free_sequence 71099de0 f   ntdll.obj
 0001:00098ec0       _bitmap_mark_freed_sequence 71099ec0 f   ntdll.obj
 0001:00098f10       _bitmap_mark_taken_sequence 71099f10 f   ntdll.obj
 0001:00098f60       _check_sole_thread         71099f60 f   ntdll.obj
 0001:00099020       _close_file                7109a020 f   ntdll.obj
 0001:00099020       _reg_close_key             7109a020 f   ntdll.obj
 0001:00099030       _close_handle              7109a030 f   ntdll.obj
 0001:000990d0       _context_to_mcontext_new_thread 7109a0d0 f   ntdll.obj
 0001:000990d0       _context_to_mcontext       7109a0d0 f   ntdll.obj
 0001:00099240       _context_ymmh_saved_area   7109a240 f   ntdll.obj
 0001:000992b0       _convert_100ns_to_system_time 7109a2b0 f   ntdll.obj
 0001:00099370       _convert_system_time_to_100ns 7109a370 f   ntdll.obj
 0001:000993d0       _create_file               7109a3d0 f   ntdll.obj
 0001:00099440       _create_iocompletion       7109a440 f   ntdll.obj
 0001:00099790       _d_r_get_thread_id         7109a790 f   ntdll.obj
 0001:000997a0       _duplicate_handle          7109a7a0 f   ntdll.obj
 0001:00099860       _env_get_value             7109a860 f   ntdll.obj
 0001:00099910       _equal_sid                 7109a910 f   ntdll.obj
 0001:00099990       _free_library              7109a990 f   ntdll.obj
 0001:000999b0       _get_application_cmdline   7109a9b0 f   ntdll.obj
 0001:00099a20       _get_application_name      7109aa20 f   ntdll.obj
 0001:00099a60       _get_application_pid       7109aa60 f   ntdll.obj
 0001:00099aa0       _get_application_short_name 7109aaa0 f   ntdll.obj
 0001:00099ae0       _get_application_short_unqualified_name 7109aae0 f   ntdll.obj
 0001:00099b20       _get_current_user_SID      7109ab20 f   ntdll.obj
 0001:00099c30       _get_last_error            7109ac30 f   ntdll.obj
 0001:00099c40       _get_mapped_file_name      7109ac40 f   ntdll.obj
 0001:00099d20       _get_module_handle         7109ad20 f   ntdll.obj
 0001:00099d60       _get_ntdll_base            7109ad60 f   ntdll.obj
 0001:00099db0       _get_own_context           7109adb0 f   ntdll.obj
 0001:00099df0       _get_own_context_integer_control 7109adf0 f   ntdll.obj
 0001:00099e20       _get_own_peb               7109ae20 f   ntdll.obj
 0001:00099e70       _get_owner_sd              7109ae70 f   ntdll.obj
 0001:00099eb0       _get_peb                   7109aeb0 f   ntdll.obj
 0001:00099ef0       _get_peb_maybe64           7109aef0 f   ntdll.obj
 0001:00099f50       _get_primary_owner_token   7109af50 f   ntdll.obj
 0001:00099fa0       _get_process_id            7109afa0 f   ntdll.obj
 0001:00099fb0       _get_process_mem_stats     7109afb0 f   ntdll.obj
 0001:00099fe0       _get_process_param_buf     7109afe0 f   ntdll.obj
 0001:0009a010       _get_process_primary_SID   7109b010 f   ntdll.obj
 0001:0009a080       _get_stderr_handle         7109b080 f   ntdll.obj
 0001:0009a0e0       _get_stdin_handle          7109b0e0 f   ntdll.obj
 0001:0009a140       _get_stdout_handle         7109b140 f   ntdll.obj
 0001:0009a1a0       _get_teb                   7109b1a0 f   ntdll.obj
 0001:0009a1d0       _initialize_known_SID      7109b1d0 f   ntdll.obj
 0001:0009a200       _is_32bit_process          7109b200 f   ntdll.obj
 0001:0009a2d0       _is_in_ntdll               7109b2d0 f   ntdll.obj
 0001:0009a350       _is_wow64_process          7109b350 f   ntdll.obj
 0001:0009a3d0       _load_library              7109b3d0 f   ntdll.obj
 0001:0009a410       _mcontext_to_context       7109b410 f   ntdll.obj
 0001:0009a600       _nt_allocate_virtual_memory 7109b600 f   ntdll.obj
 0001:0009a620       _nt_clear_event            7109b620 f   ntdll.obj
 0001:0009a630       _nt_commit_virtual_memory  7109b630 f   ntdll.obj
 0001:0009a6f0       _nt_continue               7109b6f0 f   ntdll.obj
 0001:0009a780       _nt_create_event           7109b780 f   ntdll.obj
 0001:0009a7b0       _nt_create_file            7109b7b0 f   ntdll.obj
 0001:0009a9d0       _nt_create_module_file     7109b9d0 f   ntdll.obj
 0001:0009aa00       _nt_create_object_directory 7109ba00 f   ntdll.obj
 0001:0009aa70       _nt_create_profile         7109ba70 f   ntdll.obj
 0001:0009aaa0       _nt_create_section         7109baa0 f   ntdll.obj
 0001:0009abb0       _nt_decommit_virtual_memory 7109bbb0 f   ntdll.obj
 0001:0009ac60       _nt_delete_file            7109bc60 f   ntdll.obj
 0001:0009acd0       _nt_flush_file_buffers     7109bcd0 f   ntdll.obj
 0001:0009acf0       _nt_free_virtual_memory    7109bcf0 f   ntdll.obj
 0001:0009adb0       _nt_get_context            7109bdb0 f   ntdll.obj
 0001:0009ae40       _nt_get_context_size       7109be40 f   ntdll.obj
 0001:0009ae60       _nt_get_drive_map          7109be60 f   ntdll.obj
 0001:0009ae90       _nt_get_handle_access_rights 7109be90 f   ntdll.obj
 0001:0009aec0       _nt_get_object_name        7109bec0 f   ntdll.obj
 0001:0009aee0       _nt_get_symlink_target     7109bee0 f   ntdll.obj
 0001:0009af60       _nt_initialize_context     7109bf60 f   ntdll.obj
 0001:0009afb0       _nt_initialize_shared_directory 7109bfb0 f   ntdll.obj
 0001:0009b070       _nt_is_thread_terminating  7109c070 f   ntdll.obj
 0001:0009b120       _nt_messagebox             7109c120 f   ntdll.obj
 0001:0009b190       _nt_open_file              7109c190 f   ntdll.obj
 0001:0009b210       _nt_open_object_directory  7109c210 f   ntdll.obj
 0001:0009b290       _nt_open_section           7109c290 f   ntdll.obj
 0001:0009b370       _nt_pipe_transceive        7109c370 f   ntdll.obj
 0001:0009b410       _nt_query_file_info        7109c410 f   ntdll.obj
 0001:0009b440       _nt_query_performance_counter 7109c440 f   ntdll.obj
 0001:0009b460       _nt_query_profile_interval 7109c460 f   ntdll.obj
 0001:0009b480       _nt_query_security_object  7109c480 f   ntdll.obj
 0001:0009b4a0       _nt_query_value_key        7109c4a0 f   ntdll.obj
 0001:0009b4c0       _nt_query_volume_info      7109c4c0 f   ntdll.obj
 0001:0009b4f0       _nt_raw_CreateFile         7109c4f0 f   ntdll.obj
 0001:0009b5d0       _nt_raw_CreateKey          7109c5d0 f   ntdll.obj
 0001:0009b690       _nt_raw_MapViewOfSection   7109c690 f   ntdll.obj
 0001:0009b770       _nt_raw_OpenFile           7109c770 f   ntdll.obj
 0001:0009b830       _nt_raw_OpenKey            7109c830 f   ntdll.obj
 0001:0009b8d0       _nt_raw_OpenKeyEx          7109c8d0 f   ntdll.obj
 0001:0009b960       _nt_raw_OpenProcess        7109c960 f   ntdll.obj
 0001:0009ba00       _nt_raw_OpenProcessToken   7109ca00 f   ntdll.obj
 0001:0009baa0       _nt_raw_OpenProcessTokenEx 7109caa0 f   ntdll.obj
 0001:0009bb30       _nt_raw_OpenThread         7109cb30 f   ntdll.obj
 0001:0009bbd0       _nt_raw_OpenThreadToken    7109cbd0 f   ntdll.obj
 0001:0009bc70       _nt_raw_OpenThreadTokenEx  7109cc70 f   ntdll.obj
 0001:0009bd00       _nt_raw_QueryAttributesFile 7109cd00 f   ntdll.obj
 0001:0009bd90       _nt_raw_QueryFullAttributesFile 7109cd90 f   ntdll.obj
 0001:0009be20       _nt_raw_SetInformationFile 7109ce20 f   ntdll.obj
 0001:0009bed0       _nt_raw_SetInformationThread 7109ced0 f   ntdll.obj
 0001:0009bf70       _nt_raw_UnmapViewOfSection 7109cf70 f   ntdll.obj
 0001:0009c000       _nt_raw_close              7109d000 f   ntdll.obj
 0001:0009c090       _nt_raw_read_virtual_memory 7109d090 f   ntdll.obj
 0001:0009c0b0       _nt_raw_write_virtual_memory 7109d0b0 f   ntdll.obj
 0001:0009c160       _nt_read_virtual_memory    7109d160 f   ntdll.obj
 0001:0009c180       _nt_remote_allocate_virtual_memory 7109d180 f   ntdll.obj
 0001:0009c240       _nt_remote_free_virtual_memory 7109d240 f   ntdll.obj
 0001:0009c300       _nt_remote_protect_virtual_memory 7109d300 f   ntdll.obj
 0001:0009c3d0       _nt_remote_query_virtual_memory 7109d3d0 f   ntdll.obj
 0001:0009c490       _nt_set_context            7109d490 f   ntdll.obj
 0001:0009c520       _nt_set_event              7109d520 f   ntdll.obj
 0001:0009c530       _nt_set_file_info          7109d530 f   ntdll.obj
 0001:0009c560       _nt_set_information_process_for_app 7109d560 f   ntdll.obj
 0001:0009c600       _nt_set_profile_interval   7109d600 f   ntdll.obj
 0001:0009c610       _nt_sleep                  7109d610 f   ntdll.obj
 0001:0009c630       _nt_start_profile          7109d630 f   ntdll.obj
 0001:0009c640       _nt_stop_profile           7109d640 f   ntdll.obj
 0001:0009c650       _nt_terminate_process      7109d650 f   ntdll.obj
 0001:0009c6f0       _nt_terminate_process_for_app 7109d6f0 f   ntdll.obj
 0001:0009c780       _nt_terminate_thread       7109d780 f   ntdll.obj
 0001:0009c820       _nt_thread_iterator_next   7109d820 f   ntdll.obj
 0001:0009c850       _nt_thread_resume          7109d850 f   ntdll.obj
 0001:0009c8f0       _nt_thread_suspend         7109d8f0 f   ntdll.obj
 0001:0009c990       _nt_wait_event_with_timeout 7109d990 f   ntdll.obj
 0001:0009ca40       _nt_write_virtual_memory   7109da40 f   ntdll.obj
 0001:0009cb00       _nt_yield                  7109db00 f   ntdll.obj
 0001:0009cb10       _ntdll_exit                7109db10 f   ntdll.obj
 0001:0009cb40       _ntdll_init                7109db40 f   ntdll.obj
 0001:0009cc10       _open_pipe                 7109dc10 f   ntdll.obj
 0001:0009cdc0       _our_create_thread         7109ddc0 f   ntdll.obj
 0001:0009d110       _our_create_thread_have_stack 7109e110 f   ntdll.obj
 0001:0009d1d0       _our_create_thread_wrapper 7109e1d0 f   ntdll.obj
 0001:0009d210       _process_handle_from_id    7109e210 f   ntdll.obj
 0001:0009d340       _process_id_from_handle    7109e340 f   ntdll.obj
 0001:0009d380       _process_id_from_thread_handle 7109e380 f   ntdll.obj
 0001:0009d3b0       _protect_virtual_memory    7109e3b0 f   ntdll.obj
 0001:0009d480       _query_full_attributes_file 7109e480 f   ntdll.obj
 0001:0009d570       _query_seg_descriptor      7109e570 f   ntdll.obj
 0001:0009d620       _query_system_info         7109e620 f   ntdll.obj
 0001:0009d650       _query_system_time         7109e650 f   ntdll.obj
 0001:0009d7e0       _query_time_100ns          7109e7e0 f   ntdll.obj
 0001:0009d800       _query_time_micros         7109e800 f   ntdll.obj
 0001:0009d870       _query_time_millis         7109e870 f   ntdll.obj
 0001:0009d8f0       _query_time_seconds        7109e8f0 f   ntdll.obj
 0001:0009d9e0       _query_virtual_memory      7109e9e0 f   ntdll.obj
 0001:0009dac0       _query_win32_start_addr    7109eac0 f   ntdll.obj
 0001:0009db70       _read_file                 7109eb70 f   ntdll.obj
 0001:0009dbd0       _reg_create_key            7109ebd0 f   ntdll.obj
 0001:0009dce0       _reg_enum_key              7109ece0 f   ntdll.obj
 0001:0009dd40       _reg_enum_value            7109ed40 f   ntdll.obj
 0001:0009dda0       _reg_open_key              7109eda0 f   ntdll.obj
 0001:0009de90       _reg_query_value           7109ee90 f   ntdll.obj
 0001:0009df30       _reg_set_dword_key_value   7109ef30 f   ntdll.obj
 0001:0009e020       _reg_set_key_value         7109f020 f   ntdll.obj
 0001:0009e140       _set_last_error            7109f140 f   ntdll.obj
 0001:0009e160       _set_ntdll_base            7109f160 f   ntdll.obj
 0001:0009e180       _syscalls_init             7109f180 f   ntdll.obj
 0001:0009e440       _syscalls_init_options_read 7109f440 f   ntdll.obj
 0001:0009e470       _thread_handle_from_id     7109f470 f   ntdll.obj
 0001:0009e5a0       _thread_id_from_handle     7109f5a0 f   ntdll.obj
 0001:0009e820       _tls_calloc                7109f820 f   ntdll.obj
 0001:0009e840       _tls_cfree                 7109f840 f   ntdll.obj
 0001:0009ea90       _use_ki_syscall_routines   7109fa90 f   ntdll.obj
 0001:0009eb00       _wchar_to_unicode          7109fb00 f   ntdll.obj
 0001:0009eb20       _write_file                7109fb20 f   ntdll.obj
 0001:0009f480       _inject_init               710a0480 f   inject.obj
 0001:0009f4c0       _inject_into_new_process   710a04c0 f   inject.obj
 0001:0009f950       _inject_into_thread        710a0950 f   inject.obj
 0001:0009fd30       _double_strrchr            710a0d30 f   inject_shared.obj
 0001:0009fd60       _double_wcsrchr            710a0d60 f   inject_shared.obj
 0001:0009fdb0       _get_commandline_qualifier 710a0db0 f   inject_shared.obj
 0001:0009fef0       _get_own_qualified_name    710a0ef0 f   inject_shared.obj
 0001:0009ff20       _get_own_short_qualified_name 710a0f20 f   inject_shared.obj
 0001:0009ff50       _get_own_short_unqualified_name 710a0f50 f   inject_shared.obj
 0001:0009ffd0       _get_own_unqualified_name  710a0fd0 f   inject_shared.obj
 0001:000a0000       _get_parameter_from_registry 710a1000 f   inject_shared.obj
 0001:000a0020       _get_process_imgname_cmdline 710a1020 f   inject_shared.obj
 0001:000a0250       _get_process_parameter     710a1250 f   inject_shared.obj
 0001:000a0710       _systemwide_inject_enabled 710a1710 f   inject_shared.obj
 0001:000a0810       _systemwide_should_inject  710a1810 f   inject_shared.obj
 0001:000a0890       _w_get_short_name          710a1890 f   inject_shared.obj
 0001:000a08d0       _wchar_to_char             710a18d0 f   inject_shared.obj
 0001:000a0920       _check_for_unsupported_modules 710a1920 f   module.obj
 0001:000a0a00       _dr_module_import_iterator_hasnext 710a1a00 f   module.obj
 0001:000a0a20       _dr_module_import_iterator_next 710a1a20 f   module.obj
 0001:000a0a90       _dr_module_import_iterator_start 710a1a90 f   module.obj
 0001:000a0b40       _dr_module_import_iterator_stop 710a1b40 f   module.obj
 0001:000a0b60       _dr_symbol_import_iterator_hasnext 710a1b60 f   module.obj
 0001:000a0b80       _dr_symbol_import_iterator_next 710a1b80 f   module.obj
 0001:000a0bc0       _dr_symbol_import_iterator_start 710a1bc0 f   module.obj
 0001:000a0cc0       _dr_symbol_import_iterator_stop 710a1cc0 f   module.obj
 0001:000a0da0       _free_module_names         710a1da0 f   module.obj
 0001:000a0df0       _get_IAT_section_bounds    710a1df0 f   module.obj
 0001:000a1190       _get_dll_short_name        710a2190 f   module.obj
 0001:000a1190       _get_shared_lib_name       710a2190 f   module.obj
 0001:000a11d0       _get_executable_segment    710a21d0 f   module.obj
 0001:000a1300       _get_ldr_module_by_pc      710a2300 f   module.obj
 0001:000a1360       _get_module_base           710a2360 f   module.obj
 0001:000a1390       _get_module_characteristics 710a2390 f   module.obj
 0001:000a13a0       _get_module_company_name   710a23a0 f   module.obj
 0001:000a13f0       _get_module_entry          710a23f0 f   module.obj
 0001:000a1410       _get_module_info_pe        710a2410 f   module.obj
 0001:000a14e0       _get_module_name           710a24e0 f   module.obj
 0001:000a1520       _get_module_preferred_base 710a2520 f   module.obj
 0001:000a1580       _get_module_preferred_base_safe 710a2580 f   module.obj
 0001:000a1b30       _get_module_short_name_uncached 710a2b30 f   module.obj
 0001:000a1bd0       _get_named_section_bounds  710a2bd0 f   module.obj
 0001:000a20c0       _is_IAT                    710a30c0 f   module.obj
 0001:000a2160       _is_in_IAT                 710a3160 f   module.obj
 0001:000a2470       _is_module_patch_region    710a3470 f   module.obj
 0001:000a26b0       _is_range_in_code_section  710a36b0 f   module.obj
 0001:000a27c0       _is_readable_pe_base       710a37c0 f   module.obj
 0001:000a2870       _module_contents_compare   710a3870 f   module.obj
 0001:000a2d00       _module_dump_pe_file       710a3d00 f   module.obj
 0001:000a2e90       _module_file_relocatable   710a3e90 f   module.obj
 0001:000a2ee0       _module_get_header_size    710a3ee0 f   module.obj
 0001:000a2ef0       _module_get_nth_segment    710a3ef0 f   module.obj
 0001:000a2f30       _module_get_tls_info       710a3f30 f   module.obj
 0001:000a2fa0       _module_has_cor20_header   710a3fa0 f   module.obj
 0001:000a3000       _module_is_32bit           710a4000 f   module.obj
 0001:000a3040       _module_is_64bit           710a4040 f   module.obj
 0001:000a3080       _module_pc_section_lookup  710a4080 f   module.obj
 0001:000a32e0       _module_rebase             710a42e0 f   module.obj
 0001:000a3540       _os_get_module_info        710a4540 f   module.obj
 0001:000a3600       _os_module_area_init       710a4600 f   module.obj
 0001:000a37b0       _os_module_area_reset      710a47b0 f   module.obj
 0001:000a3830       _os_module_cmp_IAT_code    710a4830 f   module.obj
 0001:000a3910       _os_module_free_IAT_code   710a4910 f   module.obj
 0001:000a3960       _os_module_has_dynamic_base 710a4960 f   module.obj
 0001:000a3980       _os_module_store_IAT_code  710a4980 f   module.obj
 0001:000a3a10       _os_modules_exit           710a4a10 f   module.obj
 0001:000a3a30       _os_modules_init           710a4a30 f   module.obj
 0001:000a3b40       _print_module_section_info 710a4b40 f   module.obj
 0001:000a3c20       _print_modules_ldrlist_and_ourlist 710a4c20 f   module.obj
 0001:000a4130       _section_to_file_add       710a5130 f   module.obj
 0001:000a41f0       _section_to_file_add_wide  710a51f0 f   module.obj
 0001:000a4230       _section_to_file_lookup    710a5230 f   module.obj
 0001:000a42a0       _section_to_file_remove    710a52a0 f   module.obj
 0001:000a4300       _d_r_get_proc_address      710a5300 f   module_shared.obj
 0001:000a4320       _dr_symbol_export_iterator_hasnext 710a5320 f   module_shared.obj
 0001:000a4340       _dr_symbol_export_iterator_next 710a5340 f   module_shared.obj
 0001:000a43e0       _dr_symbol_export_iterator_start 710a53e0 f   module_shared.obj
 0001:000a44a0       _dr_symbol_export_iterator_stop 710a54a0 f   module_shared.obj
 0001:000a44c0       _find_remote_dll_base      710a54c0 f   module_shared.obj
 0001:000a4790       _free_library_64           710a5790 f   module_shared.obj
 0001:000a4a40       _get_module_exports_directory 710a5a40 f   module_shared.obj
 0001:000a4b80       _get_proc_address_64       710a5b80 f   module_shared.obj
 0001:000a4da0       _get_proc_address_by_ordinal 710a5da0 f   module_shared.obj
 0001:000a4fc0       _get_proc_address_ex       710a5fc0 f   module_shared.obj
 0001:000a4fe0       _get_proc_address_resolve_forward 710a5fe0 f   module_shared.obj
 0001:000a50d0       _get_remote_proc_address   710a60d0 f   module_shared.obj
 0001:000a5370       _get_remote_process_entry  710a6370 f   module_shared.obj
 0001:000a5460       _is_readable_without_exception 710a6460 f   module_shared.obj
 0001:000a54d0       _load_library_64           710a64d0 f   module_shared.obj
 0001:000a56a0       _nt_get_context64_size     710a66a0 f   module_shared.obj
 0001:000a5810       _remote_protect_virtual_memory_maybe64 710a6810 f   module_shared.obj
 0001:000a58f0       _thread_get_context_64     710a68f0 f   module_shared.obj
 0001:000a5990       _thread_set_context_64     710a6990 f   module_shared.obj
 0001:000a5a30       _diagnost_exit             710a6a30 f   diagnost.obj
 0001:000a5b80       _get_system_processes      710a6b80 f   diagnost.obj
 0001:000a6430       _report_diagnostics        710a7430 f   diagnost.obj
 0001:000a7240       _aslr_exit                 710a8240 f   aslr.obj
 0001:000a7330       _aslr_force_dynamorio_rebase 710a8330 f   aslr.obj
 0001:000a7700       _aslr_init                 710a8700 f   aslr.obj
 0001:000a7af0       _aslr_is_handle_KnownDlls  710a8af0 f   aslr.obj
 0001:000a8630       _aslr_possible_preferred_address 710a9630 f   aslr.obj
 0001:000a8680       _aslr_post_process_allocate_virtual_memory 710a9680 f   aslr.obj
 0001:000a8750       _aslr_post_process_create_or_open_section 710a9750 f   aslr.obj
 0001:000a8890       _aslr_post_process_mapview 710a9890 f   aslr.obj
 0001:000a8d30       _aslr_pre_process_free_virtual_memory 710a9d30 f   aslr.obj
 0001:000a8d90       _aslr_pre_process_mapview  710a9d90 f   aslr.obj
 0001:000a8e60       _aslr_pre_process_unmapview 710a9e60 f   aslr.obj
 0001:000a9300       _aslr_recreate_known_dll_file 710aa300 f   aslr.obj
 0001:000a94e0       _aslr_retry_map_syscall    710aa4e0 f   aslr.obj
 0001:000a9790       _get_file_short_name       710aa790 f   aslr.obj
 0001:000a9870       _bootstrap_protect_virtual_memory 710aa870 f   loader.obj
 0001:000a9920       _check_app_stack_limit     710aa920 f   loader.obj
 0001:000a99d0       _get_private_peb           710aa9d0 f   loader.obj
 0001:000aa630       _os_loader_exit            710ab630 f   loader.obj
 0001:000aa6e0       _os_loader_init_epilogue   710ab6e0 f   loader.obj
 0001:000aa790       _os_loader_init_prologue   710ab790 f   loader.obj
 0001:000aaaa0       _os_loader_thread_exit     710abaa0 f   loader.obj
 0001:000aaaf0       _os_loader_thread_init_epilogue 710abaf0 f   loader.obj
 0001:000aab30       _os_loader_thread_init_prologue 710abb30 f   loader.obj
 0001:000aad40       _os_swap_context           710abd40 f   loader.obj
 0001:000aad60       _os_using_app_state        710abd60 f   loader.obj
 0001:000aadd0       _privload_add_areas        710abdd0 f   loader.obj
 0001:000aae10       _privload_attach_parent_console 710abe10 f   loader.obj
 0001:000aae50       _privload_bootstrap_dynamorio_imports 710abe50 f   loader.obj
 0001:000ab1b0       _privload_call_entry       710ac1b0 f   loader.obj
 0001:000ab460       _privload_console_share    710ac460 f   loader.obj
 0001:000abc60       _privload_load_finalized   710acc60 f   loader.obj
 0001:000abcf0       _privload_load_private_library 710accf0 f   loader.obj
 0001:000abf60       _privload_map_and_relocate 710acf60 f   loader.obj
 0001:000ac080       _privload_os_finalize      710ad080 f   loader.obj
 0001:000ac2e0       _privload_process_imports  710ad2e0 f   loader.obj
 0001:000ac660       _privload_redirect_setup   710ad660 f   loader.obj
 0001:000ac690       _privload_remove_areas     710ad690 f   loader.obj
 0001:000ac6f0       _privload_unload_imports   710ad6f0 f   loader.obj
 0001:000ac7b0       _privload_unmap_file       710ad7b0 f   loader.obj
 0001:000ac7d0       _restore_peb_pointer_for_thread 710ad7d0 f   loader.obj
 0001:000ac8e0       _should_swap_teb_nonstack_fields 710ad8e0 f   loader.obj
 0001:000ac8e0       _should_swap_peb_pointer   710ad8e0 f   loader.obj
 0001:000ac900       _should_swap_teb_static_tls 710ad900 f   loader.obj
 0001:000ac930       _swap_peb_pointer          710ad930 f   loader.obj
 0001:000acbe0       _drwinapi_exit             710adbe0 f   drwinapi.obj
 0001:000acc00       _drwinapi_init             710adc00 f   drwinapi.obj
 0001:000acc20       _drwinapi_onload           710adc20 f   drwinapi.obj
 0001:000acc90       _drwinapi_redirect_getprocaddr 710adc90 f   drwinapi.obj
 0001:000acda0       _drwinapi_redirect_imports 710adda0 f   drwinapi.obj
 0001:000acfa0       _ntstatus_to_last_error    710adfa0 f   drwinapi.obj
 0001:000ad1d0       _redirect_ignore_arg12@12  710ae1d0 f   drwinapi.obj
 0001:000ad1e0       _redirect_ignore_arg4@4    710ae1e0 f   drwinapi.obj
 0001:000ad1f0       _redirect_ignore_arg8@8    710ae1f0 f   drwinapi.obj
 0001:000ad200       _redirect_RtlCreateHeap@24 710ae200 f   ntdll_redir.obj
 0001:000ad220       _redirect_RtlDestroyHeap@4 710ae220 f   ntdll_redir.obj
 0001:000ad280       _redirect_RtlAllocateHeap@12 710ae280 f   ntdll_redir.obj
 0001:000ad300       _redirect_RtlReAllocateHeap@16 710ae300 f   ntdll_redir.obj
 0001:000ad420       _redirect_RtlFreeHeap@12   710ae420 f   ntdll_redir.obj
 0001:000ad4a0       _redirect_RtlSizeHeap@12   710ae4a0 f   ntdll_redir.obj
 0001:000ad520       _redirect_RtlValidateHeap@12 710ae520 f   ntdll_redir.obj
 0001:000ad580       _redirect_RtlLockHeap@4    710ae580 f   ntdll_redir.obj
 0001:000ad5d0       _redirect_RtlUnlockHeap@4  710ae5d0 f   ntdll_redir.obj
 0001:000ad620       _redirect_RtlSetHeapInformation@16 710ae620 f   ntdll_redir.obj
 0001:000ad630       _redirect_RtlFreeUnicodeString@4 710ae630 f   ntdll_redir.obj
 0001:000ad6e0       _redirect_RtlFreeAnsiString@4 710ae6e0 f   ntdll_redir.obj
 0001:000ad790       _redirect_RtlFreeOemString@4 710ae790 f   ntdll_redir.obj
 0001:000ad840       _redirect_RtlFlsAlloc@8    710ae840 f   ntdll_redir.obj
 0001:000ad8d0       _redirect_RtlFlsFree@4     710ae8d0 f   ntdll_redir.obj
 0001:000ad970       _redirect_RtlProcessFlsData@4 710ae970 f   ntdll_redir.obj
 0001:000adaa0       _redirect_NtCreateFile@44  710aeaa0 f   ntdll_redir.obj
 0001:000adad0       _redirect_NtCreateKey@28   710aead0 f   ntdll_redir.obj
 0001:000adb00       _redirect_NtMapViewOfSection@40 710aeb00 f   ntdll_redir.obj
 0001:000adb30       _redirect_NtOpenFile@24    710aeb30 f   ntdll_redir.obj
 0001:000adb60       _redirect_NtOpenKey@12     710aeb60 f   ntdll_redir.obj
 0001:000adb80       _redirect_NtOpenKeyEx@16   710aeb80 f   ntdll_redir.obj
 0001:000adba0       _redirect_NtOpenProcess@16 710aeba0 f   ntdll_redir.obj
 0001:000adbc0       _redirect_NtOpenProcessToken@12 710aebc0 f   ntdll_redir.obj
 0001:000adbe0       _redirect_NtOpenProcessTokenEx@16 710aebe0 f   ntdll_redir.obj
 0001:000adc00       _redirect_NtOpenThread@16  710aec00 f   ntdll_redir.obj
 0001:000adc20       _redirect_NtOpenThreadToken@16 710aec20 f   ntdll_redir.obj
 0001:000adc40       _redirect_NtOpenThreadTokenEx@20 710aec40 f   ntdll_redir.obj
 0001:000adc60       _redirect_NtQueryAttributesFile@8 710aec60 f   ntdll_redir.obj
 0001:000adc80       _redirect_NtQueryFullAttributesFile@8 710aec80 f   ntdll_redir.obj
 0001:000adca0       _redirect_NtSetInformationFile@20 710aeca0 f   ntdll_redir.obj
 0001:000adcc0       _redirect_NtSetInformationThread@16 710aecc0 f   ntdll_redir.obj
 0001:000adce0       _redirect_NtUnmapViewOfSection@8 710aece0 f   ntdll_redir.obj
 0001:000add00       _redirect_RtlInitializeCriticalSection@4 710aed00 f   ntdll_redir.obj
 0001:000add70       _redirect_RtlInitializeCriticalSectionAndSpinCount@8 710aed70 f   ntdll_redir.obj
 0001:000addf0       _redirect_RtlInitializeCriticalSectionEx@12 710aedf0 f   ntdll_redir.obj
 0001:000ade80       _redirect_RtlDeleteCriticalSection@4 710aee80 f   ntdll_redir.obj
 0001:000adef0       _redirect_LdrGetProcedureAddress@16 710aeef0 f   ntdll_redir.obj
 0001:000adf30       _redirect_LdrLoadDll@16    710aef30 f   ntdll_redir.obj
 0001:000adfb0       _redirect_RtlPcToFileHeader@8 710aefb0 f   ntdll_redir.obj
 0001:000ae010       _ntdll_redir_exit          710af010 f   ntdll_redir.obj
 0001:000ae040       _ntdll_redir_fls_exit      710af040 f   ntdll_redir.obj
 0001:000ae080       _ntdll_redir_fls_init      710af080 f   ntdll_redir.obj
 0001:000ae110       _ntdll_redir_fls_thread_exit 710af110 f   ntdll_redir.obj
 0001:000ae150       _ntdll_redir_init          710af150 f   ntdll_redir.obj
 0001:000ae260       _ntdll_redir_lookup        710af260 f   ntdll_redir.obj
 0001:000ae320       _kernel32_redir_exit       710af320 f   kernel32_redir.obj
 0001:000ae340       _kernel32_redir_init       710af340 f   kernel32_redir.obj
 0001:000ae3f0       _kernel32_redir_lookup     710af3f0 f   kernel32_redir.obj
 0001:000ae450       _kernel32_redir_onload     710af450 f   kernel32_redir.obj
 0001:000ae500       _kernel32_redir_onload_proc 710af500 f   kernel32_proc.obj
 0001:000ae560       _redirect_ExitProcess@4    710af560 f   kernel32_proc.obj
 0001:000ae580       _redirect_FlsAlloc@4       710af580 f   kernel32_proc.obj
 0001:000ae5c0       _redirect_FlsFree@4        710af5c0 f   kernel32_proc.obj
 0001:000ae5f0       _redirect_FlsGetValue@4    710af5f0 f   kernel32_proc.obj
 0001:000ae630       _redirect_FlsSetValue@8    710af630 f   kernel32_proc.obj
 0001:000ae6a0       _redirect_GetCurrentThread@0 710af6a0 f   kernel32_proc.obj
 0001:000ae6b0       _redirect_GetCurrentThreadId@0 710af6b0 f   kernel32_proc.obj
 0001:000ae770       _kernel32_redir_onload_lib 710af770 f   kernel32_lib.obj
 0001:000ae7e0       _redirect_FreeLibrary@4    710af7e0 f   kernel32_lib.obj
 0001:000ae800       _redirect_GetModuleFileNameA@12 710af800 f   kernel32_lib.obj
 0001:000ae890       _redirect_GetModuleFileNameW@12 710af890 f   kernel32_lib.obj
 0001:000ae920       _redirect_GetModuleHandleA@4 710af920 f   kernel32_lib.obj
 0001:000ae970       _redirect_GetModuleHandleW@4 710af970 f   kernel32_lib.obj
 0001:000ae9f0       _redirect_GetProcAddress@8 710af9f0 f   kernel32_lib.obj
 0001:000aea30       _redirect_LoadLibraryA@4   710afa30 f   kernel32_lib.obj
 0001:000aea50       _redirect_LoadLibraryExA@12 710afa50 f   kernel32_lib.obj
 0001:000aea70       _redirect_LoadLibraryExW@12 710afa70 f   kernel32_lib.obj
 0001:000aead0       _redirect_LoadLibraryW@4   710afad0 f   kernel32_lib.obj
 0001:000aeb30       _kernel32_redir_exit_mem   710afb30 f   kernel32_mem.obj
 0001:000aeb40       _kernel32_redir_init_mem   710afb40 f   kernel32_mem.obj
 0001:000aeb50       _redirect_DecodePointer@4  710afb50 f   kernel32_mem.obj
 0001:000aeb50       _redirect_EncodePointer@4  710afb50 f   kernel32_mem.obj
 0001:000aeb60       _redirect_GetProcessHeap@0 710afb60 f   kernel32_mem.obj
 0001:000aeb70       _redirect_HeapAlloc@12     710afb70 f   kernel32_mem.obj
 0001:000aeb80       _redirect_HeapCompact@8    710afb80 f   kernel32_mem.obj
 0001:000aeb90       _redirect_HeapCreate@12    710afb90 f   kernel32_mem.obj
 0001:000aebc0       _redirect_HeapDestroy@4    710afbc0 f   kernel32_mem.obj
 0001:000aebd0       _redirect_HeapFree@12      710afbd0 f   kernel32_mem.obj
 0001:000aebe0       _redirect_HeapReAlloc@16   710afbe0 f   kernel32_mem.obj
 0001:000aebf0       _redirect_HeapSetInformation@16 710afbf0 f   kernel32_mem.obj
 0001:000aec30       _redirect_HeapSize@12      710afc30 f   kernel32_mem.obj
 0001:000aec40       _redirect_HeapValidate@12  710afc40 f   kernel32_mem.obj
 0001:000aec50       _redirect_HeapWalk@8       710afc50 f   kernel32_mem.obj
 0001:000aec70       _redirect_IsBadReadPtr@8   710afc70 f   kernel32_mem.obj
 0001:000aeca0       _redirect_LocalAlloc@8     710afca0 f   kernel32_mem.obj
 0001:000aed20       _redirect_LocalFlags@4     710afd20 f   kernel32_mem.obj
 0001:000aed90       _redirect_LocalFree@4      710afd90 f   kernel32_mem.obj
 0001:000aedf0       _redirect_LocalHandle@4    710afdf0 f   kernel32_mem.obj
 0001:000aee10       _redirect_LocalLock@4      710afe10 f   kernel32_mem.obj
 0001:000aee50       _redirect_LocalReAlloc@12  710afe50 f   kernel32_mem.obj
 0001:000aef90       _redirect_LocalSize@4      710aff90 f   kernel32_mem.obj
 0001:000aefe0       _redirect_LocalUnlock@4    710affe0 f   kernel32_mem.obj
 0001:000af070       _redirect_ReadProcessMemory@20 710b0070 f   kernel32_mem.obj
 0001:000af0c0       _redirect_VirtualAlloc@16  710b00c0 f   kernel32_mem.obj
 0001:000af150       _redirect_VirtualFree@12   710b0150 f   kernel32_mem.obj
 0001:000af1b0       _redirect_VirtualProtect@16 710b01b0 f   kernel32_mem.obj
 0001:000af260       _redirect_VirtualQuery@12  710b0260 f   kernel32_mem.obj
 0001:000af2b0       _redirect_VirtualQueryEx@16 710b02b0 f   kernel32_mem.obj
 0001:000afb60       _kernel32_redir_exit_file  710b0b60 f   kernel32_file.obj
 0001:000afb80       _kernel32_redir_init_file  710b0b80 f   kernel32_file.obj
 0001:000afc50       _kernel32_redir_onload_file 710b0c50 f   kernel32_file.obj
 0001:000afc70       _open_dir_from_path        710b0c70 f   kernel32_file.obj
 0001:000afd50       _redirect_FindClose@4      710b0d50 f   kernel32_file.obj
 0001:000afd50       _redirect_CloseHandle@4    710b0d50 f   kernel32_file.obj
 0001:000afd70       _redirect_CreateDirectoryA@8 710b0d70 f   kernel32_file.obj
 0001:000afdd0       _redirect_CreateDirectoryW@8 710b0dd0 f   kernel32_file.obj
 0001:000afe50       _redirect_CreateFileA@28   710b0e50 f   kernel32_file.obj
 0001:000afec0       _redirect_CreateFileMappingA@24 710b0ec0 f   kernel32_file.obj
 0001:000b0050       _redirect_CreateFileMappingW@24 710b1050 f   kernel32_file.obj
 0001:000b0170       _redirect_CreateFileW@28   710b1170 f   kernel32_file.obj
 0001:000b0200       _redirect_CreatePipe@16    710b1200 f   kernel32_file.obj
 0001:000b03b0       _redirect_DeleteFileA@4    710b13b0 f   kernel32_file.obj
 0001:000b03b0       _redirect_RemoveDirectoryA@4 710b13b0 f   kernel32_file.obj
 0001:000b0430       _redirect_DeleteFileW@4    710b1430 f   kernel32_file.obj
 0001:000b0430       _redirect_RemoveDirectoryW@4 710b1430 f   kernel32_file.obj
 0001:000b04d0       _redirect_DeviceIoControl@32 710b14d0 f   kernel32_file.obj
 0001:000b05a0       _redirect_DuplicateHandle@28 710b15a0 f   kernel32_file.obj
 0001:000b05e0       _redirect_FileTimeToLocalFileTime@8 710b15e0 f   kernel32_file.obj
 0001:000b0640       _redirect_FileTimeToSystemTime@8 710b1640 f   kernel32_file.obj
 0001:000b0670       _redirect_FindFirstFileA@8 710b1670 f   kernel32_file.obj
 0001:000b0700       _redirect_FindFirstFileW@8 710b1700 f   kernel32_file.obj
 0001:000b07b0       _redirect_FindNextFileA@8  710b17b0 f   kernel32_file.obj
 0001:000b0800       _redirect_FindNextFileW@8  710b1800 f   kernel32_file.obj
 0001:000b0850       _redirect_FlushFileBuffers@4 710b1850 f   kernel32_file.obj
 0001:000b0880       _redirect_FlushViewOfFile@8 710b1880 f   kernel32_file.obj
 0001:000b08e0       _redirect_GetCurrentDirectoryA@8 710b18e0 f   kernel32_file.obj
 0001:000b09b0       _redirect_GetCurrentDirectoryW@8 710b19b0 f   kernel32_file.obj
 0001:000b0a10       _redirect_GetDiskFreeSpaceA@20 710b1a10 f   kernel32_file.obj
 0001:000b0b00       _redirect_GetDiskFreeSpaceW@20 710b1b00 f   kernel32_file.obj
 0001:000b0ba0       _redirect_GetDriveTypeA@4  710b1ba0 f   kernel32_file.obj
 0001:000b0d00       _redirect_GetDriveTypeW@4  710b1d00 f   kernel32_file.obj
 0001:000b0e10       _redirect_GetFileAttributesA@4 710b1e10 f   kernel32_file.obj
 0001:000b0f20       _redirect_GetFileAttributesW@4 710b1f20 f   kernel32_file.obj
 0001:000b0ff0       _redirect_GetFileInformationByHandle@8 710b1ff0 f   kernel32_file.obj
 0001:000b10f0       _redirect_GetFileSize@8    710b20f0 f   kernel32_file.obj
 0001:000b1140       _redirect_GetFileTime@16   710b2140 f   kernel32_file.obj
 0001:000b11c0       _redirect_GetFileType@4    710b21c0 f   kernel32_file.obj
 0001:000b1280       _redirect_GetStdHandle@4   710b2280 f   kernel32_file.obj
 0001:000b12d0       _redirect_GetSystemTimeAsFileTime@4 710b22d0 f   kernel32_file.obj
 0001:000b1310       _redirect_LocalFileTimeToFileTime@8 710b2310 f   kernel32_file.obj
 0001:000b1370       _redirect_MapViewOfFile@20 710b2370 f   kernel32_file.obj
 0001:000b1420       _redirect_MapViewOfFileEx@24 710b2420 f   kernel32_file.obj
 0001:000b14d0       _redirect_ReadFile@20      710b24d0 f   kernel32_file.obj
 0001:000b15c0       _redirect_SetCurrentDirectoryA@4 710b25c0 f   kernel32_file.obj
 0001:000b1640       _redirect_SetCurrentDirectoryW@4 710b2640 f   kernel32_file.obj
 0001:000b1680       _redirect_SetFileTime@16   710b2680 f   kernel32_file.obj
 0001:000b1710       _redirect_SystemTimeToFileTime@8 710b2710 f   kernel32_file.obj
 0001:000b1740       _redirect_UnmapViewOfFile@4 710b2740 f   kernel32_file.obj
 0001:000b1780       _redirect_DeleteCriticalSection@4 710b2780 f   kernel32_sync.obj
 0001:000b1790       _redirect_EnterCriticalSection@4 710b2790 f   kernel32_sync.obj
 0001:000b17a0       _redirect_InitializeCriticalSectionAndSpinCount@8 710b27a0 f   kernel32_sync.obj
 0001:000b17d0       _redirect_InitializeCriticalSectionEx@12 710b27d0 f   kernel32_sync.obj
 0001:000b1810       _redirect_InterlockedCompareExchange@12 710b2810 f   kernel32_sync.obj
 0001:000b1830       _redirect_InterlockedDecrement@4 710b2830 f   kernel32_sync.obj
 0001:000b1850       _redirect_InterlockedExchange@8 710b2850 f   kernel32_sync.obj
 0001:000b1860       _redirect_InterlockedIncrement@4 710b2860 f   kernel32_sync.obj
 0001:000b1880       _redirect_LeaveCriticalSection@4 710b2880 f   kernel32_sync.obj
 0001:000b1890       _redirect_WaitForSingleObject@8 710b2890 f   kernel32_sync.obj
 0001:000b1910       _redirect_GetLastError@0   710b2910 f   kernel32_misc.obj
 0001:000b1920       _redirect_SetLastError@4   710b2920 f   kernel32_misc.obj
 0001:000b1940       _redirect_UuidCreate@4     710b2940 f   rpcrt4_redir.obj
 0001:000b19c0       _rpcrt4_redir_exit         710b29c0 f   rpcrt4_redir.obj
 0001:000b19e0       _rpcrt4_redir_init         710b29e0 f   rpcrt4_redir.obj
 0001:000b1a60       _rpcrt4_redir_lookup       710b2a60 f   rpcrt4_redir.obj
 0001:000b1ac0       _redirect_RegCloseKey@4    710b2ac0 f   advapi32_redir.obj
 0001:000b1ae0       _redirect_RegOpenKeyExA@20 710b2ae0 f   advapi32_redir.obj
 0001:000b1c30       _redirect_RegOpenKeyExW@20 710b2c30 f   advapi32_redir.obj
 0001:000b1d30       _redirect_RegQueryValueExA@24 710b2d30 f   advapi32_redir.obj
 0001:000b2020       _redirect_RegQueryValueExW@24 710b3020 f   advapi32_redir.obj
 0001:000b21c0       _advapi32_redir_exit       710b31c0 f   advapi32_redir.obj
 0001:000b21e0       _advapi32_redir_init       710b31e0 f   advapi32_redir.obj
 0001:000b2270       _advapi32_redir_lookup     710b3270 f   advapi32_redir.obj
 0001:000b24c0       _dynamo_auto_start         710b34c0 f   x86.asm_core.obj
 0001:000b24d1       _call_switch_stack         710b34d1 f   x86.asm_core.obj
 0001:000b250b       _dr_call_on_clean_stack    710b350b f   x86.asm_core.obj
 0001:000b2580       _clone_and_swap_stack      710b3580 f   x86.asm_core.obj
 0001:000b259e       _dr_app_start              710b359e f   x86.asm_core.obj
 0001:000b25dd       _dr_app_take_over          710b35dd f   x86.asm_core.obj
 0001:000b25df       _dr_app_running_under_dynamorio 710b35df f   x86.asm_core.obj
 0001:000b25e5       _dynamorio_app_take_over   710b35e5 f   x86.asm_core.obj
 0001:000b2624       _cleanup_and_terminate     710b3624 f   x86.asm_core.obj
 0001:000b26c7       _global_do_syscall_int     710b36c7 f   x86.asm_core.obj
 0001:000b26c9       _global_do_syscall_sygate_int 710b36c9 f   x86.asm_core.obj
 0001:000b26cf       _global_do_syscall_sysenter 710b36cf f   x86.asm_core.obj
 0001:000b26d1       _global_do_syscall_sygate_sysenter 710b36d1 f   x86.asm_core.obj
 0001:000b26de       _global_do_syscall_wow64   710b36de f   x86.asm_core.obj
 0001:000b26e5       _global_do_syscall_wow64_index0 710b36e5 f   x86.asm_core.obj
 0001:000b26ee       _dynamorio_syscall_int2e   710b36ee f   x86.asm_core.obj
 0001:000b26f9       _dynamorio_syscall_sygate_int2e 710b36f9 f   x86.asm_core.obj
 0001:000b2708       _dynamorio_syscall_sysenter 710b3708 f   x86.asm_core.obj
 0001:000b2711       _dynamorio_syscall_sygate_sysenter 710b3711 f   x86.asm_core.obj
 0001:000b272a       _dynamorio_mach_syscall_fixup 710b372a     x86.asm_core.obj
 0001:000b2735       _dynamorio_syscall_wow64   710b3735 f   x86.asm_core.obj
 0001:000b2757       _dynamorio_syscall_wow64_noedx 710b3757 f   x86.asm_core.obj
 0001:000b2782       _nt_continue_dynamo_start  710b3782 f   x86.asm_core.obj
 0001:000b27b7       _back_from_native_retstubs 710b37b7 f   x86.asm_core.obj
 0001:000b27df       _back_from_native_retstubs_end 710b37df     x86.asm_core.obj
 0001:000b27df       _back_from_native          710b37df f   x86.asm_core.obj
 0001:000b2814       _dr_try_start              710b3814 f   x86.asm_core.obj
 0001:000b281b       _dr_setjmp                 710b381b f   x86.asm_core.obj
 0001:000b2839       _dr_longjmp                710b3839 f   x86.asm_core.obj
 0001:000b2859       _atomic_swap               710b3859 f   x86.asm_core.obj
 0001:000b2864       _cpuid_supported           710b3864 f   x86.asm_core.obj
 0001:000b287e       _our_cpuid                 710b387e f   x86.asm_core.obj
 0001:000b28a0       _dr_stmxcsr                710b38a0 f   x86.asm_core.obj
 0001:000b28a8       _dr_xgetbv                 710b38a8 f   x86.asm_core.obj
 0001:000b28c1       _dr_fxsave                 710b38c1 f   x86.asm_core.obj
 0001:000b28ce       _dr_fnsave                 710b38ce f   x86.asm_core.obj
 0001:000b28d6       _dr_fxrstor                710b38d6 f   x86.asm_core.obj
 0001:000b28de       _dr_frstor                 710b38de f   x86.asm_core.obj
 0001:000b28e5       _call_modcode_alt_stack    710b38e5 f   x86.asm_core.obj
 0001:000b2929       _call_intr_excpt_alt_stack 710b3929 f   x86.asm_core.obj
 0001:000b2951       _get_segments_defg         710b3951 f   x86.asm_core.obj
 0001:000b2978       _get_segments_cs_ss        710b3978 f   x86.asm_core.obj
 0001:000b298d       _get_own_context_helper    710b398d f   x86.asm_core.obj
 0001:000b29e3       _get_xmm_caller_saved      710b39e3 f   x86.asm_core.obj
 0001:000b2a0b       _get_ymm_caller_saved      710b3a0b f   x86.asm_core.obj
 0001:000b2a39       _get_zmm_caller_saved      710b3a39 f   x86.asm_core.obj
 0001:000b2a75       _get_opmask_caller_saved   710b3a75 f   x86.asm_core.obj
 0001:000b2aa1       _hashlookup_null_handler   710b3aa1 f   x86.asm_core.obj
 0001:000b2aa7       _safe_read_asm             710b3aa7 f   x86.asm_core.obj
 0001:000b2acc       _safe_read_asm_pre         710b3acc     x86.asm_core.obj
 0001:000b2ad3       _safe_read_asm_mid         710b3ad3     x86.asm_core.obj
 0001:000b2ada       _safe_read_asm_post        710b3ada     x86.asm_core.obj
 0001:000b2adc       _safe_read_asm_recover     710b3adc     x86.asm_core.obj
 0001:000b2ae1       _dr_invoke_x64_routine     710b3ae1 f   x86.asm_core.obj
 0001:000b2b7d       _dynamorio_earliest_init_takeover 710b3b7d f   x86.asm_core.obj
 0001:000b2be0       _dr_fpu_exception_init     710b3be0 f   drlibc:drlibc_x86.asm.obj
 0001:000b2bed       _get_mmx_val               710b3bed f   drlibc:drlibc_x86.asm.obj
 0001:000b2c42       _get_frame_ptr             710b3c42 f   drlibc:drlibc_x86.asm.obj
 0001:000b2c45       _get_stack_ptr             710b3c45 f   drlibc:drlibc_x86.asm.obj
 0001:000b2c4b       _switch_modes_and_load     710b3c4b f   drlibc:drlibc_x86.asm.obj
 0001:000b2c9d       _d_r_set_ss_selector       710b3c9d f   drlibc:drlibc_x86.asm.obj
 0001:000b2ca5       _switch_modes_and_call     710b3ca5 f   drlibc:drlibc_x86.asm.obj
 0001:000b2d0d       _load_dynamo               710b3d0d f   drlibc:drlibc_x86.asm.obj
 0001:000b2d34       _load_dynamo_failure       710b3d34 f   drlibc:drlibc_x86.asm.obj
 0001:000b2d50       _unexpected_return         710b3d50 f   drlibc:drlibc_xarch.asm_core.obj
 0001:000b2d61       _strncat                   710b3d61 f   ntdll_imports:ntdll.dll
 0001:000b2d67       _strncmp                   710b3d67 f   ntdll_imports:ntdll.dll
 0001:000b2d6d       _strncpy                   710b3d6d f   ntdll_imports:ntdll.dll
 0001:000b2d73       _memcpy                    710b3d73 f   ntdll_imports:ntdll.dll
 0001:000b2d79       _memset                    710b3d79 f   ntdll_imports:ntdll.dll
 0001:000b2d7f       _tolower                   710b3d7f f   ntdll_imports:ntdll.dll
 0001:000b2d85       _strchr                    710b3d85 f   ntdll_imports:ntdll.dll
 0001:000b2d8b       _strstr                    710b3d8b f   ntdll_imports:ntdll.dll
 0001:000b2d91       __stricmp                  710b3d91 f   ntdll_imports:ntdll.dll
 0001:000b2d97       __aulldiv                  710b3d97 f   ntdll_imports:ntdll.dll
 0001:000b2d9d       _memmove                   710b3d9d f   ntdll_imports:ntdll.dll
 0001:000b2da3       _strrchr                   710b3da3 f   ntdll_imports:ntdll.dll
 0001:000b2da9       __strnicmp                 710b3da9 f   ntdll_imports:ntdll.dll
 0001:000b2daf       __aulldvrm                 710b3daf f   ntdll_imports:ntdll.dll
 0001:000b2db5       _strtoul                   710b3db5 f   ntdll_imports:ntdll.dll
 0001:000b2dbb       __aullshr                  710b3dbb f   ntdll_imports:ntdll.dll
 0001:000b2dc1       _wcsstr                    710b3dc1 f   ntdll_imports:ntdll.dll
 0001:000b2dc7       _wcsncpy                   710b3dc7 f   ntdll_imports:ntdll.dll
 0001:000b2dcd       __alldiv                   710b3dcd f   ntdll_imports:ntdll.dll
 0001:000b2dd3       __allmul                   710b3dd3 f   ntdll_imports:ntdll.dll
 0001:000b2dd9       _wcsncmp                   710b3dd9 f   ntdll_imports:ntdll.dll
 0001:000b2ddf       __wcsicmp                  710b3ddf f   ntdll_imports:ntdll.dll
 0001:000b2de5       _iswctype                  710b3de5 f   ntdll_imports:ntdll.dll
 0001:000b2deb       _wcschr                    710b3deb f   ntdll_imports:ntdll.dll
 0001:000b2df1       _wcsncat                   710b3df1 f   ntdll_imports:ntdll.dll
 0001:000b2df7       _atoi                      710b3df7 f   ntdll_imports:ntdll.dll
 0001:000b2dfd       _memcmp                    710b3dfd f   ntdll_imports:ntdll.dll
 0001:000b2e03       __strcmpi                  710b3e03 f   ntdll_imports:ntdll.dll
 0001:000b2e09       _RtlCreateHeap@24          710b3e09 f   ntdll_imports:ntdll.dll
 0001:000b2e0f       _RtlDestroyHeap@4          710b3e0f f   ntdll_imports:ntdll.dll
 0001:000b2e15       _RtlAllocateHeap@12        710b3e15 f   ntdll_imports:ntdll.dll
 0001:000b2e1b       _RtlReAllocateHeap@16      710b3e1b f   ntdll_imports:ntdll.dll
 0001:000b2e21       _RtlFreeHeap@12            710b3e21 f   ntdll_imports:ntdll.dll
 0001:000b2e27       _RtlSizeHeap@12            710b3e27 f   ntdll_imports:ntdll.dll
 0001:000b2e2d       _RtlValidateHeap@12        710b3e2d f   ntdll_imports:ntdll.dll
 0001:000b2e33       _RtlLockHeap@4             710b3e33 f   ntdll_imports:ntdll.dll
 0001:000b2e39       _RtlUnlockHeap@4           710b3e39 f   ntdll_imports:ntdll.dll
 0001:000b2e3f       _RtlFreeUnicodeString@4    710b3e3f f   ntdll_imports:ntdll.dll
 0001:000b2e45       _RtlFreeAnsiString@4       710b3e45 f   ntdll_imports:ntdll.dll
 0001:000b2e4b       _RtlFreeOemString@4        710b3e4b f   ntdll_imports:ntdll.dll
 0002:00000000       __imp__strncat             710b4000     ntdll_imports:ntdll.dll
 0002:00000004       __imp__strncmp             710b4004     ntdll_imports:ntdll.dll
 0002:00000008       __imp__strncpy             710b4008     ntdll_imports:ntdll.dll
 0002:0000000c       __imp__memcpy              710b400c     ntdll_imports:ntdll.dll
 0002:00000010       __imp__memset              710b4010     ntdll_imports:ntdll.dll
 0002:00000014       __imp__tolower             710b4014     ntdll_imports:ntdll.dll
 0002:00000018       __imp__strchr              710b4018     ntdll_imports:ntdll.dll
 0002:0000001c       __imp__strstr              710b401c     ntdll_imports:ntdll.dll
 0002:00000020       __imp___stricmp            710b4020     ntdll_imports:ntdll.dll
 0002:00000024       __imp___aulldiv            710b4024     ntdll_imports:ntdll.dll
 0002:00000028       __imp__memmove             710b4028     ntdll_imports:ntdll.dll
 0002:0000002c       __imp__strrchr             710b402c     ntdll_imports:ntdll.dll
 0002:00000030       __imp___strnicmp           710b4030     ntdll_imports:ntdll.dll
 0002:00000034       __imp___aulldvrm           710b4034     ntdll_imports:ntdll.dll
 0002:00000038       __imp__strtoul             710b4038     ntdll_imports:ntdll.dll
 0002:0000003c       __imp___aullshr            710b403c     ntdll_imports:ntdll.dll
 0002:00000040       __imp__wcsstr              710b4040     ntdll_imports:ntdll.dll
 0002:00000044       __imp__wcsncpy             710b4044     ntdll_imports:ntdll.dll
 0002:00000048       __imp__LdrLoadDll@16       710b4048     ntdll_imports:ntdll.dll
 0002:0000004c       __imp___alldiv             710b404c     ntdll_imports:ntdll.dll
 0002:00000050       __imp___allmul             710b4050     ntdll_imports:ntdll.dll
 0002:00000054       __imp__wcsncmp             710b4054     ntdll_imports:ntdll.dll
 0002:00000058       __imp___wcsicmp            710b4058     ntdll_imports:ntdll.dll
 0002:0000005c       __imp__KiUserApcDispatcher@20 710b405c     ntdll_imports:ntdll.dll
 0002:00000060       __imp__KiUserCallbackDispatcher@12 710b4060     ntdll_imports:ntdll.dll
 0002:00000064       __imp__KiUserExceptionDispatcher@8 710b4064     ntdll_imports:ntdll.dll
 0002:00000068       __imp__KiRaiseUserExceptionDispatcher@0 710b4068     ntdll_imports:ntdll.dll
 0002:0000006c       __imp__NtCallbackReturn@12 710b406c     ntdll_imports:ntdll.dll
 0002:00000070       __imp__LdrUnloadDll@4      710b4070     ntdll_imports:ntdll.dll
 0002:00000074       __imp__NtTestAlert@0       710b4074     ntdll_imports:ntdll.dll
 0002:00000078       __imp__RtlEnterCriticalSection@4 710b4078     ntdll_imports:ntdll.dll
 0002:0000007c       __imp__RtlLeaveCriticalSection@4 710b407c     ntdll_imports:ntdll.dll
 0002:00000080       __imp__NtWaitForSingleObject@12 710b4080     ntdll_imports:ntdll.dll
 0002:00000084       __imp__NtFsControlFile@40  710b4084     ntdll_imports:ntdll.dll
 0002:00000088       __imp__NtReadFile@36       710b4088     ntdll_imports:ntdll.dll
 0002:0000008c       __imp__NtWriteFile@36      710b408c     ntdll_imports:ntdll.dll
 0002:00000090       __imp__NtQueryInformationProcess@20 710b4090     ntdll_imports:ntdll.dll
 0002:00000094       __imp__NtQueryInformationFile@20 710b4094     ntdll_imports:ntdll.dll
 0002:00000098       __imp__NtQueryInformationToken@20 710b4098     ntdll_imports:ntdll.dll
 0002:0000009c       __imp__NtQueryVirtualMemory@24 710b409c     ntdll_imports:ntdll.dll
 0002:000000a0       __imp__NtUnmapViewOfSection@8 710b40a0     ntdll_imports:ntdll.dll
 0002:000000a4       __imp__NtCreateSection@28  710b40a4     ntdll_imports:ntdll.dll
 0002:000000a8       __imp__NtOpenSection@12    710b40a8     ntdll_imports:ntdll.dll
 0002:000000ac       __imp__NtAllocateVirtualMemory@24 710b40ac     ntdll_imports:ntdll.dll
 0002:000000b0       __imp__NtFreeVirtualMemory@16 710b40b0     ntdll_imports:ntdll.dll
 0002:000000b4       __imp__NtProtectVirtualMemory@20 710b40b4     ntdll_imports:ntdll.dll
 0002:000000b8       __imp__NtQueryInformationThread@20 710b40b8     ntdll_imports:ntdll.dll
 0002:000000bc       __imp__NtCreateFile@44     710b40bc     ntdll_imports:ntdll.dll
 0002:000000c0       __imp__NtCreateKey@28      710b40c0     ntdll_imports:ntdll.dll
 0002:000000c4       __imp__NtOpenKey@12        710b40c4     ntdll_imports:ntdll.dll
 0002:000000c8       __imp__NtSetInformationFile@20 710b40c8     ntdll_imports:ntdll.dll
 0002:000000cc       __imp__NtYieldExecution@0  710b40cc     ntdll_imports:ntdll.dll
 0002:000000d0       __imp__NtQuerySystemInformation@16 710b40d0     ntdll_imports:ntdll.dll
 0002:000000d4       __imp__RtlTryEnterCriticalSection@4 710b40d4     ntdll_imports:ntdll.dll
 0002:000000d8       __imp__NtReadVirtualMemory@20 710b40d8     ntdll_imports:ntdll.dll
 0002:000000dc       __imp__NtWriteVirtualMemory@20 710b40dc     ntdll_imports:ntdll.dll
 0002:000000e0       __imp__NtContinue@8        710b40e0     ntdll_imports:ntdll.dll
 0002:000000e4       __imp__NtGetContextThread@8 710b40e4     ntdll_imports:ntdll.dll
 0002:000000e8       __imp__NtSetContextThread@8 710b40e8     ntdll_imports:ntdll.dll
 0002:000000ec       __imp__NtSuspendThread@8   710b40ec     ntdll_imports:ntdll.dll
 0002:000000f0       __imp__NtResumeThread@8    710b40f0     ntdll_imports:ntdll.dll
 0002:000000f4       __imp__NtTerminateThread@8 710b40f4     ntdll_imports:ntdll.dll
 0002:000000f8       __imp__NtTerminateProcess@8 710b40f8     ntdll_imports:ntdll.dll
 0002:000000fc       __imp__NtSetInformationProcess@16 710b40fc     ntdll_imports:ntdll.dll
 0002:00000100       __imp__NtDelayExecution@8  710b4100     ntdll_imports:ntdll.dll
 0002:00000104       __imp__NtClose@4           710b4104     ntdll_imports:ntdll.dll
 0002:00000108       __imp__NtDuplicateObject@28 710b4108     ntdll_imports:ntdll.dll
 0002:0000010c       __imp__NtQueryObject@20    710b410c     ntdll_imports:ntdll.dll
 0002:00000110       __imp__RtlInitUnicodeString@8 710b4110     ntdll_imports:ntdll.dll
 0002:00000114       __imp__NtQueryValueKey@24  710b4114     ntdll_imports:ntdll.dll
 0002:00000118       __imp__NtSetValueKey@24    710b4118     ntdll_imports:ntdll.dll
 0002:0000011c       __imp__NtEnumerateKey@24   710b411c     ntdll_imports:ntdll.dll
 0002:00000120       __imp__NtEnumerateValueKey@24 710b4120     ntdll_imports:ntdll.dll
 0002:00000124       __imp__RtlQueryEnvironmentVariable_U@12 710b4124     ntdll_imports:ntdll.dll
 0002:00000128       __imp__RtlConvertSidToUnicodeString@12 710b4128     ntdll_imports:ntdll.dll
 0002:0000012c       __imp__NtQuerySystemTime@4 710b412c     ntdll_imports:ntdll.dll
 0002:00000130       __imp__NtFlushBuffersFile@8 710b4130     ntdll_imports:ntdll.dll
 0002:00000134       __imp__NtCreateIoCompletion@16 710b4134     ntdll_imports:ntdll.dll
 0002:00000138       __imp__NtRaiseHardError@24 710b4138     ntdll_imports:ntdll.dll
 0002:0000013c       __imp__NtCreateEvent@20    710b413c     ntdll_imports:ntdll.dll
 0002:00000140       __imp__NtSetEvent@8        710b4140     ntdll_imports:ntdll.dll
 0002:00000144       __imp__NtClearEvent@4      710b4144     ntdll_imports:ntdll.dll
 0002:00000148       __imp__NtQueryPerformanceCounter@8 710b4148     ntdll_imports:ntdll.dll
 0002:0000014c       __imp__NtCancelIoFile@8    710b414c     ntdll_imports:ntdll.dll
 0002:00000150       __imp__NtCreateProfile@36  710b4150     ntdll_imports:ntdll.dll
 0002:00000154       __imp__NtSetIntervalProfile@8 710b4154     ntdll_imports:ntdll.dll
 0002:00000158       __imp__NtQueryIntervalProfile@8 710b4158     ntdll_imports:ntdll.dll
 0002:0000015c       __imp__NtStartProfile@4    710b415c     ntdll_imports:ntdll.dll
 0002:00000160       __imp__NtStopProfile@4     710b4160     ntdll_imports:ntdll.dll
 0002:00000164       __imp__NtCreateThread@32   710b4164     ntdll_imports:ntdll.dll
 0002:00000168       __imp__LdrGetDllHandle@16  710b4168     ntdll_imports:ntdll.dll
 0002:0000016c       __imp__NtCreateDirectoryObject@12 710b416c     ntdll_imports:ntdll.dll
 0002:00000170       __imp__NtOpenDirectoryObject@12 710b4170     ntdll_imports:ntdll.dll
 0002:00000174       __imp__NtOpenSymbolicLinkObject@12 710b4174     ntdll_imports:ntdll.dll
 0002:00000178       __imp__NtQuerySymbolicLinkObject@12 710b4178     ntdll_imports:ntdll.dll
 0002:0000017c       __imp__NtQueryVolumeInformationFile@20 710b417c     ntdll_imports:ntdll.dll
 0002:00000180       __imp__NtQuerySecurityObject@20 710b4180     ntdll_imports:ntdll.dll
 0002:00000184       __imp__NtOpenFile@24       710b4184     ntdll_imports:ntdll.dll
 0002:00000188       __imp__NtOpenThread@16     710b4188     ntdll_imports:ntdll.dll
 0002:0000018c       __imp__NtQueryAttributesFile@8 710b418c     ntdll_imports:ntdll.dll
 0002:00000190       __imp__NtSetInformationThread@16 710b4190     ntdll_imports:ntdll.dll
 0002:00000194       __imp__NtMapViewOfSection@40 710b4194     ntdll_imports:ntdll.dll
 0002:00000198       __imp__NtOpenProcess@16    710b4198     ntdll_imports:ntdll.dll
 0002:0000019c       __imp__NtQueryFullAttributesFile@8 710b419c     ntdll_imports:ntdll.dll
 0002:000001a0       __imp__NtOpenThreadToken@16 710b41a0     ntdll_imports:ntdll.dll
 0002:000001a4       __imp__NtOpenProcessToken@12 710b41a4     ntdll_imports:ntdll.dll
 0002:000001a8       __imp__LdrGetProcedureAddress@16 710b41a8     ntdll_imports:ntdll.dll
 0002:000001ac       __imp__iswctype            710b41ac     ntdll_imports:ntdll.dll
 0002:000001b0       __imp__wcschr              710b41b0     ntdll_imports:ntdll.dll
 0002:000001b4       __imp__wcsncat             710b41b4     ntdll_imports:ntdll.dll
 0002:000001b8       __imp__atoi                710b41b8     ntdll_imports:ntdll.dll
 0002:000001bc       __imp__memcmp              710b41bc     ntdll_imports:ntdll.dll
 0002:000001c0       __imp___strcmpi            710b41c0     ntdll_imports:ntdll.dll
 0002:000001c4       __imp__RtlCreateHeap@24    710b41c4     ntdll_imports:ntdll.dll
 0002:000001c8       __imp__RtlDestroyHeap@4    710b41c8     ntdll_imports:ntdll.dll
 0002:000001cc       __imp__RtlInitializeCriticalSection@4 710b41cc     ntdll_imports:ntdll.dll
 0002:000001d0       __imp__RtlAllocateHeap@12  710b41d0     ntdll_imports:ntdll.dll
 0002:000001d4       __imp__RtlReAllocateHeap@16 710b41d4     ntdll_imports:ntdll.dll
 0002:000001d8       __imp__RtlFreeHeap@12      710b41d8     ntdll_imports:ntdll.dll
 0002:000001dc       __imp__RtlSizeHeap@12      710b41dc     ntdll_imports:ntdll.dll
 0002:000001e0       __imp__RtlValidateHeap@12  710b41e0     ntdll_imports:ntdll.dll
 0002:000001e4       __imp__RtlLockHeap@4       710b41e4     ntdll_imports:ntdll.dll
 0002:000001e8       __imp__RtlUnlockHeap@4     710b41e8     ntdll_imports:ntdll.dll
 0002:000001ec       __imp__RtlFreeUnicodeString@4 710b41ec     ntdll_imports:ntdll.dll
 0002:000001f0       __imp__RtlFreeAnsiString@4 710b41f0     ntdll_imports:ntdll.dll
 0002:000001f4       __imp__RtlFreeOemString@4  710b41f4     ntdll_imports:ntdll.dll
 0002:000001f8       __imp__RtlDeleteCriticalSection@4 710b41f8     ntdll_imports:ntdll.dll
 0002:000001fc       __imp__NtFlushVirtualMemory@16 710b41fc     ntdll_imports:ntdll.dll
 0002:00000200       __imp__NtCreateNamedPipeFile@56 710b4200     ntdll_imports:ntdll.dll
 0002:00000204       __imp__NtDeviceIoControlFile@40 710b4204     ntdll_imports:ntdll.dll
 0002:00000208       __imp__NtQueryDirectoryFile@44 710b4208     ntdll_imports:ntdll.dll
 0002:0000020c       \177ntdll_NULL_THUNK_DATA  710b420c     ntdll_imports:ntdll.dll
 0002:00002af0       _OPTION_DEFAULT_VALUE_dynamic_options 710b6af0     options.obj
 0002:00002af1       _OPTION_DEFAULT_VALUE_dummy_version 710b6af1     options.obj
 0002:00002af2       _OPTION_DEFAULT_VALUE_nolink 710b6af2     options.obj
 0002:00002af3       _OPTION_DEFAULT_VALUE_link_ibl 710b6af3     options.obj
 0002:00002af4       _OPTION_DEFAULT_VALUE_tracedump_binary 710b6af4     options.obj
 0002:00002af5       _OPTION_DEFAULT_VALUE_tracedump_text 710b6af5     options.obj
 0002:00002af6       _OPTION_DEFAULT_VALUE_tracedump_origins 710b6af6     options.obj
 0002:00002af7       _OPTION_DEFAULT_VALUE_syntax_intel 710b6af7     options.obj
 0002:00002af8       _OPTION_DEFAULT_VALUE_syntax_att 710b6af8     options.obj
 0002:00002af9       _OPTION_DEFAULT_VALUE_syntax_arm 710b6af9     options.obj
 0002:00002afa       _OPTION_DEFAULT_VALUE_decode_strict 710b6afa     options.obj
 0002:00002afb       _OPTION_DEFAULT_VALUE_bbdump_tags 710b6afb     options.obj
 0002:00002afc       _OPTION_DEFAULT_VALUE_disasm_mask 710b6afc     options.obj
 0002:00002b00       _OPTION_DEFAULT_VALUE_gendump 710b6b00     options.obj
 0002:00002b01       _OPTION_DEFAULT_VALUE_global_rstats 710b6b01     options.obj
 0002:00002b02       _OPTION_DEFAULT_VALUE_rstats_to_stderr 710b6b02     options.obj
 0002:00002b03       _OPTION_DEFAULT_VALUE_log_to_stderr 710b6b03     options.obj
 0002:00002b04       _OPTION_DEFAULT_VALUE_logdir 710b6b04     options.obj
 0002:00002b08       _OPTION_DEFAULT_VALUE_kstats 710b6b08     options.obj
 0002:00002b09       _OPTION_DEFAULT_VALUE_profile_pcs 710b6b09     options.obj
 0002:00002b0a       _OPTION_DEFAULT_VALUE_opt_jit 710b6b0a     options.obj
 0002:00002b0b       _OPTION_DEFAULT_VALUE_private_loader 710b6b0b     options.obj
 0002:00002b0c       _OPTION_DEFAULT_VALUE_client_lib 710b6b0c     options.obj
 0002:00002b10       _OPTION_DEFAULT_VALUE_client_lib32 710b6b10     options.obj
 0002:00002b14       _OPTION_DEFAULT_VALUE_ALT_CLIENT_LIB_NAME 710b6b14     options.obj
 0002:00002b18       _OPTION_DEFAULT_VALUE_privlib_privheap 710b6b18     options.obj
 0002:00002b19       _OPTION_DEFAULT_VALUE_private_peb 710b6b19     options.obj
 0002:00002b1a       _OPTION_DEFAULT_VALUE_code_api 710b6b1a     options.obj
 0002:00002b1b       _OPTION_DEFAULT_VALUE_probe_api 710b6b1b     options.obj
 0002:00002b1c       _OPTION_DEFAULT_VALUE_opt_speed 710b6b1c     options.obj
 0002:00002b1d       _OPTION_DEFAULT_VALUE_opt_memory 710b6b1d     options.obj
 0002:00002b1e       _OPTION_DEFAULT_VALUE_bb_prefixes 710b6b1e     options.obj
 0002:00002b1f       _OPTION_DEFAULT_VALUE_full_decode 710b6b1f     options.obj
 0002:00002b20       _OPTION_DEFAULT_VALUE_fast_client_decode 710b6b20     options.obj
 0002:00002b21       _OPTION_DEFAULT_VALUE_cleancall_ignore_eflags 710b6b21     options.obj
 0002:00002b22       _OPTION_DEFAULT_VALUE_mangle_app_seg 710b6b22     options.obj
 0002:00002b23       _OPTION_DEFAULT_VALUE_syslog_init 710b6b23     options.obj
 0002:00002b24       _OPTION_DEFAULT_VALUE_opt_cleancall 710b6b24     options.obj
 0002:00002b28       _OPTION_DEFAULT_VALUE_prof_pcs_DR 710b6b28     options.obj
 0002:00002b2c       _OPTION_DEFAULT_VALUE_prof_pcs_gencode 710b6b2c     options.obj
 0002:00002b30       _OPTION_DEFAULT_VALUE_prof_pcs_fcache 710b6b30     options.obj
 0002:00002b34       _OPTION_DEFAULT_VALUE_prof_pcs_stubs 710b6b34     options.obj
 0002:00002b38       _OPTION_DEFAULT_VALUE_prof_pcs_ntdll 710b6b38     options.obj
 0002:00002b3c       _OPTION_DEFAULT_VALUE_prof_pcs_global 710b6b3c     options.obj
 0002:00002b40       _OPTION_DEFAULT_VALUE_prof_pcs_freq 710b6b40     options.obj
 0002:00002b44       _OPTION_DEFAULT_VALUE_msgbox_mask 710b6b44     options.obj
 0002:00002b48       _OPTION_DEFAULT_VALUE_eventlog_timeout 710b6b48     options.obj
 0002:00002b4c       _OPTION_DEFAULT_VALUE_syslog_mask 710b6b4c     options.obj
 0002:00002b50       _OPTION_DEFAULT_VALUE_syslog_internal_mask 710b6b50     options.obj
 0002:00002b54       _OPTION_DEFAULT_VALUE_internal_detach_mask 710b6b54     options.obj
 0002:00002b58       _OPTION_DEFAULT_VALUE_dumpcore_mask 710b6b58     options.obj
 0002:00002b5c       _OPTION_DEFAULT_VALUE_dumpcore_violation_threshold 710b6b5c     options.obj
 0002:00002b60       _OPTION_DEFAULT_VALUE_live_dump 710b6b60     options.obj
 0002:00002b61       _OPTION_DEFAULT_VALUE_external_dump 710b6b61     options.obj
 0002:00002b62       _OPTION_DEFAULT_VALUE_diagnostics 710b6b62     options.obj
 0002:00002b63       _OPTION_DEFAULT_VALUE_stack_shares_gencode 710b6b63     options.obj
 0002:00002b64       _OPTION_DEFAULT_VALUE_stderr_mask 710b6b64     options.obj
 0002:00002b68       _OPTION_DEFAULT_VALUE_appfault_mask 710b6b68     options.obj
 0002:00002b6c       _OPTION_DEFAULT_VALUE_max_supported_os_version 710b6b6c     options.obj
 0002:00002b70       _OPTION_DEFAULT_VALUE_os_aslr 710b6b70     options.obj
 0002:00002b74       _OPTION_DEFAULT_VALUE_os_aslr_version 710b6b74     options.obj
 0002:00002b78       _OPTION_DEFAULT_VALUE_svchost_timeout 710b6b78     options.obj
 0002:00002b7c       _OPTION_DEFAULT_VALUE_deadlock_timeout 710b6b7c     options.obj
 0002:00002b80       _OPTION_DEFAULT_VALUE_stack_size 710b6b80     options.obj
 0002:00002b84       _OPTION_DEFAULT_VALUE_spinlock_count_on_SMP 710b6b84     options.obj
 0002:00002b88       _OPTION_DEFAULT_VALUE_nop_initial_bblock 710b6b88     options.obj
 0002:00002b89       _OPTION_DEFAULT_VALUE_nullcalls 710b6b89     options.obj
 0002:00002b8a       _OPTION_DEFAULT_VALUE_disable_traces 710b6b8a     options.obj
 0002:00002b8b       _OPTION_DEFAULT_VALUE_enable_traces 710b6b8b     options.obj
 0002:00002b8c       _OPTION_DEFAULT_VALUE_trace_threshold 710b6b8c     options.obj
 0002:00002b90       _OPTION_DEFAULT_VALUE_trace_counter_on_delete 710b6b90     options.obj
 0002:00002b94       _OPTION_DEFAULT_VALUE_max_elide_jmp 710b6b94     options.obj
 0002:00002b98       _OPTION_DEFAULT_VALUE_max_elide_call 710b6b98     options.obj
 0002:00002b9c       _OPTION_DEFAULT_VALUE_elide_back_jmps 710b6b9c     options.obj
 0002:00002b9d       _OPTION_DEFAULT_VALUE_elide_back_calls 710b6b9d     options.obj
 0002:00002b9e       _OPTION_DEFAULT_VALUE_process_SEH_push 710b6b9e     options.obj
 0002:00002b9f       _OPTION_DEFAULT_VALUE_check_for_SEH_push 710b6b9f     options.obj
 0002:00002ba0       _OPTION_DEFAULT_VALUE_selfmod_max_writes 710b6ba0     options.obj
 0002:00002ba4       _OPTION_DEFAULT_VALUE_max_bb_instrs 710b6ba4     options.obj
 0002:00002ba8       _OPTION_DEFAULT_VALUE_shared_bbs 710b6ba8     options.obj
 0002:00002ba9       _OPTION_DEFAULT_VALUE_shared_traces 710b6ba9     options.obj
 0002:00002baa       _OPTION_DEFAULT_VALUE_thread_private 710b6baa     options.obj
 0002:00002bab       _OPTION_DEFAULT_VALUE_remove_shared_trace_heads 710b6bab     options.obj
 0002:00002bac       _OPTION_DEFAULT_VALUE_remove_trace_components 710b6bac     options.obj
 0002:00002bad       _OPTION_DEFAULT_VALUE_shared_deletion 710b6bad     options.obj
 0002:00002bae       _OPTION_DEFAULT_VALUE_syscalls_synch_flush 710b6bae     options.obj
 0002:00002baf       _OPTION_DEFAULT_VALUE_free_unmapped_futures 710b6baf     options.obj
 0002:00002bb0       _OPTION_DEFAULT_VALUE_lazy_deletion_max_pending 710b6bb0     options.obj
 0002:00002bb4       _OPTION_DEFAULT_VALUE_private_ib_in_tls 710b6bb4     options.obj
 0002:00002bb5       _OPTION_DEFAULT_VALUE_single_thread_in_DR 710b6bb5     options.obj
 0002:00002bb6       _OPTION_DEFAULT_VALUE_separate_private_stubs 710b6bb6     options.obj
 0002:00002bb7       _OPTION_DEFAULT_VALUE_separate_shared_stubs 710b6bb7     options.obj
 0002:00002bb8       _OPTION_DEFAULT_VALUE_free_private_stubs 710b6bb8     options.obj
 0002:00002bb9       _OPTION_DEFAULT_VALUE_unsafe_free_shared_stubs 710b6bb9     options.obj
 0002:00002bba       _OPTION_DEFAULT_VALUE_cbr_single_stub 710b6bba     options.obj
 0002:00002bbb       _OPTION_DEFAULT_VALUE_indirect_stubs 710b6bbb     options.obj
 0002:00002bbc       _OPTION_DEFAULT_VALUE_inline_bb_ibl 710b6bbc     options.obj
 0002:00002bbd       _OPTION_DEFAULT_VALUE_atomic_inlined_linking 710b6bbd     options.obj
 0002:00002bbe       _OPTION_DEFAULT_VALUE_inline_trace_ibl 710b6bbe     options.obj
 0002:00002bbf       _OPTION_DEFAULT_VALUE_shared_bb_ibt_tables 710b6bbf     options.obj
 0002:00002bc0       _OPTION_DEFAULT_VALUE_shared_trace_ibt_tables 710b6bc0     options.obj
 0002:00002bc1       _OPTION_DEFAULT_VALUE_ref_count_shared_ibt_tables 710b6bc1     options.obj
 0002:00002bc2       _OPTION_DEFAULT_VALUE_ibl_table_in_tls 710b6bc2     options.obj
 0002:00002bc3       _OPTION_DEFAULT_VALUE_bb_ibl_targets 710b6bc3     options.obj
 0002:00002bc4       _OPTION_DEFAULT_VALUE_bb_ibt_table_includes_traces 710b6bc4     options.obj
 0002:00002bc5       _OPTION_DEFAULT_VALUE_bb_single_restore_prefix 710b6bc5     options.obj
 0002:00002bc6       _OPTION_DEFAULT_VALUE_trace_single_restore_prefix 710b6bc6     options.obj
 0002:00002bc7       _OPTION_DEFAULT_VALUE_rehash_unlinked_always 710b6bc7     options.obj
 0002:00002bc8       _OPTION_DEFAULT_VALUE_rehash_unlinked_threshold 710b6bc8     options.obj
 0002:00002bcc       _OPTION_DEFAULT_VALUE_shared_bbs_only 710b6bcc     options.obj
 0002:00002bcd       _OPTION_DEFAULT_VALUE_shared_trace_ibl_routine 710b6bcd     options.obj
 0002:00002bce       _OPTION_DEFAULT_VALUE_speculate_last_exit 710b6bce     options.obj
 0002:00002bcf       _OPTION_DEFAULT_VALUE_single_privileged_thread 710b6bcf     options.obj
 0002:00002bd0       _OPTION_DEFAULT_VALUE_max_trace_bbs 710b6bd0     options.obj
 0002:00002bd4       _OPTION_DEFAULT_VALUE_protect_mask 710b6bd4     options.obj
 0002:00002bd8       _OPTION_DEFAULT_VALUE_alt_hash_func 710b6bd8     options.obj
 0002:00002bdc       _OPTION_DEFAULT_VALUE_ibl_hash_func_offset 710b6bdc     options.obj
 0002:00002be0       _OPTION_DEFAULT_VALUE_ibl_indcall_hash_offset 710b6be0     options.obj
 0002:00002be4       _OPTION_DEFAULT_VALUE_shared_bb_load 710b6be4     options.obj
 0002:00002be8       _OPTION_DEFAULT_VALUE_shared_trace_load 710b6be8     options.obj
 0002:00002bec       _OPTION_DEFAULT_VALUE_shared_future_load 710b6bec     options.obj
 0002:00002bf0       _OPTION_DEFAULT_VALUE_shared_after_call_load 710b6bf0     options.obj
 0002:00002bf4       _OPTION_DEFAULT_VALUE_global_rct_ind_br_load 710b6bf4     options.obj
 0002:00002bf8       _OPTION_DEFAULT_VALUE_private_trace_load 710b6bf8     options.obj
 0002:00002bfc       _OPTION_DEFAULT_VALUE_private_ibl_targets_load 710b6bfc     options.obj
 0002:00002c00       _OPTION_DEFAULT_VALUE_private_bb_ibl_targets_load 710b6c00     options.obj
 0002:00002c04       _OPTION_DEFAULT_VALUE_shared_ibt_table_trace_init 710b6c04     options.obj
 0002:00002c08       _OPTION_DEFAULT_VALUE_shared_ibt_table_bb_init 710b6c08     options.obj
 0002:00002c0c       _OPTION_DEFAULT_VALUE_shared_ibt_table_trace_load 710b6c0c     options.obj
 0002:00002c10       _OPTION_DEFAULT_VALUE_shared_ibt_table_bb_load 710b6c10     options.obj
 0002:00002c14       _OPTION_DEFAULT_VALUE_coarse_htable_load 710b6c14     options.obj
 0002:00002c18       _OPTION_DEFAULT_VALUE_coarse_th_htable_load 710b6c18     options.obj
 0002:00002c1c       _OPTION_DEFAULT_VALUE_coarse_pclookup_htable_load 710b6c1c     options.obj
 0002:00002c20       _OPTION_DEFAULT_VALUE_bb_ibt_groom 710b6c20     options.obj
 0002:00002c24       _OPTION_DEFAULT_VALUE_trace_ibt_groom 710b6c24     options.obj
 0002:00002c28       _OPTION_DEFAULT_VALUE_private_trace_ibl_targets_init 710b6c28     options.obj
 0002:00002c2c       _OPTION_DEFAULT_VALUE_private_bb_ibl_targets_init 710b6c2c     options.obj
 0002:00002c30       _OPTION_DEFAULT_VALUE_private_trace_ibl_targets_max 710b6c30     options.obj
 0002:00002c34       _OPTION_DEFAULT_VALUE_private_bb_ibl_targets_max 710b6c34     options.obj
 0002:00002c38       _OPTION_DEFAULT_VALUE_private_bb_load 710b6c38     options.obj
 0002:00002c3c       _OPTION_DEFAULT_VALUE_private_future_load 710b6c3c     options.obj
 0002:00002c40       _OPTION_DEFAULT_VALUE_spin_yield_rwlock 710b6c40     options.obj
 0002:00002c41       _OPTION_DEFAULT_VALUE_simulate_contention 710b6c41     options.obj
 0002:00002c42       _OPTION_DEFAULT_VALUE_finite_bb_cache 710b6c42     options.obj
 0002:00002c43       _OPTION_DEFAULT_VALUE_finite_trace_cache 710b6c43     options.obj
 0002:00002c44       _OPTION_DEFAULT_VALUE_vmm_block_size 710b6c44     options.obj
 0002:00002c48       _OPTION_DEFAULT_VALUE_initial_heap_unit_size 710b6c48     options.obj
 0002:00002c4c       _OPTION_DEFAULT_VALUE_initial_heap_nonpers_size 710b6c4c     options.obj
 0002:00002c50       _OPTION_DEFAULT_VALUE_initial_global_heap_unit_size 710b6c50     options.obj
 0002:00002c54       _OPTION_DEFAULT_VALUE_max_heap_unit_size 710b6c54     options.obj
 0002:00002c58       _OPTION_DEFAULT_VALUE_heap_commit_increment 710b6c58     options.obj
 0002:00002c5c       _OPTION_DEFAULT_VALUE_cache_commit_increment 710b6c5c     options.obj
 0002:00002c60       _OPTION_DEFAULT_VALUE_cache_bb_max 710b6c60     options.obj
 0002:00002c64       _OPTION_DEFAULT_VALUE_cache_bb_unit_init 710b6c64     options.obj
 0002:00002c68       _OPTION_DEFAULT_VALUE_cache_bb_unit_max 710b6c68     options.obj
 0002:00002c6c       _OPTION_DEFAULT_VALUE_cache_bb_unit_quadruple 710b6c6c     options.obj
 0002:00002c70       _OPTION_DEFAULT_VALUE_cache_trace_max 710b6c70     options.obj
 0002:00002c74       _OPTION_DEFAULT_VALUE_cache_trace_unit_init 710b6c74     options.obj
 0002:00002c78       _OPTION_DEFAULT_VALUE_cache_trace_unit_max 710b6c78     options.obj
 0002:00002c7c       _OPTION_DEFAULT_VALUE_cache_trace_unit_quadruple 710b6c7c     options.obj
 0002:00002c80       _OPTION_DEFAULT_VALUE_cache_shared_bb_max 710b6c80     options.obj
 0002:00002c84       _OPTION_DEFAULT_VALUE_cache_shared_bb_unit_init 710b6c84     options.obj
 0002:00002c88       _OPTION_DEFAULT_VALUE_cache_shared_bb_unit_max 710b6c88     options.obj
 0002:00002c8c       _OPTION_DEFAULT_VALUE_cache_shared_bb_unit_quadruple 710b6c8c     options.obj
 0002:00002c90       _OPTION_DEFAULT_VALUE_cache_shared_trace_max 710b6c90     options.obj
 0002:00002c94       _OPTION_DEFAULT_VALUE_cache_shared_trace_unit_init 710b6c94     options.obj
 0002:00002c98       _OPTION_DEFAULT_VALUE_cache_shared_trace_unit_max 710b6c98     options.obj
 0002:00002c9c       _OPTION_DEFAULT_VALUE_cache_shared_trace_unit_quadruple 710b6c9c     options.obj
 0002:00002ca0       _OPTION_DEFAULT_VALUE_cache_coarse_bb_max 710b6ca0     options.obj
 0002:00002ca4       _OPTION_DEFAULT_VALUE_cache_coarse_bb_unit_init 710b6ca4     options.obj
 0002:00002ca8       _OPTION_DEFAULT_VALUE_cache_coarse_bb_unit_max 710b6ca8     options.obj
 0002:00002cac       _OPTION_DEFAULT_VALUE_cache_coarse_bb_unit_quadruple 710b6cac     options.obj
 0002:00002cb0       _OPTION_DEFAULT_VALUE_finite_shared_bb_cache 710b6cb0     options.obj
 0002:00002cb1       _OPTION_DEFAULT_VALUE_finite_shared_trace_cache 710b6cb1     options.obj
 0002:00002cb2       _OPTION_DEFAULT_VALUE_finite_coarse_bb_cache 710b6cb2     options.obj
 0002:00002cb3       _OPTION_DEFAULT_VALUE_sandbox_writable 710b6cb3     options.obj
 0002:00002cb4       _OPTION_DEFAULT_VALUE_cache_bb_unit_upgrade 710b6cb4     options.obj
 0002:00002cb8       _OPTION_DEFAULT_VALUE_cache_trace_unit_upgrade 710b6cb8     options.obj
 0002:00002cbc       _OPTION_DEFAULT_VALUE_cache_shared_bb_unit_upgrade 710b6cbc     options.obj
 0002:00002cc0       _OPTION_DEFAULT_VALUE_cache_shared_trace_unit_upgrade 710b6cc0     options.obj
 0002:00002cc4       _OPTION_DEFAULT_VALUE_cache_coarse_bb_unit_upgrade 710b6cc4     options.obj
 0002:00002cc8       _OPTION_DEFAULT_VALUE_cache_bb_regen 710b6cc8     options.obj
 0002:00002ccc       _OPTION_DEFAULT_VALUE_cache_bb_replace 710b6ccc     options.obj
 0002:00002cd0       _OPTION_DEFAULT_VALUE_cache_trace_regen 710b6cd0     options.obj
 0002:00002cd4       _OPTION_DEFAULT_VALUE_cache_trace_replace 710b6cd4     options.obj
 0002:00002cd8       _OPTION_DEFAULT_VALUE_cache_shared_bb_regen 710b6cd8     options.obj
 0002:00002cdc       _OPTION_DEFAULT_VALUE_cache_shared_bb_replace 710b6cdc     options.obj
 0002:00002ce0       _OPTION_DEFAULT_VALUE_cache_shared_trace_regen 710b6ce0     options.obj
 0002:00002ce4       _OPTION_DEFAULT_VALUE_cache_shared_trace_replace 710b6ce4     options.obj
 0002:00002ce8       _OPTION_DEFAULT_VALUE_cache_coarse_bb_regen 710b6ce8     options.obj
 0002:00002cec       _OPTION_DEFAULT_VALUE_cache_coarse_bb_replace 710b6cec     options.obj
 0002:00002cf0       _OPTION_DEFAULT_VALUE_cache_trace_align 710b6cf0     options.obj
 0002:00002cf4       _OPTION_DEFAULT_VALUE_cache_bb_align 710b6cf4     options.obj
 0002:00002cf8       _OPTION_DEFAULT_VALUE_cache_coarse_align 710b6cf8     options.obj
 0002:00002cfc       _OPTION_DEFAULT_VALUE_ro2sandbox_threshold 710b6cfc     options.obj
 0002:00002d00       _OPTION_DEFAULT_VALUE_sandbox2ro_threshold 710b6d00     options.obj
 0002:00002d04       _OPTION_DEFAULT_VALUE_sandbox_non_text 710b6d04     options.obj
 0002:00002d05       _OPTION_DEFAULT_VALUE_cache_shared_free_list 710b6d05     options.obj
 0002:00002d06       _OPTION_DEFAULT_VALUE_enable_reset 710b6d06     options.obj
 0002:00002d07       _OPTION_DEFAULT_VALUE_switch_to_os_at_vmm_reset_limit 710b6d07     options.obj
 0002:00002d08       _OPTION_DEFAULT_VALUE_reset_at_fragment_count 710b6d08     options.obj
 0002:00002d0c       _OPTION_DEFAULT_VALUE_reset_at_nth_thread 710b6d0c     options.obj
 0002:00002d10       _OPTION_DEFAULT_VALUE_reset_at_switch_to_os_at_vmm_limit 710b6d10     options.obj
 0002:00002d11       _OPTION_DEFAULT_VALUE_reset_at_vmm_full 710b6d11     options.obj
 0002:00002d12       _OPTION_DEFAULT_VALUE_skip_out_of_vm_reserve_curiosity 710b6d12     options.obj
 0002:00002d13       _OPTION_DEFAULT_VALUE_vm_reserve 710b6d13     options.obj
 0002:00002d14       _OPTION_DEFAULT_VALUE_reset_at_vmm_percent_free_limit 710b6d14     options.obj
 0002:00002d18       _OPTION_DEFAULT_VALUE_reset_at_vmm_free_limit 710b6d18     options.obj
 0002:00002d1c       _OPTION_DEFAULT_VALUE_report_reset_vmm_threshold 710b6d1c     options.obj
 0002:00002d20       _OPTION_DEFAULT_VALUE_reset_at_commit_percent_free_limit 710b6d20     options.obj
 0002:00002d24       _OPTION_DEFAULT_VALUE_reset_at_commit_free_limit 710b6d24     options.obj
 0002:00002d28       _OPTION_DEFAULT_VALUE_report_reset_commit_threshold 710b6d28     options.obj
 0002:00002d2c       _OPTION_DEFAULT_VALUE_reset_every_nth_pending 710b6d2c     options.obj
 0002:00002d30       _OPTION_DEFAULT_VALUE_reset_at_nth_bb_unit 710b6d30     options.obj
 0002:00002d34       _OPTION_DEFAULT_VALUE_reset_at_nth_trace_unit 710b6d34     options.obj
 0002:00002d38       _OPTION_DEFAULT_VALUE_reset_every_nth_bb_unit 710b6d38     options.obj
 0002:00002d3c       _OPTION_DEFAULT_VALUE_reset_every_nth_trace_unit 710b6d3c     options.obj
 0002:00002d40       _OPTION_DEFAULT_VALUE_vm_size 710b6d40     options.obj
 0002:00002d44       _OPTION_DEFAULT_VALUE_vmheap_size 710b6d44     options.obj
 0002:00002d48       _OPTION_DEFAULT_VALUE_vmheap_size_wow64 710b6d48     options.obj
 0002:00002d4c       _OPTION_DEFAULT_VALUE_vm_base 710b6d4c     options.obj
 0002:00002d50       _OPTION_DEFAULT_VALUE_vm_max_offset 710b6d50     options.obj
 0002:00002d54       _OPTION_DEFAULT_VALUE_vm_allow_not_at_base 710b6d54     options.obj
 0002:00002d55       _OPTION_DEFAULT_VALUE_vm_allow_smaller 710b6d55     options.obj
 0002:00002d56       _OPTION_DEFAULT_VALUE_vm_base_near_app 710b6d56     options.obj
 0002:00002d57       _OPTION_DEFAULT_VALUE_satisfy_w_xor_x 710b6d57     options.obj
 0002:00002d58       _OPTION_DEFAULT_VALUE_vm_use_last 710b6d58     options.obj
 0002:00002d59       _OPTION_DEFAULT_VALUE_follow_children 710b6d59     options.obj
 0002:00002d5a       _OPTION_DEFAULT_VALUE_follow_systemwide 710b6d5a     options.obj
 0002:00002d5b       _OPTION_DEFAULT_VALUE_follow_explicit_children 710b6d5b     options.obj
 0002:00002d5c       _OPTION_DEFAULT_VALUE_silent_oom_mask 710b6d5c     options.obj
 0002:00002d60       _OPTION_DEFAULT_VALUE_silent_commit_oom_list 710b6d60     options.obj
 0002:00002d64       _OPTION_DEFAULT_VALUE_oom_timeout 710b6d64     options.obj
 0002:00002d68       _OPTION_DEFAULT_VALUE_early_inject 710b6d68     options.obj
 0002:00002d69       _OPTION_DEFAULT_VALUE_early_inject_map 710b6d69     options.obj
 0002:00002d6a       _OPTION_DEFAULT_VALUE_early_inject_stress_helpers 710b6d6a     options.obj
 0002:00002d6b       _OPTION_DEFAULT_VALUE_inject_at_create_process 710b6d6b     options.obj
 0002:00002d6c       _OPTION_DEFAULT_VALUE_early_inject_location 710b6d6c     options.obj
 0002:00002d70       _OPTION_DEFAULT_VALUE_early_inject_address 710b6d70     options.obj
 0002:00002d74       _OPTION_DEFAULT_VALUE_early_inject_helper_dll 710b6d74     options.obj
 0002:00002d78       _OPTION_DEFAULT_VALUE_early_inject_helper_name 710b6d78     options.obj
 0002:00002d7c       _OPTION_DEFAULT_VALUE_vista_inject_at_create_process 710b6d7c     options.obj
 0002:00002d7d       _OPTION_DEFAULT_VALUE_inject_primary 710b6d7d     options.obj
 0002:00002d7e       _OPTION_DEFAULT_VALUE_synch_thread_sleep_UP 710b6d7e     options.obj
 0002:00002d7f       _OPTION_DEFAULT_VALUE_synch_thread_sleep_MP 710b6d7f     options.obj
 0002:00002d80       _OPTION_DEFAULT_VALUE_synch_thread_max_loops 710b6d80     options.obj
 0002:00002d84       _OPTION_DEFAULT_VALUE_synch_all_threads_max_loops 710b6d84     options.obj
 0002:00002d88       _OPTION_DEFAULT_VALUE_synch_with_sleep_time 710b6d88     options.obj
 0002:00002d8c       _OPTION_DEFAULT_VALUE_suspend_on_synch_failure_for_app_suspend 710b6d8c     options.obj
 0002:00002d8d       _OPTION_DEFAULT_VALUE_ignore_syscalls 710b6d8d     options.obj
 0002:00002d8e       _OPTION_DEFAULT_VALUE_inline_ignored_syscalls 710b6d8e     options.obj
 0002:00002d8f       _OPTION_DEFAULT_VALUE_ignore_syscalls_follow_sysenter 710b6d8f     options.obj
 0002:00002d90       _OPTION_DEFAULT_VALUE_tls_align 710b6d90     options.obj
 0002:00002d94       _OPTION_DEFAULT_VALUE_shared_syscalls 710b6d94     options.obj
 0002:00002d95       _OPTION_DEFAULT_VALUE_shared_fragment_shared_syscalls 710b6d95     options.obj
 0002:00002d96       _OPTION_DEFAULT_VALUE_shared_syscalls_fastpath 710b6d96     options.obj
 0002:00002d97       _OPTION_DEFAULT_VALUE_shared_eq_ignore 710b6d97     options.obj
 0002:00002d98       _OPTION_DEFAULT_VALUE_tls_flags 710b6d98     options.obj
 0002:00002d9c       _OPTION_DEFAULT_VALUE_alt_teb_tls 710b6d9c     options.obj
 0002:00002d9d       _OPTION_DEFAULT_VALUE_safe_read_tls_init 710b6d9d     options.obj
 0002:00002d9e       _OPTION_DEFAULT_VALUE_guard_pages 710b6d9e     options.obj
 0002:00002d9f       _OPTION_DEFAULT_VALUE_per_thread_guard_pages 710b6d9f     options.obj
 0002:00002da0       _OPTION_DEFAULT_VALUE_stack_guard_pages 710b6da0     options.obj
 0002:00002da1       _OPTION_DEFAULT_VALUE_enable_block_mod_load 710b6da1     options.obj
 0002:00002da2       _OPTION_DEFAULT_VALUE_use_moduledb 710b6da2     options.obj
 0002:00002da3       _OPTION_DEFAULT_VALUE_staged_aka_use_moduledb 710b6da3     options.obj
 0002:00002da4       _OPTION_DEFAULT_VALUE_block_mod_load_list_default 710b6da4     options.obj
 0002:00002da8       _OPTION_DEFAULT_VALUE_block_mod_load_list 710b6da8     options.obj
 0002:00002dac       _OPTION_DEFAULT_VALUE_handle_DR_modify 710b6dac     options.obj
 0002:00002db0       _OPTION_DEFAULT_VALUE_handle_ntdll_modify 710b6db0     options.obj
 0002:00002db4       _OPTION_DEFAULT_VALUE_patch_proof_default_list 710b6db4     options.obj
 0002:00002db8       _OPTION_DEFAULT_VALUE_patch_proof_list 710b6db8     options.obj
 0002:00002dbc       _OPTION_DEFAULT_VALUE_allowlist_company_names_default 710b6dbc     options.obj
 0002:00002dc0       _OPTION_DEFAULT_VALUE_allowlist_company_names 710b6dc0     options.obj
 0002:00002dc4       _OPTION_DEFAULT_VALUE_unknown_module_policy 710b6dc4     options.obj
 0002:00002dc8       _OPTION_DEFAULT_VALUE_unknown_module_load_report_max 710b6dc8     options.obj
 0002:00002dcc       _OPTION_DEFAULT_VALUE_moduledb_exemptions_report_max 710b6dcc     options.obj
 0002:00002dd0       _OPTION_DEFAULT_VALUE_unloaded_target_exception 710b6dd0     options.obj
 0002:00002dd1       _OPTION_DEFAULT_VALUE_hide 710b6dd1     options.obj
 0002:00002dd2       _OPTION_DEFAULT_VALUE_track_module_filenames 710b6dd2     options.obj
 0002:00002dd3       _OPTION_DEFAULT_VALUE_allow_detach 710b6dd3     options.obj
 0002:00002dd4       _OPTION_DEFAULT_VALUE_hide_from_query 710b6dd4     options.obj
 0002:00002dd8       _OPTION_DEFAULT_VALUE_noasynch 710b6dd8     options.obj
 0002:00002dd9       _OPTION_DEFAULT_VALUE_hw_cache_consistency 710b6dd9     options.obj
 0002:00002dda       _OPTION_DEFAULT_VALUE_sandbox_writes 710b6dda     options.obj
 0002:00002ddb       _OPTION_DEFAULT_VALUE_safe_translate_flushed 710b6ddb     options.obj
 0002:00002ddc       _OPTION_DEFAULT_VALUE_store_translations 710b6ddc     options.obj
 0002:00002ddd       _OPTION_DEFAULT_VALUE_translate_fpu_pc 710b6ddd     options.obj
 0002:00002dde       _OPTION_DEFAULT_VALUE_validate_owner_dir 710b6dde     options.obj
 0002:00002ddf       _OPTION_DEFAULT_VALUE_validate_owner_file 710b6ddf     options.obj
 0002:00002de0       _OPTION_DEFAULT_VALUE_coarse_units 710b6de0     options.obj
 0002:00002de1       _OPTION_DEFAULT_VALUE_enable_full_api_aka_coarse_units 710b6de1     options.obj
 0002:00002de2       _OPTION_DEFAULT_VALUE_coarse_enable_freeze 710b6de2     options.obj
 0002:00002de3       _OPTION_DEFAULT_VALUE_coarse_freeze_at_exit 710b6de3     options.obj
 0002:00002de4       _OPTION_DEFAULT_VALUE_coarse_freeze_at_unload 710b6de4     options.obj
 0002:00002de5       _OPTION_DEFAULT_VALUE_coarse_freeze_clobber 710b6de5     options.obj
 0002:00002de6       _OPTION_DEFAULT_VALUE_coarse_freeze_rename 710b6de6     options.obj
 0002:00002de7       _OPTION_DEFAULT_VALUE_coarse_freeze_clean 710b6de7     options.obj
 0002:00002de8       _OPTION_DEFAULT_VALUE_coarse_freeze_min_size 710b6de8     options.obj
 0002:00002dec       _OPTION_DEFAULT_VALUE_coarse_freeze_append_size 710b6dec     options.obj
 0002:00002df0       _OPTION_DEFAULT_VALUE_coarse_freeze_rct_min 710b6df0     options.obj
 0002:00002df4       _OPTION_DEFAULT_VALUE_coarse_freeze_merge 710b6df4     options.obj
 0002:00002df5       _OPTION_DEFAULT_VALUE_coarse_lone_merge 710b6df5     options.obj
 0002:00002df6       _OPTION_DEFAULT_VALUE_coarse_disk_merge 710b6df6     options.obj
 0002:00002df7       _OPTION_DEFAULT_VALUE_coarse_freeze_rebased_aslr 710b6df7     options.obj
 0002:00002df8       _OPTION_DEFAULT_VALUE_coarse_freeze_elide_ubr 710b6df8     options.obj
 0002:00002df9       _OPTION_DEFAULT_VALUE_unsafe_freeze_elide_sole_ubr 710b6df9     options.obj
 0002:00002dfa       _OPTION_DEFAULT_VALUE_coarse_pclookup_table 710b6dfa     options.obj
 0002:00002dfb       _OPTION_DEFAULT_VALUE_persist_per_app 710b6dfb     options.obj
 0002:00002dfc       _OPTION_DEFAULT_VALUE_persist_per_user 710b6dfc     options.obj
 0002:00002dfd       _OPTION_DEFAULT_VALUE_use_persisted 710b6dfd     options.obj
 0002:00002dfe       _OPTION_DEFAULT_VALUE_persist_map_rw_separate 710b6dfe     options.obj
 0002:00002dff       _OPTION_DEFAULT_VALUE_persist_lock_file 710b6dff     options.obj
 0002:00002e00       _OPTION_DEFAULT_VALUE_persist_exclude_list 710b6e00     options.obj
 0002:00002e04       _OPTION_DEFAULT_VALUE_coarse_fill_ibl 710b6e04     options.obj
 0002:00002e08       _OPTION_DEFAULT_VALUE_persist_gen_validation 710b6e08     options.obj
 0002:00002e0c       _OPTION_DEFAULT_VALUE_persist_load_validation 710b6e0c     options.obj
 0002:00002e10       _OPTION_DEFAULT_VALUE_persist_short_digest 710b6e10     options.obj
 0002:00002e14       _OPTION_DEFAULT_VALUE_persist_check_options 710b6e14     options.obj
 0002:00002e15       _OPTION_DEFAULT_VALUE_persist_check_local_options 710b6e15     options.obj
 0002:00002e16       _OPTION_DEFAULT_VALUE_persist_check_exempted_options 710b6e16     options.obj
 0002:00002e17       _OPTION_DEFAULT_VALUE_persist_protect_stubs 710b6e17     options.obj
 0002:00002e18       _OPTION_DEFAULT_VALUE_persist_protect_stubs_limit 710b6e18     options.obj
 0002:00002e1c       _OPTION_DEFAULT_VALUE_persist_touch_stubs 710b6e1c     options.obj
 0002:00002e1d       _OPTION_DEFAULT_VALUE_coarse_merge_iat 710b6e1d     options.obj
 0002:00002e1e       _OPTION_DEFAULT_VALUE_coarse_split_calls 710b6e1e     options.obj
 0002:00002e1f       _OPTION_DEFAULT_VALUE_persist 710b6e1f     options.obj
 0002:00002e20       _OPTION_DEFAULT_VALUE_persist_dir 710b6e20     options.obj
 0002:00002e24       _OPTION_DEFAULT_VALUE_persist_shared_dir 710b6e24     options.obj
 0002:00002e28       _OPTION_DEFAULT_VALUE_desktop 710b6e28     options.obj
 0002:00002e29       _OPTION_DEFAULT_VALUE_native_exec 710b6e29     options.obj
 0002:00002e2a       _OPTION_DEFAULT_VALUE_native_exec_syscalls 710b6e2a     options.obj
 0002:00002e2b       _OPTION_DEFAULT_VALUE_native_exec_dircalls 710b6e2b     options.obj
 0002:00002e2c       _OPTION_DEFAULT_VALUE_native_exec_default_list 710b6e2c     options.obj
 0002:00002e30       _OPTION_DEFAULT_VALUE_native_exec_list 710b6e30     options.obj
 0002:00002e34       _OPTION_DEFAULT_VALUE_native_exec_callcall 710b6e34     options.obj
 0002:00002e35       _OPTION_DEFAULT_VALUE_native_exec_guess_calls 710b6e35     options.obj
 0002:00002e36       _OPTION_DEFAULT_VALUE_native_exec_managed_code 710b6e36     options.obj
 0002:00002e37       _OPTION_DEFAULT_VALUE_native_exec_dot_pexe 710b6e37     options.obj
 0002:00002e38       _OPTION_DEFAULT_VALUE_native_exec_retakeover 710b6e38     options.obj
 0002:00002e39       _OPTION_DEFAULT_VALUE_native_exec_opt 710b6e39     options.obj
 0002:00002e3a       _OPTION_DEFAULT_VALUE_skip_terminating_threads 710b6e3a     options.obj
 0002:00002e3b       _OPTION_DEFAULT_VALUE_sleep_between_takeovers 710b6e3b     options.obj
 0002:00002e3c       _OPTION_DEFAULT_VALUE_takeover_attempts 710b6e3c     options.obj
 0002:00002e40       _OPTION_DEFAULT_VALUE_inline_calls 710b6e40     options.obj
 0002:00002e41       _OPTION_DEFAULT_VALUE_indcall2direct 710b6e41     options.obj
 0002:00002e42       _OPTION_DEFAULT_VALUE_IAT_convert 710b6e42     options.obj
 0002:00002e43       _OPTION_DEFAULT_VALUE_IAT_elide 710b6e43     options.obj
 0002:00002e44       _OPTION_DEFAULT_VALUE_unsafe_IAT_ignore_hooker 710b6e44     options.obj
 0002:00002e45       _OPTION_DEFAULT_VALUE_hook_image_entry 710b6e45     options.obj
 0002:00002e46       _OPTION_DEFAULT_VALUE_hook_ldr_dll_routines 710b6e46     options.obj
 0002:00002e47       _OPTION_DEFAULT_VALUE_clean_testalert 710b6e47     options.obj
 0002:00002e48       _OPTION_DEFAULT_VALUE_thread_policy 710b6e48     options.obj
 0002:00002e4c       _OPTION_DEFAULT_VALUE_apc_policy 710b6e4c     options.obj
 0002:00002e50       _OPTION_DEFAULT_VALUE_hook_conflict 710b6e50     options.obj
 0002:00002e54       _OPTION_DEFAULT_VALUE_native_exec_hook_conflict 710b6e54     options.obj
 0002:00002e58       _OPTION_DEFAULT_VALUE_dr_sygate_int 710b6e58     options.obj
 0002:00002e59       _OPTION_DEFAULT_VALUE_dr_sygate_sysenter 710b6e59     options.obj
 0002:00002e5a       _OPTION_DEFAULT_VALUE_sygate_int 710b6e5a     options.obj
 0002:00002e5b       _OPTION_DEFAULT_VALUE_sygate_sysenter 710b6e5b     options.obj
 0002:00002e5c       _OPTION_DEFAULT_VALUE_native_exec_hook_create_thread 710b6e5c     options.obj
 0002:00002e5d       _OPTION_DEFAULT_VALUE_sygate 710b6e5d     options.obj
 0002:00002e5e       _OPTION_DEFAULT_VALUE_aslr_dr 710b6e5e     options.obj
 0002:00002e5f       _OPTION_DEFAULT_VALUE_R_aka_aslr 710b6e5f     options.obj
 0002:00002e60       _OPTION_DEFAULT_VALUE_aslr 710b6e60     options.obj
 0002:00002e64       _OPTION_DEFAULT_VALUE_aslr_action 710b6e64     options.obj
 0002:00002e68       _OPTION_DEFAULT_VALUE_aslr_retry 710b6e68     options.obj
 0002:00002e6c       _OPTION_DEFAULT_VALUE_aslr_cache 710b6e6c     options.obj
 0002:00002e70       _OPTION_DEFAULT_VALUE_min_free_disk 710b6e70     options.obj
 0002:00002e74       _OPTION_DEFAULT_VALUE_aslr_internal 710b6e74     options.obj
 0002:00002e78       _OPTION_DEFAULT_VALUE_aslr_dll_base 710b6e78     options.obj
 0002:00002e7c       _OPTION_DEFAULT_VALUE_aslr_dll_top 710b6e7c     options.obj
 0002:00002e80       _OPTION_DEFAULT_VALUE_aslr_dll_offset 710b6e80     options.obj
 0002:00002e84       _OPTION_DEFAULT_VALUE_aslr_dll_pad 710b6e84     options.obj
 0002:00002e88       _OPTION_DEFAULT_VALUE_aslr_parent_offset 710b6e88     options.obj
 0002:00002e8c       _OPTION_DEFAULT_VALUE_aslr_heap_reserve_offset 710b6e8c     options.obj
 0002:00002e90       _OPTION_DEFAULT_VALUE_aslr_heap_exe_reserve_offset 710b6e90     options.obj
 0002:00002e94       _OPTION_DEFAULT_VALUE_aslr_reserve_pad 710b6e94     options.obj
 0002:00002e98       _OPTION_DEFAULT_VALUE_aslr_validation 710b6e98     options.obj
 0002:00002e9c       _OPTION_DEFAULT_VALUE_aslr_short_digest 710b6e9c     options.obj
 0002:00002ea0       _OPTION_DEFAULT_VALUE_aslr_section_prefix 710b6ea0     options.obj
 0002:00002ea4       _OPTION_DEFAULT_VALUE_exempt_aslr_default_list 710b6ea4     options.obj
 0002:00002ea8       _OPTION_DEFAULT_VALUE_exempt_aslr_list 710b6ea8     options.obj
 0002:00002eac       _OPTION_DEFAULT_VALUE_aslr_extra 710b6eac     options.obj
 0002:00002ead       _OPTION_DEFAULT_VALUE_aslr_safe_save 710b6ead     options.obj
 0002:00002eae       _OPTION_DEFAULT_VALUE_medium 710b6eae     options.obj
 0002:00002eaf       _OPTION_DEFAULT_VALUE_low  710b6eaf     options.obj
 0002:00002eb0       _OPTION_DEFAULT_VALUE_exempt_aslr_extra_list 710b6eb0     options.obj
 0002:00002eb4       _OPTION_DEFAULT_VALUE_aslr_cache_list 710b6eb4     options.obj
 0002:00002eb8       _OPTION_DEFAULT_VALUE_aslr_cache_include_list 710b6eb8     options.obj
 0002:00002ebc       _OPTION_DEFAULT_VALUE_aslr_cache_exclude_list 710b6ebc     options.obj
 0002:00002ec0       _OPTION_DEFAULT_VALUE_client 710b6ec0     options.obj
 0002:00002ec1       _OPTION_DEFAULT_VALUE_mute_nudge 710b6ec1     options.obj
 0002:00002ec2       _OPTION_DEFAULT_VALUE_pad_jmps 710b6ec2     options.obj
 0002:00002ec3       _OPTION_DEFAULT_VALUE_pad_jmps_return_excess_padding 710b6ec3     options.obj
 0002:00002ec4       _OPTION_DEFAULT_VALUE_prng_seed 710b6ec4     options.obj
 0002:00002ec8       _OPTION_DEFAULT_VALUE_pad_jmps_shift_bb 710b6ec8     options.obj
 0002:00002ec9       _OPTION_DEFAULT_VALUE_pad_jmps_shift_trace 710b6ec9     options.obj
 0002:00002eca       _OPTION_DEFAULT_VALUE_ibl_sentinel_check 710b6eca     options.obj
 0002:00002ecb       _OPTION_DEFAULT_VALUE_ibl_addr_prefix 710b6ecb     options.obj
 0002:00002ecc       _OPTION_DEFAULT_VALUE_pad_jmps_set_alignment 710b6ecc     options.obj
 0002:00002ed0       _OPTION_DEFAULT_VALUE_slowdown_ibl_found 710b6ed0     options.obj
 0002:00002ed4       _OPTION_DEFAULT_VALUE_stress_recreate_pc 710b6ed4     options.obj
 0002:00002ed5       _OPTION_DEFAULT_VALUE_stress_recreate_state 710b6ed5     options.obj
 0002:00002ed6       _OPTION_DEFAULT_VALUE_detect_dangling_fcache 710b6ed6     options.obj
 0002:00002ed7       _OPTION_DEFAULT_VALUE_stress_detach_with_stacked_callbacks 710b6ed7     options.obj
 0002:00002ed8       _OPTION_DEFAULT_VALUE_detach_fix_sysenter_on_stack 710b6ed8     options.obj
 0002:00002ed9       _OPTION_DEFAULT_VALUE_unsafe_crash_process 710b6ed9     options.obj
 0002:00002eda       _OPTION_DEFAULT_VALUE_unsafe_hang_process 710b6eda     options.obj
 0002:00002edb       _OPTION_DEFAULT_VALUE_unsafe_ignore_overflow 710b6edb     options.obj
 0002:00002edc       _OPTION_DEFAULT_VALUE_vmarea_initial_size 710b6edc     options.obj
 0002:00002ee0       _OPTION_DEFAULT_VALUE_vmarea_increment_size 710b6ee0     options.obj
 0002:00002ee4       _OPTION_DEFAULT_VALUE_stress_fake_userva 710b6ee4     options.obj
 0002:00002ee8       _OPTION_DEFAULT_VALUE_unsafe_ignore_eflags 710b6ee8     options.obj
 0002:00002ee9       _OPTION_DEFAULT_VALUE_unsafe_ignore_eflags_trace 710b6ee9     options.obj
 0002:00002eea       _OPTION_DEFAULT_VALUE_unsafe_ignore_eflags_prefix 710b6eea     options.obj
 0002:00002eeb       _OPTION_DEFAULT_VALUE_unsafe_ignore_eflags_ibl 710b6eeb     options.obj
 0002:00002eec       _OPTION_DEFAULT_VALUE_ignore_assert_list 710b6eec     options.obj
 0002:00002ef0       _OPTION_DEFAULT_VALUE_synch_at_exit 710b6ef0     options.obj
 0002:00002ef1       _OPTION_DEFAULT_VALUE_multi_thread_exit 710b6ef1     options.obj
 0002:00002ef2       _OPTION_DEFAULT_VALUE_skip_thread_exit_at_exit 710b6ef2     options.obj
 0002:00002ef3       _OPTION_DEFAULT_VALUE_unsafe_ignore_takeover_timeout 710b6ef3     options.obj
 0002:00002ef4       _OPTION_DEFAULT_VALUE_takeover_timeout_ms 710b6ef4     options.obj
 0002:00002ef8       _OPTION_DEFAULT_VALUE_optimize 710b6ef8     options.obj
 0002:00002ef9       _OPTION_DEFAULT_VALUE_prefetch 710b6ef9     options.obj
 0002:00002efa       _OPTION_DEFAULT_VALUE_rlr  710b6efa     options.obj
 0002:00002efb       _OPTION_DEFAULT_VALUE_vectorize 710b6efb     options.obj
 0002:00002efc       _OPTION_DEFAULT_VALUE_unroll_loops 710b6efc     options.obj
 0002:00002efd       _OPTION_DEFAULT_VALUE_instr_counts 710b6efd     options.obj
 0002:00002efe       _OPTION_DEFAULT_VALUE_stack_adjust 710b6efe     options.obj
 0002:00002eff       _OPTION_DEFAULT_VALUE_call_return_matching 710b6eff     options.obj
 0002:00002f00       _OPTION_DEFAULT_VALUE_remove_dead_code 710b6f00     options.obj
 0002:00002f04       _OPTION_DEFAULT_VALUE_constant_prop 710b6f04     options.obj
 0002:00002f08       _OPTION_DEFAULT_VALUE_remove_unnecessary_zeroing 710b6f08     options.obj
 0002:00002f09       _OPTION_DEFAULT_VALUE_peephole 710b6f09     options.obj
 0002:00002f0a       _OPTION_DEFAULT_VALUE_thin_client 710b6f0a     options.obj
 0002:00002f10       _default_options           710b6f10     options.obj
 0002:0000d034       ??_C@_0BA@NEEKIGAJ@dynamic_options@ 710c1034     options.obj
 0002:0000d044       ??_C@_07CPCPJPKL@version@  710c1044     options.obj
 0002:0000d04c       ??_C@_06JOBENMDF@nolink@   710c104c     options.obj
 0002:0000d054       ??_C@_08KLMJDBCG@link_ibl@ 710c1054     options.obj
 0002:0000d060       ??_C@_0BB@KCJAAMBM@tracedump_binary@ 710c1060     options.obj
 0002:0000d074       ??_C@_0P@CLFKIKLB@tracedump_text@ 710c1074     options.obj
 0002:0000d084       ??_C@_0BC@OCFJJLOA@tracedump_origins@ 710c1084     options.obj
 0002:0000d098       ??_C@_0N@DIJGIBAH@syntax_intel@ 710c1098     options.obj
 0002:0000d0a8       ??_C@_0L@KOJNGNBA@syntax_att@ 710c10a8     options.obj
 0002:0000d0b4       ??_C@_0L@DBBALILK@syntax_arm@ 710c10b4     options.obj
 0002:0000d0c0       ??_C@_0O@PPDKPFAG@decode_strict@ 710c10c0     options.obj
 0002:0000d0d0       ??_C@_0M@NFGBCLKN@disasm_mask@ 710c10d0     options.obj
 0002:0000d0dc       ??_C@_0M@LGNPDIPE@bbdump_tags@ 710c10dc     options.obj
 0002:0000d0e8       ??_C@_07PEOACEPK@gendump@  710c10e8     options.obj
 0002:0000d0f0       ??_C@_0O@CHHEGCNN@global_rstats@ 710c10f0     options.obj
 0002:0000d100       ??_C@_0BB@LIGAJEBD@rstats_to_stderr@ 710c1100     options.obj
 0002:0000d114       ??_C@_06BCHOJLEN@logdir@   710c1114     options.obj
 0002:0000d11c       ??_C@_0O@IBBIEFFI@log_to_stderr@ 710c111c     options.obj
 0002:0000d12c       ??_C@_06LOLGHLCB@kstats@   710c112c     options.obj
 0002:0000d134       ??_C@_08DLIMMJOI@prof_pcs@ 710c1134     options.obj
 0002:0000d140       ??_C@_07NEAAOFN@opt_jit@   710c1140     options.obj
 0002:0000d148       ??_C@_0L@GOBKFCLA@client_lib@ 710c1148     options.obj
 0002:0000d154       ??_C@_0N@KKPNPPMC@client_lib32@ 710c1154     options.obj
 0002:0000d164       ??_C@_0N@PKGMJKKP@client_lib64@ 710c1164     options.obj
 0002:0000d174       ??_C@_0P@GFNNFLGN@private_loader@ 710c1174     options.obj
 0002:0000d184       ??_C@_0BB@FDIFGKLK@privlib_privheap@ 710c1184     options.obj
 0002:0000d198       ??_C@_0M@DMJBPECP@private_peb@ 710c1198     options.obj
 0002:0000d1a4       ??_C@_08ILAEGCPK@code_api@ 710c11a4     options.obj
 0002:0000d1b0       ??_C@_09KAKFPILC@probe_api@ 710c11b0     options.obj
 0002:0000d1bc       ??_C@_09GKMDCGM@opt_speed@ 710c11bc     options.obj
 0002:0000d1c8       ??_C@_0L@JJGDEDCC@opt_memory@ 710c11c8     options.obj
 0002:0000d1d4       ??_C@_0M@GJLGFNLH@bb_prefixes@ 710c11d4     options.obj
 0002:0000d1e0       ??_C@_0M@PMPJJJCE@full_decode@ 710c11e0     options.obj
 0002:0000d1ec       ??_C@_0BD@OOPPJGMF@fast_client_decode@ 710c11ec     options.obj
 0002:0000d200       ??_C@_0O@FAMNJDHJ@opt_cleancall@ 710c1200     options.obj
 0002:0000d210       ??_C@_0BI@NAIACOKL@cleancall_ignore_eflags@ 710c1210     options.obj
 0002:0000d228       ??_C@_0P@LDJIGNKB@mangle_app_seg@ 710c1228     options.obj
 0002:0000d238       ??_C@_0M@DFLHCHBB@prof_pcs_DR@ 710c1238     options.obj
 0002:0000d244       ??_C@_0BB@MAAFIFAD@prof_pcs_gencode@ 710c1244     options.obj
 0002:0000d258       ??_C@_0BA@GMBLGDBE@prof_pcs_fcache@ 710c1258     options.obj
 0002:0000d268       ??_C@_0P@NGHKNFFM@prof_pcs_stubs@ 710c1268     options.obj
 0002:0000d278       ??_C@_0P@EGFDNHHH@prof_pcs_ntdll@ 710c1278     options.obj
 0002:0000d288       ??_C@_0BA@OCKFIDLH@prof_pcs_global@ 710c1288     options.obj
 0002:0000d298       ??_C@_0O@JFNIDBOK@prof_pcs_freq@ 710c1298     options.obj
 0002:0000d2a8       ??_C@_0M@NKLAHCJ@msgbox_mask@ 710c12a8     options.obj
 0002:0000d2b4       ??_C@_0BB@KIBKAJMO@eventlog_timeout@ 710c12b4     options.obj
 0002:0000d2c8       ??_C@_0M@HNDMHHGI@syslog_mask@ 710c12c8     options.obj
 0002:0000d2d4       ??_C@_0BF@HIHHIGFB@syslog_internal_mask@ 710c12d4     options.obj
 0002:0000d2ec       ??_C@_0M@MDEOJMG@syslog_init@ 710c12ec     options.obj
 0002:0000d2f8       ??_C@_0BF@IOMDKEHA@internal_detach_mask@ 710c12f8     options.obj
 0002:0000d310       ??_C@_0O@BFJOIPPM@dumpcore_mask@ 710c1310     options.obj
 0002:0000d320       ??_C@_0BN@HJAPDIHI@dumpcore_violation_threshold@ 710c1320     options.obj
 0002:0000d340       ??_C@_09DGGEKFFJ@live_dump@ 710c1340     options.obj
 0002:0000d34c       ??_C@_0O@FEPDNLMH@external_dump@ 710c134c     options.obj
 0002:0000d35c       ??_C@_0M@NCBIBDG@stderr_mask@ 710c135c     options.obj
 0002:0000d368       ??_C@_0O@MNGFBMKJ@appfault_mask@ 710c1368     options.obj
 0002:0000d378       ??_C@_0M@LDBGBFFJ@diagnostics@ 710c1378     options.obj
 0002:0000d384       ??_C@_0BJ@KGMKFPOE@max_supported_os_version@ 710c1384     options.obj
 0002:0000d3a0       ??_C@_07DCFCJKKK@os_aslr@  710c13a0     options.obj
 0002:0000d3a8       ??_C@_0BA@PCILKBLG@os_aslr_version@ 710c13a8     options.obj
 0002:0000d3b8       ??_C@_0BA@KDOPPBOJ@svchost_timeout@ 710c13b8     options.obj
 0002:0000d3c8       ??_C@_0BB@DBKECCBH@deadlock_timeout@ 710c13c8     options.obj
 0002:0000d3dc       ??_C@_0L@NELPJPHD@stack_size@ 710c13dc     options.obj
 0002:0000d3e8       ??_C@_0BF@KEICJEAP@stack_shares_gencode@ 710c13e8     options.obj
 0002:0000d400       ??_C@_0BG@FAGKJGIB@spinlock_count_on_SMP@ 710c1400     options.obj
 0002:0000d418       ??_C@_0BD@LNHCEIIP@nop_initial_bblock@ 710c1418     options.obj
 0002:0000d42c       ??_C@_09LMCAMFHG@nullcalls@ 710c142c     options.obj
 0002:0000d438       ??_C@_0BA@GHJKABJM@trace_threshold@ 710c1438     options.obj
 0002:0000d448       ??_C@_0P@LGLPAPEG@disable_traces@ 710c1448     options.obj
 0002:0000d458       ??_C@_0O@KBELACGP@enable_traces@ 710c1458     options.obj
 0002:0000d468       ??_C@_0BI@FILEDPNI@trace_counter_on_delete@ 710c1468     options.obj
 0002:0000d480       ??_C@_0O@OLBDDKIK@max_elide_jmp@ 710c1480     options.obj
 0002:0000d490       ??_C@_0P@JGDENKHC@max_elide_call@ 710c1490     options.obj
 0002:0000d4a0       ??_C@_0BA@BOMLLMPP@elide_back_jmps@ 710c14a0     options.obj
 0002:0000d4b0       ??_C@_0BB@MGEELOKH@elide_back_calls@ 710c14b0     options.obj
 0002:0000d4c4       ??_C@_0BD@KCODGNLB@selfmod_max_writes@ 710c14c4     options.obj
 0002:0000d4d8       ??_C@_0O@BBPGELP@max_bb_instrs@ 710c14d8     options.obj
 0002:0000d4e8       ??_C@_0BB@HNIBBOHI@process_SEH_push@ 710c14e8     options.obj
 0002:0000d4fc       ??_C@_0BD@IDJPCFBE@check_for_SEH_push@ 710c14fc     options.obj
 0002:0000d510       ??_C@_0L@LKCDEBII@shared_bbs@ 710c1510     options.obj
 0002:0000d51c       ??_C@_0O@NKEGFBCK@shared_traces@ 710c151c     options.obj
 0002:0000d52c       ??_C@_0P@NDEKLHCN@thread_private@ 710c152c     options.obj
 0002:0000d53c       ??_C@_0BK@BLIPPLDC@remove_shared_trace_heads@ 710c153c     options.obj
 0002:0000d558       ??_C@_0BI@DOKCHNEP@remove_trace_components@ 710c1558     options.obj
 0002:0000d570       ??_C@_0BA@MEOGEMGP@shared_deletion@ 710c1570     options.obj
 0002:0000d580       ??_C@_0BF@FGGJJJGP@syscalls_synch_flush@ 710c1580     options.obj
 0002:0000d598       ??_C@_0BK@FPPHJCOM@lazy_deletion_max_pending@ 710c1598     options.obj
 0002:0000d5b4       ??_C@_0BG@PGKKLBEC@free_unmapped_futures@ 710c15b4     options.obj
 0002:0000d5cc       ??_C@_0BC@PFMAEKLA@private_ib_in_tls@ 710c15cc     options.obj
 0002:0000d5e0       ??_C@_0BE@HMGEEGCL@single_thread_in_DR@ 710c15e0     options.obj
 0002:0000d5f4       ??_C@_0BH@MDFEODMM@separate_private_stubs@ 710c15f4     options.obj
 0002:0000d60c       ??_C@_0BG@GEKKBHPB@separate_shared_stubs@ 710c160c     options.obj
 0002:0000d624       ??_C@_0BD@NOEKLGMI@free_private_stubs@ 710c1624     options.obj
 0002:0000d638       ??_C@_0BJ@FNCNIHKA@unsafe_free_shared_stubs@ 710c1638     options.obj
 0002:0000d654       ??_C@_0BA@LPCDKNMI@cbr_single_stub@ 710c1654     options.obj
 0002:0000d664       ??_C@_0P@LLDKFBIK@indirect_stubs@ 710c1664     options.obj
 0002:0000d674       ??_C@_0O@IMKEJACC@inline_bb_ibl@ 710c1674     options.obj
 0002:0000d684       ??_C@_0BH@LOGJAIHB@atomic_inlined_linking@ 710c1684     options.obj
 0002:0000d69c       ??_C@_0BB@BGMFKDLE@inline_trace_ibl@ 710c169c     options.obj
 0002:0000d6b0       ??_C@_0BF@OLNNFHP@shared_bb_ibt_tables@ 710c16b0     options.obj
 0002:0000d6c8       ??_C@_0BI@BMGNKPNI@shared_trace_ibt_tables@ 710c16c8     options.obj
 0002:0000d6e0       ??_C@_0BM@POLGDDNG@ref_count_shared_ibt_tables@ 710c16e0     options.obj
 0002:0000d6fc       ??_C@_0BB@ELMMCOFG@ibl_table_in_tls@ 710c16fc     options.obj
 0002:0000d710       ??_C@_0P@GJJPIALH@bb_ibl_targets@ 710c1710     options.obj
 0002:0000d720       ??_C@_0BN@MKICGLEE@bb_ibt_table_includes_traces@ 710c1720     options.obj
 0002:0000d740       ??_C@_0BJ@LAEOCIED@bb_single_restore_prefix@ 710c1740     options.obj
 0002:0000d75c       ??_C@_0BM@DKBOCGHF@trace_single_restore_prefix@ 710c175c     options.obj
 0002:0000d778       ??_C@_0BK@HHECHNKE@rehash_unlinked_threshold@ 710c1778     options.obj
 0002:0000d794       ??_C@_0BH@CMKDAJHN@rehash_unlinked_always@ 710c1794     options.obj
 0002:0000d7ac       ??_C@_0BA@EGMFAPF@shared_bbs_only@ 710c17ac     options.obj
 0002:0000d7bc       ??_C@_0BJ@CCNMHKJG@shared_trace_ibl_routine@ 710c17bc     options.obj
 0002:0000d7d8       ??_C@_0BE@ONPCCLFH@speculate_last_exit@ 710c17d8     options.obj
 0002:0000d7ec       ??_C@_0O@LEPKFAJF@max_trace_bbs@ 710c17ec     options.obj
 0002:0000d7fc       ??_C@_0N@CBGJPHNI@protect_mask@ 710c17fc     options.obj
 0002:0000d80c       ??_C@_0BJ@DMMPLHMD@single_privileged_thread@ 710c180c     options.obj
 0002:0000d828       ??_C@_0O@MPKJOLBG@alt_hash_func@ 710c1828     options.obj
 0002:0000d838       ??_C@_0BF@EIJPCMBL@ibl_hash_func_offset@ 710c1838     options.obj
 0002:0000d850       ??_C@_0BI@JFMALDJP@ibl_indcall_hash_offset@ 710c1850     options.obj
 0002:0000d868       ??_C@_0P@MLMFODDA@shared_bb_load@ 710c1868     options.obj
 0002:0000d878       ??_C@_0BC@GFLJGPHE@shared_trace_load@ 710c1878     options.obj
 0002:0000d88c       ??_C@_0BD@NIOOMNHL@shared_future_load@ 710c188c     options.obj
 0002:0000d8a0       ??_C@_0BH@MOPOHIAK@shared_after_call_load@ 710c18a0     options.obj
 0002:0000d8b8       ??_C@_0BH@CNCFFPPG@global_rct_ind_br_load@ 710c18b8     options.obj
 0002:0000d8d0       ??_C@_0BD@KAHKICIA@private_trace_load@ 710c18d0     options.obj
 0002:0000d8e4       ??_C@_0BJ@JLFLBOLE@private_ibl_targets_load@ 710c18e4     options.obj
 0002:0000d900       ??_C@_0BM@LBJLDLJD@private_bb_ibl_targets_load@ 710c1900     options.obj
 0002:0000d91c       ??_C@_0BM@JGPGLLEP@shared_ibt_table_trace_init@ 710c191c     options.obj
 0002:0000d938       ??_C@_0BJ@MMBACLEG@shared_ibt_table_bb_init@ 710c1938     options.obj
 0002:0000d954       ??_C@_0BM@KCHLBALD@shared_ibt_table_trace_load@ 710c1954     options.obj
 0002:0000d970       ??_C@_0BJ@PIJNIALK@shared_ibt_table_bb_load@ 710c1970     options.obj
 0002:0000d98c       ??_C@_0BD@JJLNBMAN@coarse_htable_load@ 710c198c     options.obj
 0002:0000d9a0       ??_C@_0BG@ECBGKLHA@coarse_th_htable_load@ 710c19a0     options.obj
 0002:0000d9b8       ??_C@_0BM@HGJGGLOG@coarse_pclookup_htable_load@ 710c19b8     options.obj
 0002:0000d9d4       ??_C@_0N@HFJFHPFO@bb_ibt_groom@ 710c19d4     options.obj
 0002:0000d9e4       ??_C@_0BA@ILALLIHP@trace_ibt_groom@ 710c19e4     options.obj
 0002:0000d9f4       ??_C@_0BP@KOHGOHIJ@private_trace_ibl_targets_init@ 710c19f4     options.obj
 0002:0000da14       ??_C@_0BM@IFBGJAGP@private_bb_ibl_targets_init@ 710c1a14     options.obj
 0002:0000da30       ??_C@_0BO@CHACIFLH@private_trace_ibl_targets_max@ 710c1a30     options.obj
 0002:0000da50       ??_C@_0BL@PDCPPBAN@private_bb_ibl_targets_max@ 710c1a50     options.obj
 0002:0000da6c       ??_C@_0BA@DJHHMNLO@private_bb_load@ 710c1a6c     options.obj
 0002:0000da7c       ??_C@_0BE@GCPLDIJD@private_future_load@ 710c1a7c     options.obj
 0002:0000da90       ??_C@_0BC@JENCJPIL@spin_yield_rwlock@ 710c1a90     options.obj
 0002:0000daa4       ??_C@_0BE@CGDKFDEN@simulate_contention@ 710c1aa4     options.obj
 0002:0000dab8       ??_C@_0P@ODJJKCIM@vmm_block_size@ 710c1ab8     options.obj
 0002:0000dac8       ??_C@_0BH@FDGFGDOL@initial_heap_unit_size@ 710c1ac8     options.obj
 0002:0000dae0       ??_C@_0BK@DFBMMHFG@initial_heap_nonpers_size@ 710c1ae0     options.obj
 0002:0000dafc       ??_C@_0BO@LEGDNIMF@initial_global_heap_unit_size@ 710c1afc     options.obj
 0002:0000db1c       ??_C@_0BD@DLFEBOOO@max_heap_unit_size@ 710c1b1c     options.obj
 0002:0000db30       ??_C@_0BG@OFKENKDF@heap_commit_increment@ 710c1b30     options.obj
 0002:0000db48       ??_C@_0BH@MDMFHPEG@cache_commit_increment@ 710c1b48     options.obj
 0002:0000db60       ??_C@_0N@OFFIGIAG@cache_bb_max@ 710c1b60     options.obj
 0002:0000db70       ??_C@_0BD@CDCLECKE@cache_bb_unit_init@ 710c1b70     options.obj
 0002:0000db84       ??_C@_0BC@HCKKFNKI@cache_bb_unit_max@ 710c1b84     options.obj
 0002:0000db98       ??_C@_0BI@NFHMCDAE@cache_bb_unit_quadruple@ 710c1b98     options.obj
 0002:0000dbb0       ??_C@_0BA@FNOABMH@cache_trace_max@ 710c1bb0     options.obj
 0002:0000dbc0       ??_C@_0BG@MGNKDMO@cache_trace_unit_init@ 710c1bc0     options.obj
 0002:0000dbd8       ??_C@_0BF@FLDHLAJE@cache_trace_unit_max@ 710c1bd8     options.obj
 0002:0000dbf0       ??_C@_0BL@ODGKDKK@cache_trace_unit_quadruple@ 710c1bf0     options.obj
 0002:0000dc0c       ??_C@_0BE@CELBMFOD@cache_shared_bb_max@ 710c1c0c     options.obj
 0002:0000dc20       ??_C@_0BK@NGAPGBHH@cache_shared_bb_unit_init@ 710c1c20     options.obj
 0002:0000dc3c       ??_C@_0BJ@FJENNJPP@cache_shared_bb_unit_max@ 710c1c3c     options.obj
 0002:0000dc58       ??_C@_0BP@PPCBNNJJ@cache_shared_bb_unit_quadruple@ 710c1c58     options.obj
 0002:0000dc78       ??_C@_0BH@GIIIILDF@cache_shared_trace_max@ 710c1c78     options.obj
 0002:0000dc90       ??_C@_0BN@BAILLOC@cache_shared_trace_unit_init@ 710c1c90     options.obj
 0002:0000dcb0       ??_C@_0BM@FDEFKCBO@cache_shared_trace_unit_max@ 710c1cb0     options.obj
 0002:0000dccc       ??_C@_0CC@GEBIGJFJ@cache_shared_trace_unit_quadrup@ 710c1ccc     options.obj
 0002:0000dcf0       ??_C@_0BE@CLLBKDL@cache_coarse_bb_max@ 710c1cf0     options.obj
 0002:0000dd04       ??_C@_0BK@HALKMNIL@cache_coarse_bb_unit_init@ 710c1d04     options.obj
 0002:0000dd20       ??_C@_0BJ@FALGECFK@cache_coarse_bb_unit_max@ 710c1d20     options.obj
 0002:0000dd3c       ??_C@_0BP@EOJAOBOM@cache_coarse_bb_unit_quadruple@ 710c1d3c     options.obj
 0002:0000dd5c       ??_C@_0BA@KFABLMEK@finite_bb_cache@ 710c1d5c     options.obj
 0002:0000dd6c       ??_C@_0BD@HKIACNIF@finite_trace_cache@ 710c1d6c     options.obj
 0002:0000dd80       ??_C@_0BH@DCPFBPLO@finite_shared_bb_cache@ 710c1d80     options.obj
 0002:0000dd98       ??_C@_0BK@PHLHCPDB@finite_shared_trace_cache@ 710c1d98     options.obj
 0002:0000ddb4       ??_C@_0BH@GNHILJOG@finite_coarse_bb_cache@ 710c1db4     options.obj
 0002:0000ddcc       ??_C@_0BG@MNPDBKAH@cache_bb_unit_upgrade@ 710c1dcc     options.obj
 0002:0000dde4       ??_C@_0BJ@FAGJHCNG@cache_trace_unit_upgrade@ 710c1de4     options.obj
 0002:0000de00       ??_C@_0BN@MAJGACCL@cache_shared_bb_unit_upgrade@ 710c1e00     options.obj
 0002:0000de20       ??_C@_0CA@NOPNMANB@cache_shared_trace_unit_upgrade@ 710c1e20     options.obj
 0002:0000de40       ??_C@_0BN@MFPBDMNP@cache_coarse_bb_unit_upgrade@ 710c1e40     options.obj
 0002:0000de60       ??_C@_0P@KPCLLFBB@cache_bb_regen@ 710c1e60     options.obj
 0002:0000de70       ??_C@_0BB@PBGJGBKH@cache_bb_replace@ 710c1e70     options.obj
 0002:0000de84       ??_C@_0BC@EJKEGKGE@cache_trace_regen@ 710c1e84     options.obj
 0002:0000de98       ??_C@_0BE@LFENMFNO@cache_trace_replace@ 710c1e98     options.obj
 0002:0000deac       ??_C@_0BG@CEEFKMAE@cache_shared_bb_regen@ 710c1eac     options.obj
 0002:0000dec4       ??_C@_0BI@KCLHKEBN@cache_shared_bb_replace@ 710c1ec4     options.obj
 0002:0000dedc       ??_C@_0BJ@GCEDOODD@cache_shared_trace_regen@ 710c1edc     options.obj
 0002:0000def8       ??_C@_0BL@KKGCGCJD@cache_shared_trace_replace@ 710c1ef8     options.obj
 0002:0000df14       ??_C@_0BG@HLMIAKFM@cache_coarse_bb_regen@ 710c1f14     options.obj
 0002:0000df2c       ??_C@_0BI@OPGACKBB@cache_coarse_bb_replace@ 710c1f2c     options.obj
 0002:0000df44       ??_C@_0BC@CCKNNLHN@cache_trace_align@ 710c1f44     options.obj
 0002:0000df58       ??_C@_0P@MECCAEAI@cache_bb_align@ 710c1f58     options.obj
 0002:0000df68       ??_C@_0BD@OOLMDKGG@cache_coarse_align@ 710c1f68     options.obj
 0002:0000df7c       ??_C@_0BF@MDAIFFHD@ro2sandbox_threshold@ 710c1f7c     options.obj
 0002:0000df94       ??_C@_0BF@GEOBPJEH@sandbox2ro_threshold@ 710c1f94     options.obj
 0002:0000dfac       ??_C@_0BB@MKMJKNL@sandbox_writable@ 710c1fac     options.obj
 0002:0000dfc0       ??_C@_0BB@DOJMIJIH@sandbox_non_text@ 710c1fc0     options.obj
 0002:0000dfd4       ??_C@_0BH@NDFMKIPI@cache_shared_free_list@ 710c1fd4     options.obj
 0002:0000dfec       ??_C@_0N@PKEAFJBO@enable_reset@ 710c1fec     options.obj
 0002:0000dffc       ??_C@_0BI@KGGHBDKI@reset_at_fragment_count@ 710c1ffc     options.obj
 0002:0000e014       ??_C@_0BE@FNOAFBMG@reset_at_nth_thread@ 710c2014     options.obj
 0002:0000e028       ??_C@_0CA@DIJBFKGC@switch_to_os_at_vmm_reset_limit@ 710c2028     options.obj
 0002:0000e048       ??_C@_0CD@PLEFLFNI@reset_at_switch_to_os_at_vmm_li@ 710c2048     options.obj
 0002:0000e06c       ??_C@_0CA@CDCLBKNK@reset_at_vmm_percent_free_limit@ 710c206c     options.obj
 0002:0000e08c       ??_C@_0BI@GAFPGBEB@reset_at_vmm_free_limit@ 710c208c     options.obj
 0002:0000e0a4       ??_C@_0BL@DCFNPCBF@report_reset_vmm_threshold@ 710c20a4     options.obj
 0002:0000e0c0       ??_C@_0BC@CBNGNGCP@reset_at_vmm_full@ 710c20c0     options.obj
 0002:0000e0d4       ??_C@_0CD@PPKAHJHK@reset_at_commit_percent_free_li@ 710c20d4     options.obj
 0002:0000e0f8       ??_C@_0BL@GOFEKBCP@reset_at_commit_free_limit@ 710c20f8     options.obj
 0002:0000e114       ??_C@_0BO@LPANJHH@report_reset_commit_threshold@ 710c2114     options.obj
 0002:0000e134       ??_C@_0BI@LMHAGLJK@reset_every_nth_pending@ 710c2134     options.obj
 0002:0000e14c       ??_C@_0BF@KMMEFOKL@reset_at_nth_bb_unit@ 710c214c     options.obj
 0002:0000e164       ??_C@_0BI@GKDODNEF@reset_at_nth_trace_unit@ 710c2164     options.obj
 0002:0000e17c       ??_C@_0BI@CMJIGGNG@reset_every_nth_bb_unit@ 710c217c     options.obj
 0002:0000e194       ??_C@_0BL@EDFFGHOC@reset_every_nth_trace_unit@ 710c2194     options.obj
 0002:0000e1b0       ??_C@_0CB@DGEHMNIC@skip_out_of_vm_reserve_curiosit@ 710c21b0     options.obj
 0002:0000e1d4       ??_C@_0L@GJECEGCO@vm_reserve@ 710c21d4     options.obj
 0002:0000e1e0       ??_C@_07FOOLHPHE@vm_size@  710c21e0     options.obj
 0002:0000e1e8       ??_C@_0M@LEJINMAK@vmheap_size@ 710c21e8     options.obj
 0002:0000e1f4       ??_C@_0BC@OCMBJIPC@vmheap_size_wow64@ 710c21f4     options.obj
 0002:0000e208       ??_C@_07MJAONCCG@vm_base@  710c2208     options.obj
 0002:0000e210       ??_C@_0O@JACFNNKN@vm_max_offset@ 710c2210     options.obj
 0002:0000e220       ??_C@_0BF@KEIPPFAH@vm_allow_not_at_base@ 710c2220     options.obj
 0002:0000e238       ??_C@_0BB@LICKGGGC@vm_allow_smaller@ 710c2238     options.obj
 0002:0000e24c       ??_C@_0BB@LOICKFAE@vm_base_near_app@ 710c224c     options.obj
 0002:0000e260       ??_C@_0BA@OGKDHCKL@satisfy_w_xor_x@ 710c2260     options.obj
 0002:0000e270       ??_C@_0M@OCADLCCG@vm_use_last@ 710c2270     options.obj
 0002:0000e27c       ??_C@_0BA@MPLPJLM@silent_oom_mask@ 710c227c     options.obj
 0002:0000e28c       ??_C@_0BH@KNCNLENH@silent_commit_oom_list@ 710c228c     options.obj
 0002:0000e2a4       ??_C@_0M@DNJCCKIJ@oom_timeout@ 710c22a4     options.obj
 0002:0000e2b0       ??_C@_0BA@IHJNPENK@follow_children@ 710c22b0     options.obj
 0002:0000e2c0       ??_C@_0BC@LFHJOLNO@follow_systemwide@ 710c22c0     options.obj
 0002:0000e2d4       ??_C@_0BJ@JFOKMCDM@follow_explicit_children@ 710c22d4     options.obj
 0002:0000e2f0       ??_C@_0N@BPFLKNDF@early_inject@ 710c22f0     options.obj
 0002:0000e300       ??_C@_0BB@NHDHOAOP@early_inject_map@ 710c2300     options.obj
 0002:0000e314       ??_C@_0BG@PGEANJJE@early_inject_location@ 710c2314     options.obj
 0002:0000e32c       ??_C@_0BF@OPNBFEEK@early_inject_address@ 710c232c     options.obj
 0002:0000e344       ??_C@_0BI@MMNAOFCO@early_inject_helper_dll@ 710c2344     options.obj
 0002:0000e35c       ??_C@_0BJ@HNIIOIID@early_inject_helper_name@ 710c235c     options.obj
 0002:0000e378       ??_C@_0BM@IKKEBBDA@early_inject_stress_helpers@ 710c2378     options.obj
 0002:0000e394       ??_C@_0BJ@JCPHMHEN@inject_at_create_process@ 710c2394     options.obj
 0002:0000e3b0       ??_C@_0BP@HJPJEEON@vista_inject_at_create_process@ 710c23b0     options.obj
 0002:0000e3d0       ??_C@_0P@PHOINLDK@inject_primary@ 710c23d0     options.obj
 0002:0000e3e0       ??_C@_0BH@PCHLJBJC@synch_thread_max_loops@ 710c23e0     options.obj
 0002:0000e3f8       ??_C@_0BM@NNPADEBK@synch_all_threads_max_loops@ 710c23f8     options.obj
 0002:0000e414       ??_C@_0BG@GFDBGPOE@synch_thread_sleep_UP@ 710c2414     options.obj
 0002:0000e42c       ??_C@_0BG@HHAEJNCM@synch_thread_sleep_MP@ 710c242c     options.obj
 0002:0000e444       ??_C@_0BG@ELOGOGAO@synch_with_sleep_time@ 710c2444     options.obj
 0002:0000e45c       ??_C@_0CJ@KGCKPEAK@suspend_on_synch_failure_for_ap@ 710c245c     options.obj
 0002:0000e488       ??_C@_0BA@FIMFJMMC@ignore_syscalls@ 710c2488     options.obj
 0002:0000e498       ??_C@_0BI@JKNBGIEK@inline_ignored_syscalls@ 710c2498     options.obj
 0002:0000e4b0       ??_C@_09MBGAKKEA@tls_align@ 710c24b0     options.obj
 0002:0000e4bc       ??_C@_0CA@MGEDBOJP@ignore_syscalls_follow_sysenter@ 710c24bc     options.obj
 0002:0000e4dc       ??_C@_0BA@CGIHCAM@shared_syscalls@ 710c24dc     options.obj
 0002:0000e4ec       ??_C@_0CA@CNMDNHFP@shared_fragment_shared_syscalls@ 710c24ec     options.obj
 0002:0000e50c       ??_C@_0BJ@EPFAJHFF@shared_syscalls_fastpath@ 710c250c     options.obj
 0002:0000e528       ??_C@_0BB@DFBBLFPP@shared_eq_ignore@ 710c2528     options.obj
 0002:0000e53c       ??_C@_09OGLNNOAL@tls_flags@ 710c253c     options.obj
 0002:0000e548       ??_C@_0M@JADDJDJE@alt_teb_tls@ 710c2548     options.obj
 0002:0000e554       ??_C@_0BD@PBMLHAND@safe_read_tls_init@ 710c2554     options.obj
 0002:0000e568       ??_C@_0M@HFFGEONM@guard_pages@ 710c2568     options.obj
 0002:0000e574       ??_C@_0BH@MEGMMBKN@per_thread_guard_pages@ 710c2574     options.obj
 0002:0000e58c       ??_C@_0BC@HELPICGE@stack_guard_pages@ 710c258c     options.obj
 0002:0000e5a0       ??_C@_0BG@NBAJHNJD@enable_block_mod_load@ 710c25a0     options.obj
 0002:0000e5b8       ??_C@_0BM@HECJKBFC@block_mod_load_list_default@ 710c25b8     options.obj
 0002:0000e5d4       ??_C@_0BE@BFDKJHFH@block_mod_load_list@ 710c25d4     options.obj
 0002:0000e5e8       ??_C@_0BB@NAFKFPM@handle_DR_modify@ 710c25e8     options.obj
 0002:0000e5fc       ??_C@_0BE@NLPDFKJF@handle_ntdll_modify@ 710c25fc     options.obj
 0002:0000e610       ??_C@_0BJ@OEEMFOD@patch_proof_default_list@ 710c2610     options.obj
 0002:0000e62c       ??_C@_0BB@DHDHHFKD@patch_proof_list@ 710c262c     options.obj
 0002:0000e640       ??_C@_0N@KFMGBFJF@use_moduledb@ 710c2640     options.obj
 0002:0000e650       ??_C@_06GCIOJDMP@staged@   710c2650     options.obj
 0002:0000e658       ??_C@_0CA@EPPELNBC@allowlist_company_names_default@ 710c2658     options.obj
 0002:0000e678       ??_C@_0BI@JOLPCKEE@allowlist_company_names@ 710c2678     options.obj
 0002:0000e690       ??_C@_0BG@GPLOCDEI@unknown_module_policy@ 710c2690     options.obj
 0002:0000e6a8       ??_C@_0BP@OAJEFJGE@unknown_module_load_report_max@ 710c26a8     options.obj
 0002:0000e6c8       ??_C@_0BP@IAEDBNNH@moduledb_exemptions_report_max@ 710c26c8     options.obj
 0002:0000e6e8       ??_C@_0BK@PIFFCLAE@unloaded_target_exception@ 710c26e8     options.obj
 0002:0000e704       ??_C@_04IBOFHAPJ@hide@     710c2704     options.obj
 0002:0000e70c       ??_C@_0BA@KGFAPLBI@hide_from_query@ 710c270c     options.obj
 0002:0000e71c       ??_C@_0BH@EJMBBPLG@track_module_filenames@ 710c271c     options.obj
 0002:0000e734       ??_C@_0N@CDONDLPL@allow_detach@ 710c2734     options.obj
 0002:0000e744       ??_C@_08OMGFKNBG@noasynch@ 710c2744     options.obj
 0002:0000e750       ??_C@_0BF@KPPHDLON@hw_cache_consistency@ 710c2750     options.obj
 0002:0000e768       ??_C@_0P@ELODBAMO@sandbox_writes@ 710c2768     options.obj
 0002:0000e778       ??_C@_0BH@FADLACH@safe_translate_flushed@ 710c2778     options.obj
 0002:0000e790       ??_C@_0BD@HPEECMLF@store_translations@ 710c2790     options.obj
 0002:0000e7a4       ??_C@_0BB@EALMBJBP@translate_fpu_pc@ 710c27a4     options.obj
 0002:0000e7b8       ??_C@_0BD@IIPCGLEA@validate_owner_dir@ 710c27b8     options.obj
 0002:0000e7cc       ??_C@_0BE@CKGPBAD@validate_owner_file@ 710c27cc     options.obj
 0002:0000e7e0       ??_C@_0N@JCADCPDG@coarse_units@ 710c27e0     options.obj
 0002:0000e7f0       ??_C@_0BA@OFFGIAHJ@enable_full_api@ 710c27f0     options.obj
 0002:0000e800       ??_C@_0BF@IPOFPGNC@coarse_enable_freeze@ 710c2800     options.obj
 0002:0000e818       ??_C@_0BG@ODLOIJFC@coarse_freeze_at_exit@ 710c2818     options.obj
 0002:0000e830       ??_C@_0BI@KJMEMKPO@coarse_freeze_at_unload@ 710c2830     options.obj
 0002:0000e848       ??_C@_0BH@EKDNFAGL@coarse_freeze_min_size@ 710c2848     options.obj
 0002:0000e860       ??_C@_0BK@MNPCAAGG@coarse_freeze_append_size@ 710c2860     options.obj
 0002:0000e87c       ??_C@_0BG@OCODBFHO@coarse_freeze_rct_min@ 710c287c     options.obj
 0002:0000e894       ??_C@_0BG@CDBEGOCC@coarse_freeze_clobber@ 710c2894     options.obj
 0002:0000e8ac       ??_C@_0BF@LBCNIKDG@coarse_freeze_rename@ 710c28ac     options.obj
 0002:0000e8c4       ??_C@_0BE@CCANOAGB@coarse_freeze_clean@ 710c28c4     options.obj
 0002:0000e8d8       ??_C@_0BE@DPKACJDP@coarse_freeze_merge@ 710c28d8     options.obj
 0002:0000e8ec       ??_C@_0BC@IJPEIC@coarse_lone_merge@ 710c28ec     options.obj
 0002:0000e900       ??_C@_0BC@PPFBNCJE@coarse_disk_merge@ 710c2900     options.obj
 0002:0000e914       ??_C@_0BL@NCJEAOAI@coarse_freeze_rebased_aslr@ 710c2914     options.obj
 0002:0000e930       ??_C@_0BI@JIAAMJIN@coarse_freeze_elide_ubr@ 710c2930     options.obj
 0002:0000e948       ??_C@_0BN@HMALKFP@unsafe_freeze_elide_sole_ubr@ 710c2948     options.obj
 0002:0000e968       ??_C@_0BG@EKHIPEJN@coarse_pclookup_table@ 710c2968     options.obj
 0002:0000e980       ??_C@_0BA@EAPFNFJF@persist_per_app@ 710c2980     options.obj
 0002:0000e990       ??_C@_0BB@BEHGFN@persist_per_user@ 710c2990     options.obj
 0002:0000e9a4       ??_C@_0O@PFBADAKG@use_persisted@ 710c29a4     options.obj
 0002:0000e9b4       ??_C@_0BF@FKNCKJMH@persist_exclude_list@ 710c29b4     options.obj
 0002:0000e9cc       ??_C@_0BA@EJMCGJPC@coarse_fill_ibl@ 710c29cc     options.obj
 0002:0000e9dc       ??_C@_0BI@NOLMMIPD@persist_map_rw_separate@ 710c29dc     options.obj
 0002:0000e9f4       ??_C@_0BC@BLIIPCLB@persist_lock_file@ 710c29f4     options.obj
 0002:0000ea08       ??_C@_0BH@JBDEGNLD@persist_gen_validation@ 710c2a08     options.obj
 0002:0000ea20       ??_C@_0BI@LJLEBBPL@persist_load_validation@ 710c2a20     options.obj
 0002:0000ea38       ??_C@_0BF@PHNLCEGF@persist_short_digest@ 710c2a38     options.obj
 0002:0000ea50       ??_C@_0BG@OIIFOHFL@persist_check_options@ 710c2a50     options.obj
 0002:0000ea68       ??_C@_0BM@JIBAHNJE@persist_check_local_options@ 710c2a68     options.obj
 0002:0000ea84       ??_C@_0BP@HOPBGFAJ@persist_check_exempted_options@ 710c2a84     options.obj
 0002:0000eaa4       ??_C@_0BG@GMNHENFA@persist_protect_stubs@ 710c2aa4     options.obj
 0002:0000eabc       ??_C@_0BM@KNDDAHKL@persist_protect_stubs_limit@ 710c2abc     options.obj
 0002:0000ead8       ??_C@_0BE@GKGHPKEL@persist_touch_stubs@ 710c2ad8     options.obj
 0002:0000eaec       ??_C@_0BB@DJBCOPBE@coarse_merge_iat@ 710c2aec     options.obj
 0002:0000eb00       ??_C@_0BD@BEMOFINO@coarse_split_calls@ 710c2b00     options.obj
 0002:0000eb14       ??_C@_0M@GMOOMFMP@persist_dir@ 710c2b14     options.obj
 0002:0000eb20       ??_C@_0BD@JALAPONE@persist_shared_dir@ 710c2b20     options.obj
 0002:0000eb34       ??_C@_07EMFBDGOD@persist@  710c2b34     options.obj
 0002:0000eb3c       ??_C@_07PMEPBGIG@desktop@  710c2b3c     options.obj
 0002:0000eb44       ??_C@_0M@GKINNNPF@native_exec@ 710c2b44     options.obj
 0002:0000eb50       ??_C@_0BJ@OJPFOAGH@native_exec_default_list@ 710c2b50     options.obj
 0002:0000eb6c       ??_C@_0BB@NIMFEHIL@native_exec_list@ 710c2b6c     options.obj
 0002:0000eb80       ??_C@_0BF@PAGEFDAN@native_exec_syscalls@ 710c2b80     options.obj
 0002:0000eb98       ??_C@_0BF@OCAJEGCK@native_exec_dircalls@ 710c2b98     options.obj
 0002:0000ebb0       ??_C@_0BF@NGMKOADD@native_exec_callcall@ 710c2bb0     options.obj
 0002:0000ebc8       ??_C@_0BI@CIKJGAIL@native_exec_guess_calls@ 710c2bc8     options.obj
 0002:0000ebe0       ??_C@_0BJ@MAIJIDEP@native_exec_managed_code@ 710c2be0     options.obj
 0002:0000ebfc       ??_C@_0BF@BDDBPCIC@native_exec_dot_pexe@ 710c2bfc     options.obj
 0002:0000ec14       ??_C@_0BH@DNIAMMKO@native_exec_retakeover@ 710c2c14     options.obj
 0002:0000ec2c       ??_C@_0BA@NBAHEFFL@native_exec_opt@ 710c2c2c     options.obj
 0002:0000ec3c       ??_C@_0BJ@JJIBNDBG@skip_terminating_threads@ 710c2c3c     options.obj
 0002:0000ec58       ??_C@_0BI@GDANNJPA@sleep_between_takeovers@ 710c2c58     options.obj
 0002:0000ec70       ??_C@_0BC@FMNHJOAP@takeover_attempts@ 710c2c70     options.obj
 0002:0000ec84       ??_C@_0N@IJIODOM@inline_calls@ 710c2c84     options.obj
 0002:0000ec94       ??_C@_0P@DDLELKMK@indcall2direct@ 710c2c94     options.obj
 0002:0000eca4       ??_C@_0M@FEBKDNKH@IAT_convert@ 710c2ca4     options.obj
 0002:0000ecb0       ??_C@_09KGEDIIPH@IAT_elide@ 710c2cb0     options.obj
 0002:0000ecbc       ??_C@_0BJ@IIJAJJAK@unsafe_IAT_ignore_hooker@ 710c2cbc     options.obj
 0002:0000ecd8       ??_C@_0O@GIGDDAGP@thread_policy@ 710c2cd8     options.obj
 0002:0000ece8       ??_C@_0L@KBMJCGNP@apc_policy@ 710c2ce8     options.obj
 0002:0000ecf4       ??_C@_0BB@LJADALBK@hook_image_entry@ 710c2cf4     options.obj
 0002:0000ed08       ??_C@_0BG@KKGKMKLP@hook_ldr_dll_routines@ 710c2d08     options.obj
 0002:0000ed20       ??_C@_0BA@KJCCNHLP@clean_testalert@ 710c2d20     options.obj
 0002:0000ed30       ??_C@_0O@KLEABIEL@hook_conflict@ 710c2d30     options.obj
 0002:0000ed40       ??_C@_0BK@BAHFFJLM@native_exec_hook_conflict@ 710c2d40     options.obj
 0002:0000ed5c       ??_C@_0O@NDMEIMMK@dr_sygate_int@ 710c2d5c     options.obj
 0002:0000ed6c       ??_C@_0BD@HLNNONFL@dr_sygate_sysenter@ 710c2d6c     options.obj
 0002:0000ed80       ??_C@_0L@GIMOEIGB@sygate_int@ 710c2d80     options.obj
 0002:0000ed8c       ??_C@_0BA@IPKDMICI@sygate_sysenter@ 710c2d8c     options.obj
 0002:0000ed9c       ??_C@_0BP@PDKOCINJ@native_exec_hook_create_thread@ 710c2d9c     options.obj
 0002:0000edbc       ??_C@_06HAMENCGL@sygate@   710c2dbc     options.obj
 0002:0000edc4       ??_C@_07GGIBFBPH@aslr_dr@  710c2dc4     options.obj
 0002:0000edcc       ??_C@_04LIMBHAFN@aslr@     710c2dcc     options.obj
 0002:0000edd4       ??_C@_01DGKLNCNG@R@        710c2dd4     options.obj
 0002:0000edd8       ??_C@_0M@JILNMNNF@aslr_action@ 710c2dd8     options.obj
 0002:0000ede4       ??_C@_0L@MDAOFJMO@aslr_retry@ 710c2de4     options.obj
 0002:0000edf0       ??_C@_0L@MEAMDKON@aslr_cache@ 710c2df0     options.obj
 0002:0000edfc       ??_C@_0O@PCPDNKLC@min_free_disk@ 710c2dfc     options.obj
 0002:0000ee0c       ??_C@_0O@FGKILGNH@aslr_internal@ 710c2e0c     options.obj
 0002:0000ee1c       ??_C@_0O@OCPBOLBM@aslr_dll_base@ 710c2e1c     options.obj
 0002:0000ee2c       ??_C@_0N@CAIIOLJE@aslr_dll_top@ 710c2e2c     options.obj
 0002:0000ee3c       ??_C@_0BA@HFEAHAKM@aslr_dll_offset@ 710c2e3c     options.obj
 0002:0000ee4c       ??_C@_0N@ILNKIGJM@aslr_dll_pad@ 710c2e4c     options.obj
 0002:0000ee5c       ??_C@_0BD@CJCGNBEG@aslr_parent_offset@ 710c2e5c     options.obj
 0002:0000ee70       ??_C@_0BJ@KEEIAPHF@aslr_heap_reserve_offset@ 710c2e70     options.obj
 0002:0000ee8c       ??_C@_0BN@CKHCHODC@aslr_heap_exe_reserve_offset@ 710c2e8c     options.obj
 0002:0000eeac       ??_C@_0BB@FELJCJAJ@aslr_reserve_pad@ 710c2eac     options.obj
 0002:0000eec0       ??_C@_0BA@LCLKLELK@aslr_validation@ 710c2ec0     options.obj
 0002:0000eed0       ??_C@_0BC@LFMACPEK@aslr_short_digest@ 710c2ed0     options.obj
 0002:0000eee4       ??_C@_0BE@LBNNPGMC@aslr_section_prefix@ 710c2ee4     options.obj
 0002:0000eef8       ??_C@_0BJ@PHKMAAHP@exempt_aslr_default_list@ 710c2ef8     options.obj
 0002:0000ef14       ??_C@_0BB@NACGGENF@exempt_aslr_list@ 710c2f14     options.obj
 0002:0000ef28       ??_C@_0L@MHLGKAIH@aslr_extra@ 710c2f28     options.obj
 0002:0000ef34       ??_C@_0BH@OAKPJMJD@exempt_aslr_extra_list@ 710c2f34     options.obj
 0002:0000ef4c       ??_C@_0BA@BDIOACJJ@aslr_cache_list@ 710c2f4c     options.obj
 0002:0000ef5c       ??_C@_0BI@JKFJMAMH@aslr_cache_include_list@ 710c2f5c     options.obj
 0002:0000ef74       ??_C@_0BI@ODMGDBCA@aslr_cache_exclude_list@ 710c2f74     options.obj
 0002:0000ef8c       ??_C@_0P@ODDDPLPI@aslr_safe_save@ 710c2f8c     options.obj
 0002:0000ef9c       ??_C@_06HIDOEFBI@medium@   710c2f9c     options.obj
 0002:0000efa4       ??_C@_03IMLOALHE@low@      710c2fa4     options.obj
 0002:0000efa8       ??_C@_06DGDLPBAN@client@   710c2fa8     options.obj
 0002:0000efb0       ??_C@_0L@BNBLFNCO@mute_nudge@ 710c2fb0     options.obj
 0002:0000efbc       ??_C@_09LPMGLJME@prng_seed@ 710c2fbc     options.obj
 0002:0000efc8       ??_C@_08DNBIFICC@pad_jmps@ 710c2fc8     options.obj
 0002:0000efd4       ??_C@_0BP@EJCGMBNN@pad_jmps_return_excess_padding@ 710c2fd4     options.obj
 0002:0000eff4       ??_C@_0BC@HAJLHLG@pad_jmps_shift_bb@ 710c2ff4     options.obj
 0002:0000f008       ??_C@_0BF@HHGFAOIH@pad_jmps_shift_trace@ 710c3008     options.obj
 0002:0000f020       ??_C@_0BH@FGNJNKFP@pad_jmps_set_alignment@ 710c3020     options.obj
 0002:0000f038       ??_C@_0BD@FJLHMKDE@ibl_sentinel_check@ 710c3038     options.obj
 0002:0000f04c       ??_C@_0BA@JEMHLHN@ibl_addr_prefix@ 710c304c     options.obj
 0002:0000f05c       ??_C@_0BD@LKEEMGFL@slowdown_ibl_found@ 710c305c     options.obj
 0002:0000f070       ??_C@_0BD@JAHJPIPO@stress_recreate_pc@ 710c3070     options.obj
 0002:0000f084       ??_C@_0BG@NGFKAKFD@stress_recreate_state@ 710c3084     options.obj
 0002:0000f09c       ??_C@_0BH@NBFAAJKK@detect_dangling_fcache@ 710c309c     options.obj
 0002:0000f0b4       ??_C@_0CF@NHLKLJHP@stress_detach_with_stacked_call@ 710c30b4     options.obj
 0002:0000f0dc       ??_C@_0BN@KNHHBEIF@detach_fix_sysenter_on_stack@ 710c30dc     options.obj
 0002:0000f0fc       ??_C@_0BE@OOPOIAAM@vmarea_initial_size@ 710c30fc     options.obj
 0002:0000f110       ??_C@_0BG@HACDADHG@vmarea_increment_size@ 710c3110     options.obj
 0002:0000f128       ??_C@_0BD@KLCJMLA@stress_fake_userva@ 710c3128     options.obj
 0002:0000f13c       ??_C@_0BF@IMACBEPO@unsafe_crash_process@ 710c313c     options.obj
 0002:0000f154       ??_C@_0BE@IDHHMILB@unsafe_hang_process@ 710c3154     options.obj
 0002:0000f168       ??_C@_0BH@DJNBFOAD@unsafe_ignore_overflow@ 710c3168     options.obj
 0002:0000f180       ??_C@_0BF@BJMLMBOE@unsafe_ignore_eflags@ 710c3180     options.obj
 0002:0000f198       ??_C@_0BL@PMKGHGNM@unsafe_ignore_eflags_trace@ 710c3198     options.obj
 0002:0000f1b4       ??_C@_0BM@FHHEEAPC@unsafe_ignore_eflags_prefix@ 710c31b4     options.obj
 0002:0000f1d0       ??_C@_0BJ@PLGDFHCL@unsafe_ignore_eflags_ibl@ 710c31d0     options.obj
 0002:0000f1ec       ??_C@_0BD@EINGKAHB@ignore_assert_list@ 710c31ec     options.obj
 0002:0000f200       ??_C@_0O@OIBHDBOK@synch_at_exit@ 710c3200     options.obj
 0002:0000f210       ??_C@_0BC@EGNDHEAB@multi_thread_exit@ 710c3210     options.obj
 0002:0000f224       ??_C@_0BJ@GCPKMMOC@skip_thread_exit_at_exit@ 710c3224     options.obj
 0002:0000f240       ??_C@_0BP@LOEINEMK@unsafe_ignore_takeover_timeout@ 710c3240     options.obj
 0002:0000f260       ??_C@_0BE@PEBGIKPK@takeover_timeout_ms@ 710c3260     options.obj
 0002:0000f274       ??_C@_0M@FGEKHANH@?5synthethic@ 710c3274     options.obj
 0002:0000f280       ??_C@_08FCDJGKEM@prefetch@ 710c3280     options.obj
 0002:0000f28c       ??_C@_03EDEJGBME@rlr@      710c328c     options.obj
 0002:0000f290       ??_C@_09MKOHDBBA@vectorize@ 710c3290     options.obj
 0002:0000f29c       ??_C@_0N@KPONKJKE@unroll_loops@ 710c329c     options.obj
 0002:0000f2ac       ??_C@_0N@IMGCCDDF@instr_counts@ 710c32ac     options.obj
 0002:0000f2bc       ??_C@_0N@FGAEEIA@stack_adjust@ 710c32bc     options.obj
 0002:0000f2cc       ??_C@_0BB@FKEEJJDC@remove_dead_code@ 710c32cc     options.obj
 0002:0000f2e0       ??_C@_0O@JBKMJJOA@constant_prop@ 710c32e0     options.obj
 0002:0000f2f0       ??_C@_0BF@EPFFNOKG@call_return_matching@ 710c32f0     options.obj
 0002:0000f308       ??_C@_0BL@BKIMAGMH@remove_unnecessary_zeroing@ 710c3308     options.obj
 0002:0000f324       ??_C@_08DALCJOKH@peephole@ 710c3324     options.obj
 0002:0000f330       ??_C@_0M@CIIMLBAM@thin_client@ 710c3330     options.obj
 0002:0000f33c       ??_C@_0L@HELMAADM@Continuing@ 710c333c     options.obj
 0002:0000f348       ??_C@_0DH@DFDEIABE@Application?5?$CFs?5?$CI?$CFs?$CJ?5option?5?$CFs?5i@ 710c3348     options.obj
 0002:0000f380       ??_C@_0N@PICEHFFO@SYSLOG_ERROR@ 710c3380     options.obj
 0002:0000f390       ??_C@_04OPBHEPOC@0x?$CFx@  710c3390     options.obj
 0002:0000f398       ??_C@_02DPKJAMEF@?$CFd@    710c3398     options.obj
 0002:0000f3a0       ??_C@_0EO@JIJIHHFL@Application?5?$CFs?5?$CI?$CFs?$CJ?4?5Option?5par@ 710c33a0     options.obj
 0002:0000f3f0       ??_C@_04BMELEEFH@?$CFu?$CFc@ 710c33f0     options.obj
 0002:0000f3f8       ??_C@_0EM@JEEPODPO@Application?5?$CFs?5?$CI?$CFs?$CJ?4?5Option?5par@ 710c33f8     options.obj
 0002:0000f444       ??_C@_04PEOOHEKN@?$CFd?$CFc@ 710c3444     options.obj
 0002:0000f450       ??_C@_0EM@OJLCINID@Application?5?$CFs?5?$CI?$CFs?$CJ?4?5Option?5par@ 710c3450     options.obj
 0002:0000f49c       ??_C@_01ICJEACDI@?$DL@     710c349c     options.obj
 0002:0000f4a0       ??_C@_03HLOKGNFF@no_@      710c34a0     options.obj
 0002:0000f4a4       ??_C@_05JJDEBGJM@?$DM?$CFs?$DO?6@ 710c34a4     options.obj
 0002:0000f4ac       ??_C@_02DKCKIIND@?$CFs@    710c34ac     options.obj
 0002:0000f4b0       ??_C@_0EC@KNGLKHOD@Application?5?$CFs?5?$CI?$CFs?$CJ?4?5Option?5par@ 710c34b0     options.obj
 0002:0000f4f2       ??_C@_00CNPNBAHC@@         710c34f2     options.obj
 0002:0000f4f4       ??_C@_06HBDFNLOA@?9?$CFs?$CFs?5@ 710c34f4     options.obj
 0002:0000f4fc       ??_C@_09BGIAJJAP@?9?$CFs?50x?$CFx?5@ 710c34fc     options.obj
 0002:0000f508       ??_C@_07HJAOMAFE@?9?$CFs?5?$CFu?5@ 710c3508     options.obj
 0002:0000f510       ??_C@_09KNHIICAH@?9?$CFs?5?$CFu?$CFc?5@ 710c3510     options.obj
 0002:0000f51c       ??_C@_07GEOKAJBD@?9?$CFs?5?$CFd?5@ 710c351c     options.obj
 0002:0000f524       ??_C@_09EBFGJJKF@?9?$CFs?5?8?$CFs?8?5@ 710c3524     options.obj
 0002:0000f530       ??_C@_0O@DKGHACLH@dynamorio?4dll@ 710c3530     options.obj
 0002:0000f540       ??_C@_0BC@KOPDOIAA@fatal?5usage?5error@ 710c3540     options.obj
 0002:0000f554       ??_C@_0DL@BPFOKDK@Application?5?$CFs?5?$CI?$CFs?$CJ?5bad?5option?5@ 710c3554     options.obj
 0002:0000f590       ??_C@_0BA@MELOJPHI@SYSLOG_CRITICAL@ 710c3590     options.obj
 0002:0000f5a0       ??_C@_0BC@JFEMBCBK@DYNAMORIO_OPTIONS@ 710c35a0     options.obj
 0002:0000f5b4       _DATASEC_SELFPROT          710c35b4     dynamo.obj
 0002:0000f5c4       _DATASEC_NAMES             710c35c4     dynamo.obj
 0002:0000f5d4       _datasec_writable_neverprot 710c35d4     dynamo.obj
 0002:0000f5d8       ??_C@_08IADABMBP@?4nspdata@ 710c35d8     dynamo.obj
 0002:0000f5e4       ??_C@_05LDKNOBJL@?4data@   710c35e4     dynamo.obj
 0002:0000f5ec       ??_C@_08FDNFAHKK@?4fspdata@ 710c35ec     dynamo.obj
 0002:0000f5f8       ??_C@_08BLDFAJMO@?4cspdata@ 710c35f8     dynamo.obj
 0002:0000f604       ??_C@_0CI@IOLHLAGN@Current?5threads?5under?5DynamoRIO@ 710c3604     dynamo.obj
 0002:0000f62c       ??_C@_0CF@LFLEHKAL@Peak?5threads?5under?5DynamoRIO?5co@ 710c362c     dynamo.obj
 0002:0000f654       ??_C@_0BF@JGKIEKIF@Threads?5ever?5created@ 710c3654     dynamo.obj
 0002:0000f66c       ??_C@_09GBNPILBN@Callbacks@ 710c366c     dynamo.obj
 0002:0000f678       ??_C@_04OBINGPBF@APCs@     710c3678     dynamo.obj
 0002:0000f680       ??_C@_0L@OGPLIMOG@Exceptions@ 710c3680     dynamo.obj
 0002:0000f68c       ??_C@_0BC@ECLPEIDC@System?5calls?0?5pre@ 710c368c     dynamo.obj
 0002:0000f6a0       ??_C@_0BD@DJBOACLK@System?5calls?0?5post@ 710c36a0     dynamo.obj
 0002:0000f6b4       ??_C@_0BH@KGFOFMKP@Native?5modules?5present@ 710c36b4     dynamo.obj
 0002:0000f6cc       ??_C@_0BC@LPNJDHBA@Application?5mmaps@ 710c36cc     dynamo.obj
 0002:0000f6e0       ??_C@_0BE@GFJLOGLJ@Application?5munmaps@ 710c36e0     dynamo.obj
 0002:0000f6f4       ??_C@_0CL@FGCFGKGI@Synch?5attempt?5failure?5b?1c?5not?5a@ 710c36f4     dynamo.obj
 0002:0000f720       ??_C@_0CA@FAACLDLC@Basic?5block?5fragments?5generated@ 710c3720     dynamo.obj
 0002:0000f740       ??_C@_0BK@EEACMCKH@Trace?5fragments?5generated@ 710c3740     dynamo.obj
 0002:0000f75c       ??_C@_0BL@JMJHPDDD@Current?5coarse?9grain?5units@ 710c375c     dynamo.obj
 0002:0000f778       ??_C@_0BI@CHDLDCDE@Peak?5coarse?9grain?5units@ 710c3778     dynamo.obj
 0002:0000f790       ??_C@_0CF@DBHDLAOD@Persisted?5caches?5successfully?5l@ 710c3790     dynamo.obj
 0002:0000f7b8       ??_C@_0BE@PFHIBJNG@Fcache?5exits?0?5total@ 710c37b8     dynamo.obj
 0002:0000f7cc       ??_C@_0CJ@BBABKLKC@Current?5fcache?5combined?5capacit@ 710c37cc     dynamo.obj
 0002:0000f7f8       ??_C@_0CG@LFOLGMAF@Peak?5fcache?5combined?5capacity?5?$CI@ 710c37f8     dynamo.obj
 0002:0000f820       ??_C@_0CC@PIPMKNJO@Current?5fcache?5units?5on?5live?5li@ 710c3820     dynamo.obj
 0002:0000f844       ??_C@_0BP@JIELOFAN@Peak?5fcache?5units?5on?5live?5list@ 710c3844     dynamo.obj
 0002:0000f864       ??_C@_0CC@DDHPNHDD@Current?5fcache?5units?5on?5free?5li@ 710c3864     dynamo.obj
 0002:0000f888       ??_C@_0BP@FDMIJPKA@Peak?5fcache?5units?5on?5free?5list@ 710c3888     dynamo.obj
 0002:0000f8a8       ??_C@_0CG@NCIOIAOJ@Current?5special?5heap?5capacity?5?$CI@ 710c38a8     dynamo.obj
 0002:0000f8d0       ??_C@_0CD@OFMEELPM@Peak?5special?5heap?5capacity?5?$CIbyt@ 710c38d0     dynamo.obj
 0002:0000f8f4       ??_C@_0CA@LDDFIMAF@Current?5heap?5units?5on?5live?5list@ 710c38f4     dynamo.obj
 0002:0000f914       ??_C@_0BN@BILHAKAB@Peak?5heap?5units?5on?5live?5list@ 710c3914     dynamo.obj
 0002:0000f934       ??_C@_0CA@HILGPGKI@Current?5heap?5units?5on?5free?5list@ 710c3934     dynamo.obj
 0002:0000f954       ??_C@_0BN@NDDEHAKM@Peak?5heap?5units?5on?5free?5list@ 710c3954     dynamo.obj
 0002:0000f974       ??_C@_0BN@ECMNIJAH@Current?5client?5raw?5mmap?5size@ 710c3974     dynamo.obj
 0002:0000f994       ??_C@_0BK@OBOPFGEK@Peak?5client?5raw?5mmap?5size@ 710c3994     dynamo.obj
 0002:0000f9b0       ??_C@_0BP@EEGOKFGM@Current?5stack?5capacity?5?$CIbytes?$CJ@ 710c39b0     dynamo.obj
 0002:0000f9d0       ??_C@_0BM@BHNFPIED@Peak?5stack?5capacity?5?$CIbytes?$CJ@ 710c39d0     dynamo.obj
 0002:0000f9ec       ??_C@_0BO@HLJNBOIG@Current?5heap?5capacity?5?$CIbytes?$CJ@ 710c39ec     dynamo.obj
 0002:0000fa0c       ??_C@_0BL@HDFDABHE@Peak?5heap?5capacity?5?$CIbytes?$CJ@ 710c3a0c     dynamo.obj
 0002:0000fa28       ??_C@_0CF@LIPLMGNK@Current?5total?5memory?5from?5OS?5?$CIb@ 710c3a28     dynamo.obj
 0002:0000fa50       ??_C@_0CC@CKALCDDB@Peak?5total?5memory?5from?5OS?5?$CIbyte@ 710c3a50     dynamo.obj
 0002:0000fa74       ??_C@_0CI@PBLONEEN@Current?5vmm?5blocks?5for?5unreacha@ 710c3a74     dynamo.obj
 0002:0000fa9c       ??_C@_0CF@MKLNBOCL@Peak?5vmm?5blocks?5for?5unreachable@ 710c3a9c     dynamo.obj
 0002:0000fac4       ??_C@_0BN@HNMEPNBH@Current?5vmm?5blocks?5for?5stack@ 710c3ac4     dynamo.obj
 0002:0000fae4       ??_C@_0BK@NOOGCCFK@Peak?5vmm?5blocks?5for?5stack@ 710c3ae4     dynamo.obj
 0002:0000fb00       ??_C@_0DA@GHBOGGFP@Current?5vmm?5blocks?5for?5unreacha@ 710c3b00     dynamo.obj
 0002:0000fb30       ??_C@_0CN@EJJCPEJP@Peak?5vmm?5blocks?5for?5unreachable@ 710c3b30     dynamo.obj
 0002:0000fb60       ??_C@_0DA@GKEKMBMA@Current?5vmm?5blocks?5for?5unreacha@ 710c3b60     dynamo.obj
 0002:0000fb90       ??_C@_0CN@EEMGFDAA@Peak?5vmm?5blocks?5for?5unreachable@ 710c3b90     dynamo.obj
 0002:0000fbc0       ??_C@_0CG@COMDBNOH@Current?5vmm?5blocks?5for?5reachabl@ 710c3bc0     dynamo.obj
 0002:0000fbe8       ??_C@_0CD@BJIJNGPC@Peak?5vmm?5blocks?5for?5reachable?5h@ 710c3be8     dynamo.obj
 0002:0000fc0c       ??_C@_0BN@OOMNONJK@Current?5vmm?5blocks?5for?5cache@ 710c3c0c     dynamo.obj
 0002:0000fc2c       ??_C@_0BK@ENOPDCNH@Peak?5vmm?5blocks?5for?5cache@ 710c3c2c     dynamo.obj
 0002:0000fc48       ??_C@_0CO@LJAPLBNE@Current?5vmm?5blocks?5for?5reachabl@ 710c3c48     dynamo.obj
 0002:0000fc78       ??_C@_0CL@POIMAIHG@Peak?5vmm?5blocks?5for?5reachable?5s@ 710c3c78     dynamo.obj
 0002:0000fca4       ??_C@_0CO@LEFLBGEL@Current?5vmm?5blocks?5for?5reachabl@ 710c3ca4     dynamo.obj
 0002:0000fcd4       ??_C@_0CL@PDNIKPOJ@Peak?5vmm?5blocks?5for?5reachable?5s@ 710c3cd4     dynamo.obj
 0002:0000fd00       ??_C@_0CK@OKDJHGJF@Current?5vmm?5virtual?5memory?5in?5u@ 710c3d00     dynamo.obj
 0002:0000fd2c       ??_C@_0CH@KCCPKKBJ@Peak?5vmm?5virtual?5memory?5in?5use?5@ 710c3d2c     dynamo.obj
 0002:0000fd58       ??_C@_0FB@HFKKMJBI@Application?5?$CFs?5?$CI?$CFs?$CJ?4?5Standalone@ 710c3d58     dynamo.obj
 0002:0000fdac       ??_C@_0DE@OILACICG@?$CK?$CK?5nullcalls?5is?5set?0?5NOT?5taking@ 710c3dac     dynamo.obj
 0002:0000fde0       ??_C@_0BN@PPJECPLM@Starting?5application?5?$CFs?5?$CI?$CFs?$CJ@ 710c3de0     dynamo.obj
 0002:0000fe00       ??_C@_0BD@MDPJDNJM@SYSLOG_INFORMATION@ 710c3e00     dynamo.obj
 0002:0000fe14       ??_C@_0BN@GPLIKFGF@Stopping?5application?5?$CFs?5?$CI?$CFs?$CJ@ 710c3e14     dynamo.obj
 0002:0000fe34       ??_C@_0BK@JDAKEJF@DynamoRIO?5not?5initialized@ 710c3e34     dynamo.obj
 0002:0000fe50       ??_C@_0DM@KFBKKGLJ@D?3?2work?2program?2dynamorio?9cronb@ 710c3e50     dynamo.obj
 0002:0000fe90       ??_C@_0EO@HIJKDCHH@Application?5?$CFs?5?$CI?$CFs?$CJ?4?5Failed?5to?5@ 710c3e90     dynamo.obj
 0002:0000fee0       ??_C@_0CO@FKKADEAH@Attached?5to?5?$CFs?5threads?5in?5appli@ 710c3ee0     dynamo.obj
 0002:0000ff80       ??_C@_0O@PCLDDCFH@traces?9shared@ 710c3f80     fragment.obj
 0002:0000ff90       ??_C@_06PLJBFNJN@traces@   710c3f90     fragment.obj
 0002:0000ff98       ??_C@_0IF@NPIIIFNI@Application?5?$CFs?5?$CI?$CFs?$CJ?4?5Basic?5bloc@ 710c3f98     fragment.obj
 0002:00010020       ??_C@_09GPOFMJCC@Trace?5?$CFd?6@ 710c4020     fragment.obj
 0002:0001002c       ??_C@_0N@OHDPNJLL@?7bb?5?$CFd?5?$DN?5?$CFp?6@ 710c402c     fragment.obj
 0002:0001003c       ??_C@_01EEMJAFIK@?6@       710c403c     fragment.obj
 0002:00010040       ??_C@_0EO@CJKDBJCB@?$DN?$DN?$DN?$DN?$DN?$DN?$DN?$DN?$DN?$DN?$DN?$DN?$DN?$DN?$DN?$DN?$DN?$DN?$DN?$DN?$DN?$DN?$DN?$DN?$DN?$DN?$DN?$DN?$DN?$DN?$DN@ 710c4040     fragment.obj
 0002:00010090       ??_C@_0M@MBAGBGKJ@TRACE?5?$CD?5?$CFd?6@ 710c4090     fragment.obj
 0002:0001009c       ??_C@_09LCNGFAMD@Tag?5?$DN?5?$CFp?6@ 710c409c     fragment.obj
 0002:000100a8       ??_C@_0N@NJKDHFN@Thread?5?$DN?5?$CFd?6@ 710c40a8     fragment.obj
 0002:000100b8       ??_C@_0DE@IBFJNPLH@?$CK?$CK?$CK?5Flushed?5from?5cache?5when?5top@ 710c40b8     fragment.obj
 0002:000100ec       ??_C@_0BO@IMHOGEEO@Module?5of?5basic?5block?50?5?$DN?5?$CFs?6@ 710c40ec     fragment.obj
 0002:0001010c       ??_C@_0CF@FEKNOEMB@Module?5of?5basic?5block?50?5?$DN?5?$DMunkn@ 710c410c     fragment.obj
 0002:00010134       ??_C@_0BB@GNLNMCHO@?6ORIGINAL?5CODE?3?6@ 710c4134     fragment.obj
 0002:00010148       ??_C@_0BD@BKMKNJMN@basic?5block?5?$CD?5?$CFd?3?5@ 710c4148     fragment.obj
 0002:0001015c       ??_C@_0BE@OFEBINKM@END?5ORIGINAL?5CODE?6?6@ 710c415c     fragment.obj
 0002:00010170       ??_C@_0L@DBBFOLIJ@Size?5?$DN?5?$CFd?6@ 710c4170     fragment.obj
 0002:0001017c       ??_C@_06OBDDEPAJ@Body?3?6@ 710c417c     fragment.obj
 0002:00010184       ??_C@_0P@HOIIGDFH@END?5TRACE?5?$CFd?6?6@ 710c4184     fragment.obj
 0002:00010194       ??_C@_05IMBNNINJ@trace@    710c4194     fcache.obj
 0002:0001019c       ??_C@_02BMCGDAIG@bb@       710c419c     fcache.obj
 0002:000101c4       ??_C@_0BL@MMKNLKJK@Basic?5block?5cache?5max?5size@ 710c41c4     fcache.obj
 0002:000101e0       ??_C@_0CA@OENMNGJE@Basic?5block?5cache?5unit?5max?5size@ 710c41e0     fcache.obj
 0002:00010200       ??_C@_0CJ@BGCFJNCD@Basic?5block?5cache?5unit?5quadrupl@ 710c4200     fcache.obj
 0002:0001022c       ??_C@_0CJ@FEKLKMOI@Basic?5block?5cache?5unit?5free?5upg@ 710c422c     fcache.obj
 0002:00010258       ??_C@_0CB@KLEJGOJF@Basic?5block?5cache?5unit?5init?5siz@ 710c4258     fcache.obj
 0002:0001027c       ??_C@_0BF@FGICFKJI@Trace?5cache?5max?5size@ 710c427c     fcache.obj
 0002:00010294       ??_C@_0BK@PANMKHIB@Trace?5cache?5unit?5max?5size@ 710c4294     fcache.obj
 0002:000102b0       ??_C@_0CD@IMPELJO@Trace?5cache?5unit?5quadruple?9to?5s@ 710c42b0     fcache.obj
 0002:000102d4       ??_C@_0CD@EKEBHKFF@Trace?5cache?5unit?5free?5upgrade?5s@ 710c42d4     fcache.obj
 0002:000102f8       ??_C@_0BL@MGIAIKAP@Trace?5cache?5unit?5init?5size@ 710c42f8     fcache.obj
 0002:00010314       ??_C@_0BJ@JIKEKBA@Shared?5bb?5cache?5max?5size@ 710c4314     fcache.obj
 0002:00010330       ??_C@_0BO@BCGDBLGO@Shared?5bb?5cache?5unit?5max?5size@ 710c4330     fcache.obj
 0002:00010350       ??_C@_0CH@OBKIEDIM@Shared?5bb?5cache?5unit?5quadruple?9@ 710c4350     fcache.obj
 0002:00010378       ??_C@_0CH@KDCGHCEH@Shared?5bb?5cache?5unit?5free?5upgra@ 710c4378     fcache.obj
 0002:000103a0       ??_C@_0BP@PGNHMKFK@Shared?5bb?5cache?5unit?5init?5size@ 710c43a0     fcache.obj
 0002:000103c0       ??_C@_0EA@BJKLCICF@cache_shared_bb_unit_init?5shoul@ 710c43c0     fcache.obj
 0002:00010400       ??_C@_0BM@HIKNALPM@Shared?5trace?5cache?5max?5size@ 710c4400     fcache.obj
 0002:0001041c       ??_C@_0CB@NHMJBGDK@Shared?5trace?5cache?5unit?5max?5siz@ 710c441c     fcache.obj
 0002:00010440       ??_C@_0CK@PHONEFAA@Shared?5trace?5cache?5unit?5quadrup@ 710c4440     fcache.obj
 0002:0001046c       ??_C@_0CK@LFGDHEML@Shared?5trace?5cache?5unit?5free?5up@ 710c446c     fcache.obj
 0002:00010498       ??_C@_0CC@JKBEPFLK@Shared?5trace?5cache?5unit?5init?5si@ 710c4498     fcache.obj
 0002:000104c0       ??_C@_0EG@KKIHHJHC@cache_shared_trace_unit_init?5sh@ 710c44c0     fcache.obj
 0002:00010508       ??_C@_0DC@EFMIIOME@?6Dumping?5fcache?5?$CFs?5unit?5profile@ 710c4508     fcache.obj
 0002:0001053c       ??_C@_0DF@CIHDNIIA@?6Dumping?5fcache?5?$CFs?5unit?5profile@ 710c453c     fcache.obj
 0002:00010578       ??_C@_0FC@BPDJALO@Resetting?5caches?5and?5non?9persis@ 710c4578     fcache.obj
 0002:000106ec       ??_C@_09PJCCGOLB@DynamoRIO@ 710c46ec     utils.obj
 0002:000106f8       ??_C@_0BN@GNGNDJLF@http?3?1?1dynamorio?4org?1issues?1@ 710c46f8     utils.obj
 0002:00010718       ??_C@_06PJIGMIJB@Client@   710c4718     utils.obj
 0002:00010720       ??_C@_0CI@PDGJNHMI@Application?5?$CFs?5?$CI?$CFs?$CJ?5?$CFs?5usage?5er@ 710c4720     utils.obj
 0002:00010748       ??_C@_0BO@JHCENKCI@Usage?5error?3?5?$CFs?5?$CI?$CFs?0?5line?5?$CFd?$CJ@ 710c4748     utils.obj
 0002:00010768       ??_C@_01JOAMLHOP@?9@       710c4768     utils.obj
 0002:0001076c       ??_C@_0P@IOGANGNC@internal?5crash@ 710c476c     utils.obj
 0002:0001077c       ??_C@_0P@BAPIHBBA@?$CFs?5?$CFs?5at?5PC?5?$CFp@ 710c477c     utils.obj
 0002:0001078c       ??_C@_04EINJHBMM@?6?$CFs?6@ 710c478c     utils.obj
 0002:00010794       ??_C@_0N@BCMMMPBK@custom?5build@ 710c4794     utils.obj
 0002:000107a4       ??_C@_0O@GEEKLEHN@version?59?40?40@ 710c47a4     utils.obj
 0002:000107b4       ??_C@_08GKNFEMIN@?6?$CFs?0?5?$CFs?6@ 710c47b4     utils.obj
 0002:000107c0       ??_C@_06MAHMLKJ@?$CFp?5?$CFp?6@ 710c47c0     utils.obj
 0002:000107c8       ??_C@_02BBAHNLBA@?$CFp@    710c47c8     utils.obj
 0002:000107cc       ??_C@_0P@EODJGPIM@stack?5overflow@ 710c47cc     utils.obj
 0002:000107e0       ??_C@_0FF@EALLKJNH@Application?5?$CFs?5?$CI?$CFs?$CJ?4?5?5?$CFs?5?$CFs?5at?5@ 710c47e0     utils.obj
 0002:00010838       ??_C@_0CJ@CJKKDMPB@Application?5?$CFs?5?$CI?$CFs?$CJ?4?5?5Internal?5@ 710c4838     utils.obj
 0002:00010864       ??_C@_0M@DLPHMIMB@Callstack?3?6@ 710c4864     utils.obj
 0002:00010870       ??_C@_0DK@CODIBCMO@Application?5?$CFs?5?$CI?$CFs?$CJ?4?5?5Applicati@ 710c4870     utils.obj
 0002:000108ac       ??_C@_0P@BDLLDNGO@SYSLOG_WARNING@ 710c48ac     utils.obj
 0002:000108bc       ??_C@_0BC@MIKOJOPJ@application?5fault@ 710c48bc     utils.obj
 0002:000108d0       ??_C@_0BB@PFICCGDF@DYNAMORIO_LOGDIR@ 710c48d0     utils.obj
 0002:000108e8       ??_C@_0ED@IGDEALGM@Application?5?$CFs?5?$CI?$CFs?$CJ?5has?5no?5dire@ 710c48e8     utils.obj
 0002:00010930       ??_C@_0EF@BDPEINPM@Application?5?$CFs?5?$CI?$CFs?$CJ?5unable?5to?5c@ 710c4930     utils.obj
 0002:00010978       ??_C@_0BA@BFEGNIL@?$CFc?$CFs?4?$CFd?4?$CFu?4html@ 710c4978     utils.obj
 0002:00010988       ??_C@_0N@OKOALOPO@?$CFs?4?$CFs?4?$CF?48d?$CFs@ 710c4988     utils.obj
 0002:00010998       ??_C@_0BA@HLCFJNBC@?$CFs?5statistics?3?6@ 710c4998     utils.obj
 0002:000109a8       ??_C@_0L@LKOIPDCF@?$CF50s?5?3?$CF9d?6@ 710c49a8     utils.obj
 0002:000109b4       ??_C@_02HAOIJKIC@?$CFc@    710c49b4     utils.obj
 0002:000109b8       ??_C@_01BJJEKLCA@?$CC@     710c49b8     utils.obj
 0002:000109bc       ??_C@_01CLKCMJKC@?5@       710c49bc     utils.obj
 0002:000109c0       ??_C@_03HOKFIEKA@?$CC?6?$CC@ 710c49c0     utils.obj
 0002:000109c4       ??_C@_03IICCDDBN@?$CFp?5@  710c49c4     utils.obj
 0002:000109c8       ??_C@_02JMMFPCED@?$CC?$CC@ 710c49c8     utils.obj
 0002:000109cc       ??_C@_02MCKKLHBJ@?2?$CC@   710c49cc     utils.obj
 0002:000109d0       ??_C@_01KICIPPFI@?2@       710c49d0     utils.obj
 0002:000109d4       ??_C@_02ICPOACMH@?2x@      710c49d4     utils.obj
 0002:000109d8       ??_C@_04NEJBHOB@?$CF08x@   710c49d8     utils.obj
 0002:000109e0       ??_C@_04EJPHMJG@?$CF03o@   710c49e0     utils.obj
 0002:000109e8       ??_C@_04NOJCDH@?$CF02x@    710c49e8     utils.obj
 0002:000109f0       ??_C@_04NKHGCJAD@?$CF8c?5@ 710c49f0     utils.obj
 0002:000109f8       ??_C@_04NHHKOAC@?$CF3c?5@  710c49f8     utils.obj
 0002:00010a00       ??_C@_04LFMLMJGH@?$CF2c?5@ 710c4a00     utils.obj
 0002:00010a08       ??_C@_03GFBKFKN@?$CC?$DL?6@ 710c4a08     utils.obj
 0002:00010a0c       ??_C@_03MCHNFBAC@?$FN?$FN?$DO@ 710c4a0c     utils.obj
 0002:00010a10       ??_C@_05OLMHDLGP@?2?$CF03d@ 710c4a10     utils.obj
 0002:00010a18       ??_C@_03OFAPEBGM@?$CFs?6@  710c4a18     utils.obj
 0002:00010a1c       ??_C@_0N@MMBMNJAD@Running?3?5?$CFs?6@ 710c4a1c     utils.obj
 0002:00010a2c       ??_C@_0BB@FNEKKBDO@App?5cmdline?3?5?$CFS?6@ 710c4a2c     utils.obj
 0002:00010a40       ??_C@_0LA@FIMNNLNL@?9DDRSTATS_DEMO?5?9DX86?5?9DWINDOWS?5@ 710c4a40     utils.obj
 0002:00010af0       ??_C@_0BK@IEMIANAB@DynamoRIO?5built?5with?3?5?$CFs?6@ 710c4af0     utils.obj
 0002:00010b0c       ??_C@_0BI@BKCGCAAF@DynamoRIO?5built?5on?3?5?$CFs?6@ 710c4b0c     utils.obj
 0002:00010b24       ??_C@_0BH@PKGCHAIM@DYNAMORIO_OPTIONS?3?5?$CFs?6@ 710c4b24     utils.obj
 0002:00010f40       ??_C@_02KPKOKMHB@?$CFS@    710c4f40     utils.obj
 0002:00010f50       __xmm@41f00000000000000000000000000000 710c4f50     utils.obj
 0002:00010f60       __xmm@80000000000000008000000000000000 710c4f60     utils.obj
 0002:00010fd0       ??_C@_0P@EGDEJCO@DYNAMORIO_HOME@ 710c4fd0     config.obj
 0002:00010fe0       ??_C@_0BF@GKPOHBJB@DYNAMORIO_AUTOINJECT@ 710c4fe0     config.obj
 0002:00010ff8       ??_C@_0BE@PAAMEJOG@DYNAMORIO_ALTINJECT@ 710c4ff8     config.obj
 0002:0001100c       ??_C@_0BG@EMLOCAOL@DYNAMORIO_UNSUPPORTED@ 710c500c     config.obj
 0002:00011024       ??_C@_0BD@JNNJDGIK@DYNAMORIO_RUNUNDER@ 710c5024     config.obj
 0002:00011038       ??_C@_0BC@DGCPJNLL@DYNAMORIO_CMDLINE@ 710c5038     config.obj
 0002:0001104c       ??_C@_0BC@PGFJONLD@DYNAMORIO_ONCRASH@ 710c504c     config.obj
 0002:00011060       ??_C@_0BF@EGFGLNLE@DYNAMORIO_SAFEMARKER@ 710c5060     config.obj
 0002:00011078       ??_C@_0BF@OHKOLBGK@DYNAMORIO_CACHE_ROOT@ 710c5078     config.obj
 0002:00011090       ??_C@_0BH@OABJPIAC@DYNAMORIO_CACHE_SHARED@ 710c5090     config.obj
 0002:000110a8       ??_C@_1BO@ENFFANMH@?$AAD?$AAY?$AAN?$AAA?$AAM?$AAO?$AAR?$AAI?$AAO?$AA_?$AAH?$AAO?$AAM?$AAE@ 710c50a8     config.obj
 0002:000110c8       ??_C@_1CC@KHJEFCBB@?$AAD?$AAY?$AAN?$AAA?$AAM?$AAO?$AAR?$AAI?$AAO?$AA_?$AAL?$AAO?$AAG?$AAD?$AAI@ 710c50c8     config.obj
 0002:000110ec       ??_C@_1CE@CKOJFHKD@?$AAD?$AAY?$AAN?$AAA?$AAM?$AAO?$AAR?$AAI?$AAO?$AA_?$AAO?$AAP?$AAT?$AAI?$AAO@ 710c50ec     config.obj
 0002:00011110       ??_C@_1CK@LHBILFEO@?$AAD?$AAY?$AAN?$AAA?$AAM?$AAO?$AAR?$AAI?$AAO?$AA_?$AAA?$AAU?$AAT?$AAO?$AAI@ 710c5110     config.obj
 0002:0001113c       ??_C@_1CI@KMLBFFFG@?$AAD?$AAY?$AAN?$AAA?$AAM?$AAO?$AAR?$AAI?$AAO?$AA_?$AAA?$AAL?$AAT?$AAI?$AAN@ 710c513c     config.obj
 0002:00011164       ??_C@_1CM@FGBEBPLM@?$AAD?$AAY?$AAN?$AAA?$AAM?$AAO?$AAR?$AAI?$AAO?$AA_?$AAU?$AAN?$AAS?$AAU?$AAP@ 710c5164     config.obj
 0002:00011190       ??_C@_1CG@KAGKFIKC@?$AAD?$AAY?$AAN?$AAA?$AAM?$AAO?$AAR?$AAI?$AAO?$AA_?$AAR?$AAU?$AAN?$AAU?$AAN@ 710c5190     config.obj
 0002:000111b8       ??_C@_1CE@FKPOPCA@?$AAD?$AAY?$AAN?$AAA?$AAM?$AAO?$AAR?$AAI?$AAO?$AA_?$AAC?$AAM?$AAD?$AAL?$AAI@ 710c51b8     config.obj
 0002:000111dc       ??_C@_1CE@NNEJDMK@?$AAD?$AAY?$AAN?$AAA?$AAM?$AAO?$AAR?$AAI?$AAO?$AA_?$AAO?$AAN?$AAC?$AAR?$AAA@ 710c51dc     config.obj
 0002:00011200       ??_C@_1CK@PIKJIEMB@?$AAD?$AAY?$AAN?$AAA?$AAM?$AAO?$AAR?$AAI?$AAO?$AA_?$AAS?$AAA?$AAF?$AAE?$AAM@ 710c5200     config.obj
 0002:0001122c       ??_C@_1CK@GKCELPKK@?$AAD?$AAY?$AAN?$AAA?$AAM?$AAO?$AAR?$AAI?$AAO?$AA_?$AAC?$AAA?$AAC?$AAH?$AAE@ 710c522c     config.obj
 0002:00011258       ??_C@_1CO@MKIJEMNE@?$AAD?$AAY?$AAN?$AAA?$AAM?$AAO?$AAR?$AAI?$AAO?$AA_?$AAC?$AAA?$AAC?$AAH?$AAE@ 710c5258     config.obj
 0002:00011288       ??_C@_03MIIGHJO@?$CFls@    710c5288     config.obj
 0002:00011290       ??_C@_0EC@KEDFLBLM@Application?5?$CFs?5?$CI?$CFs?$CJ?4?5Config?5fil@ 710c5290     config.obj
 0002:000112d4       ??_C@_1CI@BMFNAOH@?$AAD?$AAY?$AAN?$AAA?$AAM?$AAO?$AAR?$AAI?$AAO?$AA_?$AAC?$AAO?$AAN?$AAF?$AAI@ 710c52d4     config.obj
 0002:000112fc       ??_C@_1BI@FAOJLPH@?$AAU?$AAS?$AAE?$AAR?$AAP?$AAR?$AAO?$AAF?$AAI?$AAL?$AAE@ 710c52fc     config.obj
 0002:00011314       ??_C@_09LLIEKABN@dynamorio@ 710c5314     config.obj
 0002:00011320       ??_C@_0BA@JEKGACMB@?$CFs?1?$CFs?1?$CFs?4?$CFd?41?$CFs@ 710c5320     config.obj
 0002:00011330       ??_C@_0M@JNAIJJJE@?$CFs?1?$CFs?1?$CFs?4?$CFs@ 710c5330     config.obj
 0002:0001133c       ??_C@_0BC@CHIMFFAL@?$CFs?1?$CFs?1default?40?$CFs@ 710c533c     config.obj
 0002:00011350       ??_C@_07KMICNHKH@?1config@ 710c5350     config.obj
 0002:00011358       ??_C@_0L@DOOLDDFO@?$CFs?$CFs?1?$CFs?4?$CFs@ 710c5358     config.obj
 0002:00011364       ??_C@_0BB@LCJMOCAB@?$CFs?$CFs?1default?40?$CFs@ 710c5364     config.obj
 0002:00011378       ??_C@_08IJHJOKOG@config32@ 710c5378     config.obj
 0002:00011384       ??_C@_08NJOIIPIL@config64@ 710c5384     config.obj
 0002:00011390       ??_C@_0IL@IKDBGLEJ@?$CF20s?3?$CF10I64u?5totc?0?$CF8u?5num?0?$CF10I6@ 710c5390     stats.obj
 0002:0001141c       ??_C@_0CI@MBPINKFL@total?5measured?5and?5propagated?5i@ 710c541c     stats.obj
 0002:00011444       ??_C@_0BA@LMEFJEDP@thread_measured@ 710c5444     stats.obj
 0002:00011454       ??_C@_0P@NOIAGDPJ@in?5bb?5building@ 710c5454     stats.obj
 0002:00011464       ??_C@_0M@LFLALLLE@bb_building@ 710c5464     stats.obj
 0002:00011470       ??_C@_0P@PDMFAGLI@in?5bb?5decoding@ 710c5470     stats.obj
 0002:00011480       ??_C@_0M@JIPFNOPF@bb_decoding@ 710c5480     stats.obj
 0002:0001148c       ??_C@_0P@HNOPMKLA@in?5emitting?5BB@ 710c548c     stats.obj
 0002:0001149c       ??_C@_07HNCJPLAA@bb_emit@  710c549c     stats.obj
 0002:000114a4       ??_C@_0M@HBCCCGOE@in?5mangling@ 710c54a4     stats.obj
 0002:000114b0       ??_C@_08BEPKBMFC@mangling@ 710c54b0     stats.obj
 0002:000114bc       ??_C@_07BNJHDCDG@in?5emit@ 710c54bc     stats.obj
 0002:000114c4       ??_C@_04KNBGJDFM@emit@     710c54c4     stats.obj
 0002:000114cc       ??_C@_0BD@LDELCKHM@in?5hotpatch?5lookup@ 710c54cc     stats.obj
 0002:000114e0       ??_C@_0M@NFKLJOAI@hotp_lookup@ 710c54e0     stats.obj
 0002:000114ec       ??_C@_0BC@HCNAPKML@in?5trace?5building@ 710c54ec     stats.obj
 0002:00011500       ??_C@_0P@PPGMOMCM@trace_building@ 710c5500     stats.obj
 0002:00011510       ??_C@_0CK@JGDAIMBA@making?5temp?5private?5bb?5for?5trac@ 710c5510     stats.obj
 0002:0001153c       ??_C@_0BA@FDKBKHEN@temp_private_bb@ 710c553c     stats.obj
 0002:0001154c       ??_C@_0BC@DKPHPMEM@in?5trace?5monitor?5@ 710c554c     stats.obj
 0002:00011560       ??_C@_0O@FIPJHHBP@monitor_enter@ 710c5560     stats.obj
 0002:00011570       ??_C@_0BI@JNOBOKHL@in?5trace?5monitor?0?5thci?5@ 710c5570     stats.obj
 0002:00011588       ??_C@_0BD@CNJJIBCD@monitor_enter_thci@ 710c5588     stats.obj
 0002:0001159c       ??_C@_0BH@OLNNKPCF@cache?5flush?5unit?5walk?5@ 710c559c     stats.obj
 0002:000115b4       ??_C@_0BG@NNGPNOIK@cache_flush_unit_walk@ 710c55b4     stats.obj
 0002:000115cc       ??_C@_0N@HMHEBJIA@flush_region@ 710c55cc     stats.obj
 0002:000115dc       ??_C@_0BA@FKONNNKE@synchall?5flush?5@ 710c55dc     stats.obj
 0002:000115ec       ??_C@_0P@MJEMDPPE@synchall_flush@ 710c55ec     stats.obj
 0002:000115fc       ??_C@_0BA@HCDIHKNP@coarse?5pclookup@ 710c55fc     stats.obj
 0002:0001160c       ??_C@_0BA@HFHKKEMK@coarse_pclookup@ 710c560c     stats.obj
 0002:0001161c       ??_C@_0BC@JKADMJLA@coarse?5freeze?5all@ 710c561c     stats.obj
 0002:00011630       ??_C@_0BC@LHFPKACL@coarse_freeze_all@ 710c5630     stats.obj
 0002:00011644       ??_C@_0BL@OILCAMPJ@persisted?5cache?5generation@ 710c5644     stats.obj
 0002:00011660       ??_C@_0BF@FFHHOAHB@persisted_generation@ 710c5660     stats.obj
 0002:00011678       ??_C@_0BF@DDCGOCBM@persisted?5cache?5load@ 710c5678     stats.obj
 0002:00011690       ??_C@_0P@FJPDFHGC@persisted_load@ 710c5690     stats.obj
 0002:000116a0       ??_C@_0BK@JFAFKNDE@in?5dispatch?5exit?0?5default@ 710c56a0     stats.obj
 0002:000116bc       ??_C@_0BD@EFICIJHG@dispatch_num_exits@ 710c56bc     stats.obj
 0002:000116d0       ??_C@_0CK@JOAADPLB@in?5dispatch?5exit?0?5ind?5target?5no@ 710c56d0     stats.obj
 0002:000116fc       ??_C@_0BI@DBPJKMLK@num_exits_ind_good_miss@ 710c56fc     stats.obj
 0002:00011714       ??_C@_0CK@JJBHABI@in?5dispatch?5exit?0?5dir?5target?5no@ 710c5714     stats.obj
 0002:00011740       ??_C@_0BD@MECLCGJH@num_exits_dir_miss@ 710c5740     stats.obj
 0002:00011754       ??_C@_0CK@BINIPGOG@in?5dispatch?5exit?0?5all?5target?5no@ 710c5754     stats.obj
 0002:00011780       ??_C@_0BH@EEJEBLAG@num_exits_not_in_cache@ 710c5780     stats.obj
 0002:00011798       ??_C@_0CI@DPBFMNPL@in?5dispatch?5exit?0?5BB2BB?0?5ind?5ta@ 710c5798     stats.obj
 0002:000117c0       ??_C@_0BN@PDIGFKNK@num_exits_ind_bad_miss_bb2bb@ 710c57c0     stats.obj
 0002:000117e0       ??_C@_0CL@KBFINNLN@in?5dispatch?5exit?0?5BB2trace?0?5ind@ 710c57e0     stats.obj
 0002:0001180c       ??_C@_0CA@KAHPCPCH@num_exits_ind_bad_miss_bb2trace@ 710c580c     stats.obj
 0002:0001182c       ??_C@_0BK@NALKLBMP@in?5dispatch?5exit?0?5from?5BB@ 710c582c     stats.obj
 0002:00011848       ??_C@_0BK@DIINDGOF@num_exits_ind_bad_miss_bb@ 710c5848     stats.obj
 0002:00011864       ??_C@_0CO@KAPDDAB@in?5dispatch?5exit?0?5trace2trace?0?5@ 710c5864     stats.obj
 0002:00011894       ??_C@_0CD@EBCEFCHF@num_exits_ind_bad_miss_trace2tr@ 710c5894     stats.obj
 0002:000118b8       ??_C@_0DG@IHDJLBEP@in?5dispatch?5exit?0?5trace2BB?5not?5@ 710c58b8     stats.obj
 0002:000118f0       ??_C@_0CE@HLENPMFM@num_exits_ind_bad_miss_trace2bb@ 710c58f0     stats.obj
 0002:00011914       ??_C@_0DC@OCCDFCCP@in?5dispatch?5exit?0?5trace2BB?5trac@ 710c5914     stats.obj
 0002:00011948       ??_C@_0CD@EIHIGAFL@num_exits_ind_bad_miss_trace2bb@ 710c5948     stats.obj
 0002:0001196c       ??_C@_0CI@DGCNHMPD@in?5dispatch?5exit?0?5trace2BB?0?5ind@ 710c596c     stats.obj
 0002:00011994       ??_C@_0CA@EKALPDNA@num_exits_ind_bad_miss_trace2bb@ 710c5994     stats.obj
 0002:000119b4       ??_C@_0BN@OOBKDCAN@in?5dispatch?5exit?0?5from?5trace@ 710c59b4     stats.obj
 0002:000119d4       ??_C@_0BN@NBNCHAGC@num_exits_ind_bad_miss_trace@ 710c59d4     stats.obj
 0002:000119f4       ??_C@_0DE@DAGFMPNG@in?5dispatch?5exit?0?5ind?5target?5in@ 710c59f4     stats.obj
 0002:00011a28       ??_C@_0BH@CILLNLNG@num_exits_ind_bad_miss@ 710c5a28     stats.obj
 0002:00011a40       ??_C@_0CD@FDJCAMCN@in?5dispatch?5exit?0?5syscall?5handl@ 710c5a40     stats.obj
 0002:00011a64       ??_C@_0BG@PCCOHKAJ@num_exits_dir_syscall@ 710c5a64     stats.obj
 0002:00011a7c       ??_C@_0CC@CBOOMJO@in?5dispatch?5exit?0?5callback?5retu@ 710c5a7c     stats.obj
 0002:00011aa0       ??_C@_0BE@MIDBHJPF@num_exits_dir_cbret@ 710c5aa0     stats.obj
 0002:00011ab4       ??_C@_06JKLOJMCD@in?5LOG@  710c5ab4     stats.obj
 0002:00011abc       ??_C@_07HAFPJOBC@logging@  710c5abc     stats.obj
 0002:00011ac4       ??_C@_0BF@PMFPJEMJ@empty?5block?5overhead@ 710c5ac4     stats.obj
 0002:00011adc       ??_C@_0P@BPMGGBLI@overhead_empty@ 710c5adc     stats.obj
 0002:00011aec       ??_C@_0BG@EIFJBABA@nested?5block?5overhead@ 710c5aec     stats.obj
 0002:00011b04       ??_C@_0BA@HIPMKFCP@overhead_nested@ 710c5b04     stats.obj
 0002:00011b14       ??_C@_0BN@HJIAEHBH@in?5syscalls?5?$FLnot?5propagated?$FN@ 710c5b14     stats.obj
 0002:00011b34       ??_C@_0P@PKJPJHOH@syscall_fcache@ 710c5b34     stats.obj
 0002:00011b44       ??_C@_0BF@JANONKNA@pre?9syscall?5handling@ 710c5b44     stats.obj
 0002:00011b5c       ??_C@_0M@JPBPOFDF@pre_syscall@ 710c5b5c     stats.obj
 0002:00011b68       ??_C@_0BG@DEODEICI@post?9syscall?5handling@ 710c5b68     stats.obj
 0002:00011b80       ??_C@_0N@CGCEFOMH@post_syscall@ 710c5b80     stats.obj
 0002:00011b90       ??_C@_0BM@NCMKLPLE@pre?9syscall?5FreeVM?5handling@ 710c5b90     stats.obj
 0002:00011bac       ??_C@_0BB@BFMJDCJF@pre_syscall_free@ 710c5bac     stats.obj
 0002:00011bc0       ??_C@_0BP@INLLJCHJ@pre?9syscall?5ProtectVM?5handling@ 710c5bc0     stats.obj
 0002:00011be0       ??_C@_0BE@LPOFDPCJ@pre_syscall_protect@ 710c5be0     stats.obj
 0002:00011bf4       ??_C@_0BL@OAHEDIGI@pre?9syscall?5Unmap?5handling@ 710c5bf4     stats.obj
 0002:00011c10       ??_C@_0BC@ENKAFNIK@pre_syscall_unmap@ 710c5c10     stats.obj
 0002:00011c24       ??_C@_0BO@NLDNACDI@post?9syscall?5AllocVM?5handling@ 710c5c24     stats.obj
 0002:00011c44       ??_C@_0BD@KOACHOLC@post_syscall_alloc@ 710c5c44     stats.obj
 0002:00011c58       ??_C@_0BK@PAOMLOFK@post?9syscall?5Map?5handling@ 710c5c58     stats.obj
 0002:00011c74       ??_C@_0BB@LLHIBOHL@post_syscall_map@ 710c5c74     stats.obj
 0002:00011c88       ??_C@_0BN@DFNKHKAF@native_exec?5?$FLnot?5propagated?$FN@ 710c5c88     stats.obj
 0002:00011ca8       ??_C@_0BD@LMIEJPOA@native_exec_fcache@ 710c5ca8     stats.obj
 0002:00011cbc       ??_C@_0BD@KCOHCKLE@in?5fcache?0?5default@ 710c5cbc     stats.obj
 0002:00011cd0       ??_C@_0P@OFGAONJH@fcache_default@ 710c5cd0     stats.obj
 0002:00011ce0       ??_C@_0BO@LKGHFDK@in?5bb?5cache?0?5?$FLnot?5propagated?$FN@ 710c5ce0     stats.obj
 0002:00011d00       ??_C@_0N@CJMOGDFD@fcache_bb_bb@ 710c5d00     stats.obj
 0002:00011d10       ??_C@_0CB@FAGGIHFM@in?5trace?5cache?0?5?$FLnot?5propagated@ 710c5d10     stats.obj
 0002:00011d34       ??_C@_0BD@MEGMKPED@fcache_trace_trace@ 710c5d34     stats.obj
 0002:00011d48       ??_C@_0DD@FOGHGOPM@in?5bb?5cache?5out?5from?5trace?5cach@ 710c5d48     stats.obj
 0002:00011d7c       ??_C@_0BA@DIBIELOK@fcache_bb_trace@ 710c5d7c     stats.obj
 0002:00011d8c       ??_C@_0CO@CEPGJOOI@wait?5event?5?$CI?$CLcontext?5switch?$CJ?5?$FLn@ 710c5d8c     stats.obj
 0002:00011dbc       ??_C@_0L@FLEKIBIJ@wait_event@ 710c5dbc     stats.obj
 0002:00011dc8       ??_C@_0BP@LIIODNMK@in?5rct?5analysis?5no?5relocations@ 710c5dc8     stats.obj
 0002:00011de8       ??_C@_0N@FAGPOLLE@rct_no_reloc@ 710c5de8     stats.obj
 0002:00011df8       ??_C@_0CP@IGKLBKHO@in?5rct?5analysis?5using?5relocatio@ 710c5df8     stats.obj
 0002:00011e28       ??_C@_09BNDDNBEM@rct_reloc@ 710c5e28     stats.obj
 0002:00011e34       ??_C@_0DC@MOKNGNCE@in?5rct?5analysis?5using?5relocatio@ 710c5e34     stats.obj
 0002:00011e68       ??_C@_0BD@FNBANBBK@rct_reloc_per_page@ 710c5e68     stats.obj
 0002:00011e7c       ??_C@_0DC@HFAPLCHD@in?5aslr_generate_relocated_sect@ 710c5e7c     stats.obj
 0002:00011eb0       ??_C@_0BH@PLIKIBOH@aslr_validate_relocate@ 710c5eb0     stats.obj
 0002:00011ec8       ??_C@_0DE@POGNHGJI@in?5module_contents_compare?5or?5a@ 710c5ec8     stats.obj
 0002:00011efc       ??_C@_0N@NHOEOCPK@aslr_compare@ 710c5efc     stats.obj
 0002:00011f0c       ??_C@_0P@BILLDHBJ@process?9kstats@ 710c5f0c     stats.obj
 0002:00011f1c       ??_C@_0BB@PJJGHJEP@Process?5KSTATS?3?6@ 710c5f1c     stats.obj
 0002:00011f30       ??_C@_0BE@CHPFBOAK@Thread?5?$CFd?5KSTATS?5?$HL?6@ 710c5f30     stats.obj
 0002:00011f44       ??_C@_09NJAPONBN@?$HN?5KSTATS?6@ 710c5f44     stats.obj
 0002:00011f84       ??_C@_0CO@CFFNMIMG@VM?5heap?3?5addr?5range?5?$CFp?9?9?$CFp?0?5?$CD?5f@ 710c5f84     heap.obj
 0002:00011fb4       ??_C@_0DF@MEIKFMGH@Application?5?$CFs?5?$CI?$CFs?$CJ?4?5Failed?5to?5@ 710c5fb4     heap.obj
 0002:00011fec       ??_C@_0BD@BBGENKDB@dynamorio_dual_map@ 710c5fec     heap.obj
 0002:00012000       ??_C@_0EL@GMALNBIN@Alloc?5type?3?50x?$CFx?4?5?5?9satisfy_w_x@ 710c6000     heap.obj
 0002:0001204c       ??_C@_0DC@OLFMJMJP@Application?5?$CFs?5?$CI?$CFs?$CJ?4?5Out?5of?5con@ 710c604c     heap.obj
 0002:00012080       ??_C@_0BC@HCCONCJG@Alloc?5type?3?50x?$CFx?4@ 710c6080     heap.obj
 0002:00012094       ??_C@_0DH@HLCPFJCH@Potentially?5thrashing?5on?5low?5vi@ 710c6094     heap.obj
 0002:000120cc       ??_C@_0DL@LAFGNGIA@Potentially?5thrashing?5on?5low?5co@ 710c60cc     heap.obj
 0002:00012108       ??_C@_06LDMCMPMC@vmcode@   710c6108     heap.obj
 0002:00012110       ??_C@_01OGPIMHDM@?$DP@     710c6110     heap.obj
 0002:00012114       ??_C@_01JPJNBJEM@I@        710c6114     heap.obj
 0002:00012118       ??_C@_01GFHCPBMG@C@        710c6118     heap.obj
 0002:0001211c       ??_C@_01DDCIFGEA@E@        710c611c     heap.obj
 0002:00012120       ??_C@_0CK@IMGOBPGI@Out?5of?5memory?0?5silently?5abortin@ 710c6120     heap.obj
 0002:00012150       ??_C@_0FF@JKAECJJO@Application?5?$CFs?5?$CI?$CFs?$CJ?4?5?5Out?5of?5me@ 710c6150     heap.obj
 0002:000121a8       ??_C@_0CB@ODCIFNPM@Out?5of?5memory?0?5aborting?5program@ 710c61a8     heap.obj
 0002:000121cc       ??_C@_0O@NALGGDJF@Out?5of?5memory@ 710c61cc     heap.obj
 0002:000121dc       ??_C@_0CM@DECFIJNG@?6Dumping?5special?5heap?5unit?5prof@ 710c61dc     heap.obj
 0002:00012208       ??_C@_01CPLAODJH@S@        710c6208     vmareas.obj
 0002:0001220c       ??_C@_01BIAFAFID@F@        710c620c     vmareas.obj
 0002:00012210       ??_C@_01ELNMCGJD@W@        710c6210     vmareas.obj
 0002:00012214       ??_C@_09ODJNKNKK@?5?$CFs?$CFs?$CFs?$CFs@ 710c6214     vmareas.obj
 0002:00012220       ??_C@_07BLJJHIEG@?$CFs?$CFp?9?$CFp@ 710c6220     vmareas.obj
 0002:00012228       ??_C@_01POHCFINO@Z@        710c6228     vmareas.obj
 0002:0001222c       ??_C@_0BH@PJHBCJG@?5written?5?$CF3d?0?5exec?5?$CF5d@ 710c622c     vmareas.obj
 0002:00012244       ??_C@_02KNHHEEKP@?5?5@     710c6244     vmareas.obj
 0002:00012248       ??_C@_06FHFOAHML@system@   710c6248     vmareas.obj
 0002:00012250       ??_C@_0DF@DPIELIPI@Application?5changing?5protection@ 710c6250     vmareas.obj
 0002:00012288       ??_C@_0DG@HPGGDEND@Warning?3?5App?5trying?5to?5execute?5@ 710c6288     vmareas.obj
 0002:000122c0       ??_C@_0BA@FMAKCJML@never?5unloaded?6@ 710c62c0     vmareas.obj
 0002:000122d0       ??_C@_0BA@NHAADOG@?5being?5unloaded@ 710c62d0     vmareas.obj
 0002:000122e0       ??_C@_0BG@NGDEHCLA@last?5unload?3?5?$CFp?9?$CFp?$CFs?6@ 710c62e0     vmareas.obj
 0002:00012308       ??_C@_03BOEPIBHP@rct@      710c6308     moduledb.obj
 0002:0001230c       ??_C@_05NGOMGBBD@image@    710c630c     moduledb.obj
 0002:00012314       ??_C@_08FJAJONGG@dll2heap@ 710c6314     moduledb.obj
 0002:00012320       ??_C@_09IHACOKP@dll2stack@ 710c6320     moduledb.obj
 0002:0001232c       ??_C@_0CC@MNDPBCBH@moduledb?5?$CFs?5exemption?5list?5?$DN?$CC?$CFs@ 710c632c     moduledb.obj
 0002:00012350       ??_C@_06DLEJEKHG@?$CFc?$CFs?$CFs@ 710c6350     perscache.obj
 0002:00012358       ??_C@_03HANOBAID@dpc@      710c6358     perscache.obj
 0002:0001235c       ??_C@_0BD@CINNGOMG@?$CFs?$CFc?$CFs?$CFs?90x?$CF08x?4?$CFs@ 710c635c     perscache.obj
 0002:00012370       ??_C@_0P@FKENJAJJ@?$CFs?9?$CFu?9?$CF010u?9?$CFs@ 710c6370     perscache.obj
 0002:00012380       ??_C@_05PGPMLMCD@todel@    710c6380     perscache.obj
 0002:00012388       ??_C@_03FFNGDGKN@tmp@      710c6388     perscache.obj
 0002:0001238c       ??_C@_0BG@ONKIKMGK@Nudge?5triggered?5ldmp?4@ 710c638c     nudge.obj
 0002:000123a8       ??_C@_0EM@EJNDEGPE@Application?5?$CFs?5?$CI?$CFs?$CJ?4?5Failed?5to?5@ 710c63a8     synch.obj
 0002:000123f4       ??_C@_0CD@POGBPFIO@Detaching?5from?5application?5?$CFs?5?$CI@ 710c63f4     synch.obj
 0002:00012418       _dynamorio_version_string  710c6418     buildmark.obj
 0002:00012458       _dynamorio_buildmark       710c6458     buildmark.obj
 0002:00012470       ??_C@_0CP@OLJCPOCD@?3?5unable?5to?5process?5imports?5of?5@ 710c6470     loader_shared.obj
 0002:000124a0       ??_C@_0DK@ONLLFBAC@Application?5?$CFs?5?$CI?$CFs?$CJ?4?5Unable?5to?5@ 710c64a0     loader_shared.obj
 0002:000124dc       ??_C@_0BO@GIFAMEFE@?3?5library?5initializer?5failed?4@ 710c64dc     loader_shared.obj
 0002:000124fc       ??_C@_06NPBELFDH@drpath@   710c64fc     loader_shared.obj
 0002:00012504       ??_C@_07NGPFMEBJ@?$CF?4?$CKs?4?$CFs@ 710c6504     loader_shared.obj
 0002:0001250c       ??_C@_04EBNJJJJI@?$CF?4?$CKs@ 710c650c     loader_shared.obj
 0002:00012514       ??_C@_05PPFLLEHB@lib32@    710c6514     loader_shared.obj
 0002:0001251c       ??_C@_04DJCABLIL@?$CFs?$CFc@ 710c651c     loader_shared.obj
 0002:00012524       ??_C@_03MDPCKCMI@ext@      710c6524     loader_shared.obj
 0002:00012528       ??_C@_0O@OOHDEANC@drmemory?1drmf@ 710c6528     loader_shared.obj
 0002:00012538       ??_C@_06BCODOKDE@?$CFs?$DN?$CFp?6@ 710c6538     loader_shared.obj
 0002:00012580       ??_C@_03LKNCIKJB@NAN@      710c6580     io.obj
 0002:00012584       ??_C@_03LHCJEHON@nan@      710c6584     io.obj
 0002:00012588       ??_C@_03OEIAHPBN@INF@      710c6588     io.obj
 0002:0001258c       ??_C@_03OJHLLCGB@inf@      710c658c     io.obj
 0002:00012590       ??_C@_06CBHGEMFM@?$DMNULL?$DO@ 710c6590     io.obj
 0002:00012598       ??_C@_17BJAFAGIO@?$AAN?$AAA?$AAN@ 710c6598     io.obj
 0002:000125a0       ??_C@_17EHONMONA@?$AAn?$AAa?$AAn@ 710c65a0     io.obj
 0002:000125a8       ??_C@_17CHCCJFKN@?$AAI?$AAN?$AAF@ 710c65a8     io.obj
 0002:000125b0       ??_C@_17HJMKFNPD@?$AAi?$AAn?$AAf@ 710c65b0     io.obj
 0002:000125b8       ??_C@_1O@DPFEOIGE@?$AA?$DM?$AAN?$AAU?$AAL?$AAL?$AA?$DO@ 710c65b8     io.obj
 0002:000125c8       ??_C@_02MLODCJFF@32@       710c65c8     io.obj
 0002:000125cc       ??_C@_02JLHCEMDI@64@       710c65cc     io.obj
 0002:000125d0       __real@3fe0000000000000    710c65d0     io.obj
 0002:000125d8       __real@3ff0000000000000    710c65d8     io.obj
 0002:000125e0       __real@4024000000000000    710c65e0     io.obj
 0002:000125e8       __real@bff0000000000000    710c65e8     io.obj
 0002:000125f0       __real@c024000000000000    710c65f0     io.obj
 0002:000125f8       ??_C@_0BE@BKBACEEC@UNIQUE_BUILD_NUMBER@ 710c65f8     instrument.obj
 0002:00012610       ??_C@_0FI@JIMMJHIH@Application?5?$CFs?5?$CI?$CFs?$CJ?3?5AVX?9512?5wa@ 710c6610     instrument.obj
 0002:00012668       ??_C@_0DB@OFOBBOGJ@?4?6?7Error?5opening?5instrumentatio@ 710c6668     instrument.obj
 0002:0001269c       ??_C@_0BC@PNAPMNNK@_USES_DR_VERSION_@ 710c669c     instrument.obj
 0002:000126b0       ??_C@_0GD@MGGBLEOH@Application?5?$CFs?5?$CI?$CFs?$CJ?4?5Client?5lib@ 710c66b0     instrument.obj
 0002:00012714       ??_C@_0BP@CBKDEKDD@_DR_CLIENT_AVX512_CODE_IN_USE_@ 710c6714     instrument.obj
 0002:00012734       ??_C@_0BK@LBCOPHOK@your?5tool?8s?5issue?5tracker@ 710c6734     instrument.obj
 0002:00012750       ??_C@_04BNMICOAK@Tool@     710c6750     instrument.obj
 0002:00012758       ??_C@_0P@IFEPHBON@dr_client_main@ 710c6758     instrument.obj
 0002:00012768       ??_C@_07LNNCMKG@dr_init@   710c6768     instrument.obj
 0002:00012770       ??_C@_08HMKICLAB@dr_abort@ 710c6770     instrument.obj
 0002:0001277c       ??_C@_04HDOCAJNK@?$CFs?$CFs@ 710c677c     instrument.obj
 0002:00012784       ??_C@_15MAOEGKJF@?$AA?$CF?$AAS@ 710c6784     instrument.obj
 0002:0001278c       ??_C@_0N@MDJJJHMB@kernel32?4dll@ 710c678c     instrument.obj
 0002:0001279c       ??_C@_09NOIIIIGM@WriteFile@ 710c679c     instrument.obj
 0002:000127a8       ??_C@_06OFPIHFCP@?$CFs?5?$CFp?5@ 710c67a8     instrument.obj
 0002:000127b0       ??_C@_03IKGEINEE@?$CFs?5@  710c67b0     instrument.obj
 0002:000127d0       __xmm@ffffffffffffffffffffffffffffffff 710c67d0     translate.obj
 0002:000127e0       ??_C@_0CI@HAOOFMIM@dynamorio_annotate_running_on_d@ 710c67e0     annotations.obj
 0002:00012808       ??_C@_0BF@BAJJELNG@dynamorio?9annotation@ 710c6808     annotations.obj
 0002:00012820       ??_C@_05KEHNFFBA@void?3@   710c6820     annotations.obj
 0002:00012828       ??_C@_0CE@LBPHIFNO@dynamorio_annotate_manage_code_@ 710c6828     jit_opt.obj
 0002:0001284c       ??_C@_0CG@KNGCFOML@dynamorio_annotate_unmanage_cod@ 710c684c     jit_opt.obj
 0002:00012874       ??_C@_0BH@OENOCKCN@Profile?5for?5thread?5?$CFu?6@ 710c6874     arch.obj
 0002:0001288c       ??_C@_0DM@MMCABBLK@?6Dumping?5cache?5enter?1exit?5code?5@ 710c688c     arch.obj
 0002:000128c8       ??_C@_0DI@FOPHBKOM@?6Dumping?5trace?5IBL?5code?5?$CFs?5prof@ 710c68c8     arch.obj
 0002:00012900       ??_C@_0DF@MALCKLID@?6Dumping?5BB?5IBL?5code?5?$CFs?5profile@ 710c6900     arch.obj
 0002:00012938       ??_C@_0DJ@CONBGPDP@?6Dumping?5coarse?5IBL?5code?5?$CFs?5pro@ 710c6938     arch.obj
 0002:00012974       ??_C@_0DF@BJLCLLJA@?6Dumping?5generated?5code?5profile@ 710c6974     arch.obj
 0002:00012a38       ??_C@_03BKMCPNMN@ret@      710c6a38     arch.obj
 0002:00012a3c       ??_C@_07MIBIGKOG@indcall@  710c6a3c     arch.obj
 0002:00012a44       ??_C@_06BJFKKAPC@indjmp@   710c6a44     arch.obj
 0002:00012a4c       ??_C@_0BH@MAPEGCLF@shared_unlinked_bb_ibl@ 710c6a4c     arch.obj
 0002:00012a64       ??_C@_0BF@FHEKAGHL@shared_delete_bb_ibl@ 710c6a64     arch.obj
 0002:00012a7c       ??_C@_0O@OKEDJFAN@shared_bb_far@ 710c6a7c     arch.obj
 0002:00012a8c       ??_C@_0BH@IFBMIFFB@shared_bb_far_unlinked@ 710c6a8c     arch.obj
 0002:00012aa4       ??_C@_0O@GECHAENN@shared_bb_ibl@ 710c6aa4     arch.obj
 0002:00012ab4       ??_C@_0BH@PAEPHGKJ@shared_bb_ibl_template@ 710c6ab4     arch.obj
 0002:00012acc       ??_C@_0BK@KDHINPEG@shared_unlinked_trace_ibl@ 710c6acc     arch.obj
 0002:00012ae8       ??_C@_0BI@BFABFELD@shared_delete_trace_ibl@ 710c6ae8     arch.obj
 0002:00012b00       ??_C@_0BB@EHKFJLOF@shared_trace_far@ 710c6b00     arch.obj
 0002:00012b14       ??_C@_0BK@NEIKCFIN@shared_trace_far_unlinked@ 710c6b14     arch.obj
 0002:00012b30       ??_C@_0BB@MJMBAKDF@shared_trace_ibl@ 710c6b30     arch.obj
 0002:00012b44       ??_C@_0BK@KBNJNGHF@shared_trace_ibl_template@ 710c6b44     arch.obj
 0002:00012b60       ??_C@_0BI@HMDBAGNP@private_unlinked_bb_ibl@ 710c6b60     arch.obj
 0002:00012b78       ??_C@_0BG@MDKMDBJ@private_delete_bb_ibl@ 710c6b78     arch.obj
 0002:00012b90       ??_C@_0P@DKGNFFFO@private_bb_far@ 710c6b90     arch.obj
 0002:00012ba0       ??_C@_0BI@DJNJOBDL@private_bb_far_unlinked@ 710c6ba0     arch.obj
 0002:00012bb8       ??_C@_0P@LEAJMEIO@private_bb_ibl@ 710c6bb8     arch.obj
 0002:00012bc8       ??_C@_0BI@EMIKBCMD@private_bb_ibl_template@ 710c6bc8     arch.obj
 0002:00012be0       ??_C@_0BL@MKHAJJA@private_unlinked_trace_ibl@ 710c6be0     arch.obj
 0002:00012bfc       ??_C@_0BJ@LINKBJJB@private_delete_trace_ibl@ 710c6bfc     arch.obj
 0002:00012c18       ??_C@_0BC@DOHDNBFN@private_trace_far@ 710c6c18     arch.obj
 0002:00012c2c       ??_C@_0BL@HLFFPDFL@private_trace_far_unlinked@ 710c6c2c     arch.obj
 0002:00012c48       ??_C@_0BC@LABHEAIN@private_trace_ibl@ 710c6c48     arch.obj
 0002:00012c5c       ??_C@_0BL@OAGAAKD@private_trace_ibl_template@ 710c6c5c     arch.obj
 0002:00012c78       ??_C@_0BL@OBMJDIGG@shared_unlinked_coarse_ibl@ 710c6c78     arch.obj
 0002:00012c94       ??_C@_0BJ@CMKIEHHO@shared_delete_coarse_ibl@ 710c6c94     arch.obj
 0002:00012cb0       ??_C@_0BI@MNEGOBPM@shared_coarse_trace_far@ 710c6cb0     arch.obj
 0002:00012cc8       ??_C@_0CB@GEBKNHML@shared_coarse_trace_far_unlinke@ 710c6cc8     arch.obj
 0002:00012cec       ??_C@_0BC@CIKPKBDF@shared_coarse_ibl@ 710c6cec     arch.obj
 0002:00012d00       ??_C@_0BL@FAGPNCDA@shared_coarse_ibl_template@ 710c6d00     arch.obj
 0002:00012d20       ??_C@_0HG@PCHCAKLE@?7?$DMpriv_mcontext_t?5value?$DN?$CC?$EA?$CFp?$CC?6?7@ 710c6d20     arch.obj
 0002:00012d98       ??_C@_0GF@DFBFJHMI@priv_mcontext_t?5?$EA?$CFp?6?7xax?5?$DN?5?$CFp?6?7@ 710c6d98     arch.obj
 0002:00012e00       ??_C@_0N@BPDCECI@?7?7zmm?$CFd?$DN?5?$CC0x@ 710c6e00     arch.obj
 0002:00012e10       ??_C@_0L@NMHCCIEO@?7zmm?$CFd?$DN?50x@ 710c6e10     arch.obj
 0002:00012e1c       ??_C@_0N@JIBBECCJ@?7?7ymm?$CFd?$DN?5?$CC0x@ 710c6e1c     arch.obj
 0002:00012e2c       ??_C@_0L@DHEFJDEN@?7ymm?$CFd?$DN?50x@ 710c6e2c     arch.obj
 0002:00012e38       ??_C@_0N@FJJPJNOJ@?7?7xmm?$CFd?$DN?5?$CC0x@ 710c6e38     arch.obj
 0002:00012e48       ??_C@_0L@NIIHPIHD@?7xmm?$CFd?$DN?50x@ 710c6e48     arch.obj
 0002:00012e54       ??_C@_02MBJIFMOJ@?$CC?6@   710c6e54     arch.obj
 0002:00012e58       ??_C@_0N@JJACBKF@?7?7k?$CFd?$DN?5?$CC?$CFp?$CC?6@ 710c6e58     arch.obj
 0002:00012e68       ??_C@_09LAOOEDFP@?7k?$CFd?$DN?5?$CFp?6@ 710c6e68     arch.obj
 0002:00012e74       ??_C@_0BN@GKNCNDDP@?6?7?7eflags?$DN?$CC?$CFp?$CC?6?7?7pc?$DN?$CC?$CFp?$CC?5?1?$DO?6@ 710c6e74     arch.obj
 0002:00012e94       ??_C@_0BL@HFCCLJHP@?7eflags?5?$DN?5?$CFp?6?7pc?5?5?5?5?5?$DN?5?$CFp?6@ 710c6e94     arch.obj
 0002:00012eb0       ??_C@_0BP@EGLOOCCP@Maximum?5patch?5entries?5exceeded@ 710c6eb0     emit_utils_shared.obj
 0002:00012ed0       ??_C@_0L@KLLMJEBJ@?$DMmaxpatch?$DO@ 710c6ed0     emit_utils_shared.obj
 0002:00012edc       ??_C@_03JBKCNEPI@?$AP?$BP?$AA@ 710c6edc     emit_utils.obj
 0002:00012ee0       ??_C@_05EJKNCDLA@?$AP?$BPD?$AA?$AA@ 710c6ee0     emit_utils.obj
 0002:00012ee8       ??_C@_06INGFCELC@f?$AP?$BPD?$AA?$AA@ 710c6ee8     emit_utils.obj
 0002:00012ef0       ??_C@_07MMNLMKMF@?$AP?$BP?$IA?$AA?$AA?$AA?$AA@ 710c6ef0     emit_utils.obj
 0002:00012ef8       ??_C@_09MGPHMBAJ@f?$AP?$BP?$IE?$AA?$AA?$AA?$AA?$AA@ 710c6ef8     emit_utils.obj
 0002:00012f04       _d_r_regparms              710c6f04     opnd_shared.obj
 0002:00012f08       ??_C@_0BJ@JEFEMNGG@opnd_compute_address?5for@ 710c6f08     opnd_shared.obj
 0002:00012f28       _invalid_instr             710c6f28     decode_shared.obj
 0002:00012f50       _size_names                710c6f50     decode_shared.obj
 0002:00013108       ??_C@_07LBAEHFCJ@OPSZ_NA@  710c7108     decode_shared.obj
 0002:00013110       ??_C@_08LJKEPHG@OPSZ_lea@  710c7110     decode_shared.obj
 0002:0001311c       ??_C@_06KGOABJAE@OPSZ_1@   710c711c     decode_shared.obj
 0002:00013124       ??_C@_06INMNEKMH@OPSZ_2@   710c7124     decode_shared.obj
 0002:0001312c       ??_C@_06NLJHONEB@OPSZ_4@   710c712c     decode_shared.obj
 0002:00013134       ??_C@_06OJKBIPMD@OPSZ_6@   710c7134     decode_shared.obj
 0002:0001313c       ??_C@_06HHCCKCEN@OPSZ_8@   710c713c     decode_shared.obj
 0002:00013144       ??_C@_07NIINBCPD@OPSZ_10@  710c7144     decode_shared.obj
 0002:0001314c       ??_C@_07IONHLFHF@OPSZ_16@  710c714c     decode_shared.obj
 0002:00013154       ??_C@_07LMOBNHPH@OPSZ_14@  710c7154     decode_shared.obj
 0002:0001315c       ??_C@_07BCBCCGKC@OPSZ_28@  710c715c     decode_shared.obj
 0002:00013164       ??_C@_07LCPCIGEP@OPSZ_94@  710c7164     decode_shared.obj
 0002:0001316c       ??_C@_08DDPDJCEP@OPSZ_108@ 710c716c     decode_shared.obj
 0002:00013178       ??_C@_08EHLMIHKF@OPSZ_512@ 710c7178     decode_shared.obj
 0002:00013184       ??_C@_0O@FDBPCDNN@OPSZ_2_short1@ 710c7184     decode_shared.obj
 0002:00013194       ??_C@_0O@LCIAJJE@OPSZ_4_short2@ 710c7194     decode_shared.obj
 0002:000131a4       ??_C@_0BD@JEMAIDCF@OPSZ_4_rex8_short2@ 710c71a4     decode_shared.obj
 0002:000131b8       ??_C@_0M@OEFJNBBC@OPSZ_4_rex8@ 710c71b8     decode_shared.obj
 0002:000131c4       ??_C@_0BF@HOBPKKNH@OPSZ_6_irex10_short4@ 710c71c4     decode_shared.obj
 0002:000131dc       ??_C@_0O@ONBMPKIA@OPSZ_8_short2@ 710c71dc     decode_shared.obj
 0002:000131ec       ??_C@_0O@LLEGFNAG@OPSZ_8_short4@ 710c71ec     decode_shared.obj
 0002:000131fc       ??_C@_0BA@CHDINEMI@OPSZ_28_short14@ 710c71fc     decode_shared.obj
 0002:0001320c       ??_C@_0BB@MEHNBAOA@OPSZ_108_short94@ 710c720c     decode_shared.obj
 0002:00013220       ??_C@_08HKKELOAF@OPSZ_4x8@ 710c7220     decode_shared.obj
 0002:0001322c       ??_C@_09NKEHAOCN@OPSZ_6x10@ 710c722c     decode_shared.obj
 0002:00013238       ??_C@_0BA@CCCAJOJB@OPSZ_4x8_short2@ 710c7238     decode_shared.obj
 0002:00013248       ??_C@_0BD@NGGPJBJO@OPSZ_4x8_short2xi8@ 710c7248     decode_shared.obj
 0002:0001325c       ??_C@_0BB@EMMKIILP@OPSZ_4_short2xi4@ 710c725c     decode_shared.obj
 0002:00013270       ??_C@_0M@NKOFFPE@OPSZ_1_reg4@ 710c7270     decode_shared.obj
 0002:0001327c       ??_C@_0M@DMEGEPGJ@OPSZ_2_reg4@ 710c727c     decode_shared.obj
 0002:00013288       ??_C@_0N@HNOKMFKK@OPSZ_4_reg16@ 710c7288     decode_shared.obj
 0002:00013298       ??_C@_0L@KABHCAEE@OPSZ_xsave@ 710c7298     decode_shared.obj
 0002:000132a4       ??_C@_07OKLLHAHB@OPSZ_12@  710c72a4     decode_shared.obj
 0002:000132ac       ??_C@_07OJDPKEBP@OPSZ_32@  710c72ac     decode_shared.obj
 0002:000132b4       ??_C@_07NOEGNABI@OPSZ_40@  710c72b4     decode_shared.obj
 0002:000132bc       ??_C@_0BA@MDKCPJED@OPSZ_32_short16@ 710c72bc     decode_shared.obj
 0002:000132cc       ??_C@_0N@CCDPJHCM@OPSZ_8_rex16@ 710c72cc     decode_shared.obj
 0002:000132dc       ??_C@_0BE@KGJDCAOK@OPSZ_8_rex16_short4@ 710c72dc     decode_shared.obj
 0002:000132f0       ??_C@_0BF@LKNNMDIJ@OPSZ_12_rex40_short6@ 710c72f0     decode_shared.obj
 0002:00013308       ??_C@_0O@OPACKEMI@OPSZ_16_vex32@ 710c7308     decode_shared.obj
 0002:00013318       ??_C@_07KFPKOGLG@OPSZ_15@  710c7318     decode_shared.obj
 0002:00013320       ??_C@_06JENGHLIG@OPSZ_3@   710c7320     decode_shared.obj
 0002:00013328       ??_C@_07FAAACNCF@OPSZ_1b@  710c7328     decode_shared.obj
 0002:00013330       ??_C@_07FCEGJDHM@OPSZ_2b@  710c7330     decode_shared.obj
 0002:00013338       ??_C@_07FDIEPJEL@OPSZ_3b@  710c7338     decode_shared.obj
 0002:00013340       ??_C@_07FGMLOPMO@OPSZ_4b@  710c7340     decode_shared.obj
 0002:00013348       ??_C@_07FHAJIFPJ@OPSZ_5b@  710c7348     decode_shared.obj
 0002:00013350       ??_C@_07FFEPDLKA@OPSZ_6b@  710c7350     decode_shared.obj
 0002:00013358       ??_C@_07FEINFBJH@OPSZ_7b@  710c7358     decode_shared.obj
 0002:00013360       ??_C@_07FOBDHMJN@OPSZ_9b@  710c7360     decode_shared.obj
 0002:00013368       ??_C@_08HDKHCHJB@OPSZ_10b@ 710c7368     decode_shared.obj
 0002:00013374       ??_C@_08HCGFENKG@OPSZ_11b@ 710c7374     decode_shared.obj
 0002:00013380       ??_C@_08HACDPDPP@OPSZ_12b@ 710c7380     decode_shared.obj
 0002:0001338c       ??_C@_08GBBCIIHP@OPSZ_20b@ 710c738c     decode_shared.obj
 0002:00013398       ??_C@_08GHNJEKJE@OPSZ_25b@ 710c7398     decode_shared.obj
 0002:000133a4       ??_C@_0BB@CNHKDCOI@OPSZ_VAR_REGLIST@ 710c73a4     decode_shared.obj
 0002:000133b8       ??_C@_07NKMLKMKK@OPSZ_20@  710c73b8     decode_shared.obj
 0002:000133c0       ??_C@_07LOKHGJKO@OPSZ_24@  710c73c0     decode_shared.obj
 0002:000133c8       ??_C@_07INFDGBBL@OPSZ_36@  710c73c8     decode_shared.obj
 0002:000133d0       ??_C@_07LKCKBFBM@OPSZ_44@  710c73d0     decode_shared.obj
 0002:000133d8       ??_C@_07BGJPFKBA@OPSZ_48@  710c73d8     decode_shared.obj
 0002:000133e0       ??_C@_07ONLCNIKN@OPSZ_52@  710c73e0     decode_shared.obj
 0002:000133e8       ??_C@_07IJNOBNKJ@OPSZ_56@  710c73e8     decode_shared.obj
 0002:000133f0       ??_C@_07NNMCAEHG@OPSZ_60@  710c73f0     decode_shared.obj
 0002:000133f8       ??_C@_07LJKOMBHC@OPSZ_64@  710c73f8     decode_shared.obj
 0002:00013400       ??_C@_07BFBLIOHO@OPSZ_68@  710c7400     decode_shared.obj
 0002:00013408       ??_C@_07OODGAMMD@OPSZ_72@  710c7408     decode_shared.obj
 0002:00013410       ??_C@_07IKFKMJMH@OPSZ_76@  710c7410     decode_shared.obj
 0002:00013418       ??_C@_07NHFMCJHM@OPSZ_80@  710c7418     decode_shared.obj
 0002:00013420       ??_C@_07LDDAOMHI@OPSZ_84@  710c7420     decode_shared.obj
 0002:00013428       ??_C@_07BPIFKDHE@OPSZ_88@  710c7428     decode_shared.obj
 0002:00013430       ??_C@_07OEKICBMJ@OPSZ_92@  710c7430     decode_shared.obj
 0002:00013438       ??_C@_07IAMEOEMN@OPSZ_96@  710c7438     decode_shared.obj
 0002:00013440       ??_C@_08PLCKBIEH@OPSZ_100@ 710c7440     decode_shared.obj
 0002:0001344c       ??_C@_08JPEGNNED@OPSZ_104@ 710c744c     decode_shared.obj
 0002:00013458       ??_C@_08MINOBAPC@OPSZ_112@ 710c7458     decode_shared.obj
 0002:00013464       ??_C@_08KMLCNFPG@OPSZ_116@ 710c7464     decode_shared.obj
 0002:00013470       ??_C@_08PIKOMMCJ@OPSZ_120@ 710c7470     decode_shared.obj
 0002:0001347c       ??_C@_08JMMCAJCN@OPSZ_124@ 710c747c     decode_shared.obj
 0002:00013488       ??_C@_08DAHHEGCB@OPSZ_128@ 710c7488     decode_shared.obj
 0002:00013494       ??_C@_0O@HPCDAABL@OPSZ_SCALABLE@ 710c7494     decode_shared.obj
 0002:000134a4       ??_C@_0BD@MDBHEMPJ@OPSZ_SCALABLE_PRED@ 710c74a4     decode_shared.obj
 0002:000134b8       ??_C@_0BF@GFMFPGHF@OPSZ_16_vex32_evex64@ 710c74b8     decode_shared.obj
 0002:000134d0       ??_C@_0BC@GGPNCOBN@OPSZ_vex32_evex64@ 710c74d0     decode_shared.obj
 0002:000134e4       ??_C@_0BF@IOGOBCOD@OPSZ_16_of_32_evex64@ 710c74e4     decode_shared.obj
 0002:000134fc       ??_C@_0O@ELLDFJNN@OPSZ_32_of_64@ 710c74fc     decode_shared.obj
 0002:0001350c       ??_C@_0BE@PKKMONEL@OPSZ_4_of_32_evex64@ 710c750c     decode_shared.obj
 0002:00013520       ??_C@_0BE@LPFJEEKP@OPSZ_8_of_32_evex64@ 710c7520     decode_shared.obj
 0002:00013534       ??_C@_09DDCNBHMK@OPSZ_8x16@ 710c7534     decode_shared.obj
 0002:00013540       ??_C@_0M@KNBDBNAB@OPSZ_1_of_4@ 710c7540     decode_shared.obj
 0002:0001354c       ??_C@_0M@JMPLAHJM@OPSZ_2_of_4@ 710c754c     decode_shared.obj
 0002:00013558       ??_C@_0M@BKGFCAN@OPSZ_1_of_8@ 710c7558     decode_shared.obj
 0002:00013564       ??_C@_0M@DAEOEIJA@OPSZ_2_of_8@ 710c7564     decode_shared.obj
 0002:00013570       ??_C@_0M@FDJOHNKK@OPSZ_4_of_8@ 710c7570     decode_shared.obj
 0002:0001357c       ??_C@_0N@PIHNHABF@OPSZ_1_of_16@ 710c757c     decode_shared.obj
 0002:0001358c       ??_C@_0N@HGPCHHPG@OPSZ_2_of_16@ 710c758c     decode_shared.obj
 0002:0001359c       ??_C@_0N@LAJNHOHB@OPSZ_4_of_16@ 710c759c     decode_shared.obj
 0002:000135ac       ??_C@_0BC@OHPDGKDH@OPSZ_4_rex8_of_16@ 710c75ac     decode_shared.obj
 0002:000135c0       ??_C@_0N@OHDCGLDO@OPSZ_8_of_16@ 710c75c0     decode_shared.obj
 0002:000135d0       ??_C@_0O@FCDMAFFM@OPSZ_12_of_16@ 710c75d0     decode_shared.obj
 0002:000135e0       ??_C@_0BD@NGGOAACG@OPSZ_12_rex8_of_16@ 710c75e0     decode_shared.obj
 0002:000135f4       ??_C@_0O@JEFDAMNL@OPSZ_14_of_16@ 710c75f4     decode_shared.obj
 0002:00013604       ??_C@_0O@FIPJAMEF@OPSZ_15_of_16@ 710c7604     decode_shared.obj
 0002:00013614       ??_C@_0O@LBJOBKMM@OPSZ_16_of_32@ 710c7614     decode_shared.obj
 0002:00013624       ??_C@_0BD@LHPFCGAI@OPSZ_half_16_vex32@ 710c7624     decode_shared.obj
 0002:00013638       ??_C@_0BK@OANHHCN@OPSZ_half_16_vex32_evex64@ 710c7638     decode_shared.obj
 0002:00013654       ??_C@_0BG@BBJABHAE@OPSZ_quarter_16_vex32@ 710c7654     decode_shared.obj
 0002:0001366c       ??_C@_0BN@DPFJHHLF@OPSZ_quarter_16_vex32_evex64@ 710c766c     decode_shared.obj
 0002:0001368c       ??_C@_0BF@CNOJDMFD@OPSZ_eighth_16_vex32@ 710c768c     decode_shared.obj
 0002:000136a4       ??_C@_0BM@PKHPJANO@OPSZ_eighth_16_vex32_evex64@ 710c76a4     decode_shared.obj
 0002:000136c0       ??_C@_05MODCJBFL@?$CIbad?$CJ@ 710c76c0     decode_shared.obj
 0002:000137a0       _reg_names                 710c77a0     encode.obj
 0002:00013ce0       _dr_reg_fixer              710c7ce0     encode.obj
 0002:00013f80       _type_names                710c7f80     encode.obj
 0002:00014070       ??_C@_09BPAIOAGF@TYPE_NONE@ 710c8070     encode.obj
 0002:0001407c       ??_C@_06IENDMEBH@TYPE_A@   710c807c     encode.obj
 0002:00014084       ??_C@_06KPPOJHNE@TYPE_B@   710c8084     encode.obj
 0002:0001408c       ??_C@_06LGOFKGJF@TYPE_C@   710c808c     encode.obj
 0002:00014094       ??_C@_06PJKEDAFC@TYPE_D@   710c8094     encode.obj
 0002:0001409c       ??_C@_06OALPABBD@TYPE_E@   710c809c     encode.obj
 0002:000140a4       ??_C@_06NCIJGDJB@TYPE_G@   710c80a4     encode.obj
 0002:000140ac       ??_C@_06FFBBHPFO@TYPE_H@   710c80ac     encode.obj
 0002:000140b4       ??_C@_06EMAKEOBP@TYPE_I@   710c80b4     encode.obj
 0002:000140bc       ??_C@_06GHCHBNNM@TYPE_J@   710c80bc     encode.obj
 0002:000140c4       ??_C@_06DBHNLKFK@TYPE_L@   710c80c4     encode.obj
 0002:000140cc       ??_C@_06CIGGILBL@TYPE_M@   710c80cc     encode.obj
 0002:000140d4       ??_C@_06BKFAOJJJ@TYPE_O@   710c80d4     encode.obj
 0002:000140dc       ??_C@_06NHAKOHAH@TYPE_P@   710c80dc     encode.obj
 0002:000140e4       ??_C@_06MOBBNGEG@TYPE_Q@   710c80e4     encode.obj
 0002:000140ec       ??_C@_06OFDMIFIF@TYPE_R@   710c80ec     encode.obj
 0002:000140f4       ??_C@_06PMCHLEME@TYPE_S@   710c80f4     encode.obj
 0002:000140fc       ??_C@_06IBFAEAIB@TYPE_V@   710c80fc     encode.obj
 0002:00014104       ??_C@_06JIELHBMA@TYPE_W@   710c8104     encode.obj
 0002:0001410c       ??_C@_06BPNDGNAP@TYPE_X@   710c810c     encode.obj
 0002:00014114       ??_C@_06GMIFMEO@TYPE_Y@    710c8114     encode.obj
 0002:0001411c       ??_C@_0N@OCOLKDCO@TYPE_P_MODRM@ 710c811c     encode.obj
 0002:0001412c       ??_C@_0N@CEIEKKKJ@TYPE_V_MODRM@ 710c812c     encode.obj
 0002:0001413c       ??_C@_06KLOMLNOB@TYPE_1@   710c813c     encode.obj
 0002:00014144       ??_C@_0BA@CPPFIICC@TYPE_FLOATCONST@ 710c8144     encode.obj
 0002:00014154       ??_C@_09LKJIEJIE@TYPE_XLAT@ 710c8154     encode.obj
 0002:00014160       ??_C@_0O@FIEKAIGB@TYPE_MASKMOVQ@ 710c8160     encode.obj
 0002:00014170       ??_C@_0O@HPBBCLLN@TYPE_FLOATMEM@ 710c8170     encode.obj
 0002:00014180       ??_C@_09BPFJFEED@TYPE_VSIB@ 710c8180     encode.obj
 0002:0001418c       ??_C@_08BCEPGIHE@TYPE_REG@ 710c818c     encode.obj
 0002:00014198       ??_C@_09GMLIIAGG@TYPE_XREG@ 710c8198     encode.obj
 0002:000141a4       ??_C@_0N@BHPBDPMK@TYPE_VAR_REG@ 710c81a4     encode.obj
 0002:000141b4       ??_C@_0O@KCIJONBJ@TYPE_VARZ_REG@ 710c81b4     encode.obj
 0002:000141c4       ??_C@_0O@EAGEKALK@TYPE_VAR_XREG@ 710c81c4     encode.obj
 0002:000141d4       ??_C@_0O@JMEANMN@TYPE_VAR_REGX@ 710c81d4     encode.obj
 0002:000141e4       ??_C@_0BD@IEAGIIP@TYPE_VAR_ADDR_XREG@ 710c81e4     encode.obj
 0002:000141f8       ??_C@_0M@IPOCPKLD@TYPE_REG_EX@ 710c81f8     encode.obj
 0002:00014204       ??_C@_0BA@JJABHMLE@TYPE_VAR_REG_EX@ 710c8204     encode.obj
 0002:00014214       ??_C@_0BB@LLEMOFKN@TYPE_VAR_XREG_EX@ 710c8214     encode.obj
 0002:00014228       ??_C@_0BB@CHINPKHN@TYPE_VAR_REGX_EX@ 710c8228     encode.obj
 0002:0001423c       ??_C@_0N@FNIKKLCE@TYPE_INDIR_E@ 710c823c     encode.obj
 0002:0001424c       ??_C@_0P@LEELDPID@TYPE_INDIR_REG@ 710c824c     encode.obj
 0002:0001425c       ??_C@_0BE@BDPOKIFP@TYPE_INDIR_VAR_XREG@ 710c825c     encode.obj
 0002:00014270       ??_C@_0BD@DOGKOKDI@TYPE_INDIR_VAR_REG@ 710c8270     encode.obj
 0002:00014284       ??_C@_0BF@JNIFHGNE@TYPE_INDIR_VAR_XIREG@ 710c8284     encode.obj
 0002:0001429c       ??_C@_0BL@NNIIHCIB@TYPE_INDIR_VAR_XREG_OFFS_1@ 710c829c     encode.obj
 0002:000142b8       ??_C@_0BL@MEKMJMI@TYPE_INDIR_VAR_XREG_OFFS_8@ 710c82b8     encode.obj
 0002:000142d4       ??_C@_0BL@HFCPBHLI@TYPE_INDIR_VAR_XREG_OFFS_N@ 710c82d4     encode.obj
 0002:000142f0       ??_C@_0BM@PMCJKBAA@TYPE_INDIR_VAR_XIREG_OFFS_1@ 710c82f0     encode.obj
 0002:0001430c       ??_C@_0BK@IMPKAOHN@TYPE_INDIR_VAR_REG_OFFS_2@ 710c830c     encode.obj
 0002:00014328       ??_C@_0BL@LAACKPAC@TYPE_INDIR_VAR_XREG_SIZEx8@ 710c8328     encode.obj
 0002:00014344       ??_C@_0BK@DALCGILH@TYPE_INDIR_VAR_REG_SIZEx2@ 710c8344     encode.obj
 0002:00014360       ??_C@_0BM@KIICHNJM@TYPE_INDIR_VAR_REG_SIZEx3x5@ 710c8360     encode.obj
 0002:0001437c       ??_C@_0N@MDDKIOFD@TYPE_K_MODRM@ 710c837c     encode.obj
 0002:0001438c       ??_C@_0P@HEPLDFNB@TYPE_K_MODRM_R@ 710c838c     encode.obj
 0002:0001439c       ??_C@_0L@KIBNKKOD@TYPE_K_REG@ 710c839c     encode.obj
 0002:000143a8       ??_C@_0L@OKCFDDCK@TYPE_K_VEX@ 710c83a8     encode.obj
 0002:000143b4       ??_C@_0M@NICBBOLJ@TYPE_K_EVEX@ 710c83b4     encode.obj
 0002:000143c0       ??_C@_0L@FKJNBKKN@TYPE_T_REG@ 710c83c0     encode.obj
 0002:000143cc       ??_C@_0N@GGKBKNNE@TYPE_T_MODRM@ 710c83cc     encode.obj
 0002:000143dc       ??_C@_03LBHOBKBN@rax@      710c83dc     encode.obj
 0002:000143e0       ??_C@_03LCPKMOHD@rcx@      710c83e0     encode.obj
 0002:000143e4       ??_C@_03LHLFNIPG@rdx@      710c83e4     encode.obj
 0002:000143e8       ??_C@_03LDDIKEEE@rbx@      710c83e8     encode.obj
 0002:000143ec       ??_C@_03GGAFOHAL@rsp@      710c83ec     encode.obj
 0002:000143f0       ??_C@_03HLOBCOEM@rbp@      710c83f0     encode.obj
 0002:000143f4       ??_C@_03PNAFEOBD@rsi@      710c83f4     encode.obj
 0002:000143f8       ??_C@_03OEGMPLOG@rdi@      710c83f8     encode.obj
 0002:000143fc       ??_C@_02EAFECGCI@r8@       710c83fc     encode.obj
 0002:00014400       ??_C@_02FJEPBHGJ@r9@       710c8400     encode.obj
 0002:00014404       ??_C@_03OFGCPBKA@r10@      710c8404     encode.obj
 0002:00014408       ??_C@_03PMHJMAOB@r11@      710c8408     encode.obj
 0002:0001440c       ??_C@_03NHFEJDCC@r12@      710c840c     encode.obj
 0002:00014410       ??_C@_03MOEPKCGD@r13@      710c8410     encode.obj
 0002:00014414       ??_C@_03IBAODEKE@r14@      710c8414     encode.obj
 0002:00014418       ??_C@_03JIBFAFOF@r15@      710c8418     encode.obj
 0002:0001441c       ??_C@_03HMLAHFDL@eax@      710c841c     encode.obj
 0002:00014420       ??_C@_03HPDEKBFF@ecx@      710c8420     encode.obj
 0002:00014424       ??_C@_03HKHLLHNA@edx@      710c8424     encode.obj
 0002:00014428       ??_C@_03HOPGMLGC@ebx@      710c8428     encode.obj
 0002:0001442c       ??_C@_03KLMLIICN@esp@      710c842c     encode.obj
 0002:00014430       ??_C@_03LGCPEBGK@ebp@      710c8430     encode.obj
 0002:00014434       ??_C@_03DAMLCBDF@esi@      710c8434     encode.obj
 0002:00014438       ??_C@_03CJKCJEMA@edi@      710c8438     encode.obj
 0002:0001443c       ??_C@_03DEGEFCHP@r8d@      710c843c     encode.obj
 0002:00014440       ??_C@_03DFKGDIEI@r9d@      710c8440     encode.obj
 0002:00014444       ??_C@_04NHKCGPLK@r10d@     710c8444     encode.obj
 0002:0001444c       ??_C@_04NGGAAFIN@r11d@     710c844c     encode.obj
 0002:00014454       ??_C@_04NECGLLNE@r12d@     710c8454     encode.obj
 0002:0001445c       ??_C@_04NFOENBOD@r13d@     710c845c     encode.obj
 0002:00014464       ??_C@_04NAKLMHGG@r14d@     710c8464     encode.obj
 0002:0001446c       ??_C@_04NBGJKNFB@r15d@     710c846c     encode.obj
 0002:00014474       ??_C@_02KOENHEAE@ax@       710c8474     encode.obj
 0002:00014478       ??_C@_02KNMJKAGK@cx@       710c8478     encode.obj
 0002:0001447c       ??_C@_02KIIGLGOP@dx@       710c847c     encode.obj
 0002:00014480       ??_C@_02KMALMKFN@bx@       710c8480     encode.obj
 0002:00014484       ??_C@_02HJDGIJBC@sp@       710c8484     encode.obj
 0002:00014488       ??_C@_02GENCEAFF@bp@       710c8488     encode.obj
 0002:0001448c       ??_C@_02OCDGCAAK@si@       710c848c     encode.obj
 0002:00014490       ??_C@_02PLFPJFPP@di@       710c8490     encode.obj
 0002:00014494       ??_C@_03FFILBDON@r8w@      710c8494     encode.obj
 0002:00014498       ??_C@_03FEEJHJNK@r9w@      710c8498     encode.obj
 0002:0001449c       ??_C@_04LGENCOCI@r10w@     710c849c     encode.obj
 0002:000144a4       ??_C@_04LHIPEEBP@r11w@     710c84a4     encode.obj
 0002:000144ac       ??_C@_04LFMJPKEG@r12w@     710c84ac     encode.obj
 0002:000144b4       ??_C@_04LEALJAHB@r13w@     710c84b4     encode.obj
 0002:000144bc       ??_C@_04LBEEIGPE@r14w@     710c84bc     encode.obj
 0002:000144c4       ??_C@_04LAIGOMMD@r15w@     710c84c4     encode.obj
 0002:000144cc       ??_C@_02IAODKDFB@al@       710c84cc     encode.obj
 0002:000144d0       ??_C@_02IDGHHHDP@cl@       710c84d0     encode.obj
 0002:000144d4       ??_C@_02IGCIGBLK@dl@       710c84d4     encode.obj
 0002:000144d8       ??_C@_02ICKFBNAI@bl@       710c84d8     encode.obj
 0002:000144dc       ??_C@_02OEIPGGFF@ah@       710c84dc     encode.obj
 0002:000144e0       ??_C@_02OHALLCDL@ch@       710c84e0     encode.obj
 0002:000144e4       ??_C@_02OCEEKELO@dh@       710c84e4     encode.obj
 0002:000144e8       ??_C@_02OGMJNIAM@bh@       710c84e8     encode.obj
 0002:000144ec       ??_C@_03PMLNNIHH@r8l@      710c84ec     encode.obj
 0002:000144f0       ??_C@_03PNHPLCEA@r9l@      710c84f0     encode.obj
 0002:000144f4       ??_C@_04BPHLOFLC@r10l@     710c84f4     encode.obj
 0002:000144fc       ??_C@_04BOLJIPIF@r11l@     710c84fc     encode.obj
 0002:00014504       ??_C@_04BMPPDBNM@r12l@     710c8504     encode.obj
 0002:0001450c       ??_C@_04BNDNFLOL@r13l@     710c850c     encode.obj
 0002:00014514       ??_C@_04BIHCENGO@r14l@     710c8514     encode.obj
 0002:0001451c       ??_C@_04BJLACHFJ@r15l@     710c851c     encode.obj
 0002:00014524       ??_C@_03DKIIGDGK@spl@      710c8524     encode.obj
 0002:00014528       ??_C@_03NCCNFDJA@bpl@      710c8528     encode.obj
 0002:0001452c       ??_C@_03CJHPPLJF@sil@      710c852c     encode.obj
 0002:00014530       ??_C@_03OELBJELD@dil@      710c8530     encode.obj
 0002:00014534       ??_C@_03IILOGBLN@mm0@      710c8534     encode.obj
 0002:00014538       ??_C@_03JBKFFAPM@mm1@      710c8538     encode.obj
 0002:0001453c       ??_C@_03LKIIADDP@mm2@      710c853c     encode.obj
 0002:00014540       ??_C@_03KDJDDCHO@mm3@      710c8540     encode.obj
 0002:00014544       ??_C@_03OMNCKELJ@mm4@      710c8544     encode.obj
 0002:00014548       ??_C@_03PFMJJFPI@mm5@      710c8548     encode.obj
 0002:0001454c       ??_C@_03NOOEMGDL@mm6@      710c854c     encode.obj
 0002:00014550       ??_C@_03MHPPPHHK@mm7@      710c8550     encode.obj
 0002:00014554       ??_C@_04KGHKOCLC@xmm0@     710c8554     encode.obj
 0002:0001455c       ??_C@_04LPGBNDPD@xmm1@     710c855c     encode.obj
 0002:00014564       ??_C@_04JEEMIADA@xmm2@     710c8564     encode.obj
 0002:0001456c       ??_C@_04INFHLBHB@xmm3@     710c856c     encode.obj
 0002:00014574       ??_C@_04MCBGCHLG@xmm4@     710c8574     encode.obj
 0002:0001457c       ??_C@_04NLANBGPH@xmm5@     710c857c     encode.obj
 0002:00014584       ??_C@_04PACAEFDE@xmm6@     710c8584     encode.obj
 0002:0001458c       ??_C@_04OJDLHEHF@xmm7@     710c858c     encode.obj
 0002:00014594       ??_C@_04GOKDGILK@xmm8@     710c8594     encode.obj
 0002:0001459c       ??_C@_04HHLIFJPL@xmm9@     710c859c     encode.obj
 0002:000145a4       ??_C@_05PLENPEIG@xmm10@    710c85a4     encode.obj
 0002:000145ac       ??_C@_05OCFGMFMH@xmm11@    710c85ac     encode.obj
 0002:000145b4       ??_C@_05MJHLJGAE@xmm12@    710c85b4     encode.obj
 0002:000145bc       ??_C@_05NAGAKHEF@xmm13@    710c85bc     encode.obj
 0002:000145c4       ??_C@_05JPCBDBIC@xmm14@    710c85c4     encode.obj
 0002:000145cc       ??_C@_05IGDKAAMD@xmm15@    710c85cc     encode.obj
 0002:000145d4       ??_C@_05KNBHFDAA@xmm16@    710c85d4     encode.obj
 0002:000145dc       ??_C@_05LEAMGCEB@xmm17@    710c85dc     encode.obj
 0002:000145e4       ??_C@_05DDJEHOIO@xmm18@    710c85e4     encode.obj
 0002:000145ec       ??_C@_05CKIPEPMP@xmm19@    710c85ec     encode.obj
 0002:000145f4       ??_C@_05PJALEKNP@xmm20@    710c85f4     encode.obj
 0002:000145fc       ??_C@_05OABAHLJO@xmm21@    710c85fc     encode.obj
 0002:00014604       ??_C@_05MLDNCIFN@xmm22@    710c8604     encode.obj
 0002:0001460c       ??_C@_05NCCGBJBM@xmm23@    710c860c     encode.obj
 0002:00014614       ??_C@_05JNGHIPNL@xmm24@    710c8614     encode.obj
 0002:0001461c       ??_C@_05IEHMLOJK@xmm25@    710c861c     encode.obj
 0002:00014624       ??_C@_05KPFBONFJ@xmm26@    710c8624     encode.obj
 0002:0001462c       ??_C@_05LGEKNMBI@xmm27@    710c862c     encode.obj
 0002:00014634       ??_C@_05DBNCMANH@xmm28@    710c8634     encode.obj
 0002:0001463c       ??_C@_05CIMJPBJG@xmm29@    710c863c     encode.obj
 0002:00014644       ??_C@_05PIMJCAOI@xmm30@    710c8644     encode.obj
 0002:0001464c       ??_C@_05OBNCBBKJ@xmm31@    710c864c     encode.obj
 0002:00014654       ??_C@_03CLIPNJOO@st0@      710c8654     encode.obj
 0002:00014658       ??_C@_03DCJEOIKP@st1@      710c8658     encode.obj
 0002:0001465c       ??_C@_03BJLJLLGM@st2@      710c865c     encode.obj
 0002:00014660       ??_C@_03KCIKCN@st3@        710c8660     encode.obj
 0002:00014664       ??_C@_03EPODBMOK@st4@      710c8664     encode.obj
 0002:00014668       ??_C@_03FGPICNKL@st5@      710c8668     encode.obj
 0002:0001466c       ??_C@_03HNNFHOGI@st6@      710c866c     encode.obj
 0002:00014670       ??_C@_03GEMOEPCJ@st7@      710c8670     encode.obj
 0002:00014674       ??_C@_02EKLAAFBD@es@       710c8674     encode.obj
 0002:00014678       ??_C@_02EODNHJKB@cs@       710c8678     encode.obj
 0002:0001467c       ??_C@_02FCBLNKNB@ss@       710c867c     encode.obj
 0002:00014680       ??_C@_02ELHCGPCE@ds@       710c8680     encode.obj
 0002:00014684       ??_C@_02EIPGLLEK@fs@       710c8684     encode.obj
 0002:00014688       ??_C@_02EJDENBHN@gs@       710c8688     encode.obj
 0002:0001468c       ??_C@_03OCMMMKHK@dr0@      710c868c     encode.obj
 0002:00014690       ??_C@_03PLNHPLDL@dr1@      710c8690     encode.obj
 0002:00014694       ??_C@_03NAPKKIPI@dr2@      710c8694     encode.obj
 0002:00014698       ??_C@_03MJOBJJLJ@dr3@      710c8698     encode.obj
 0002:0001469c       ??_C@_03IGKAAPHO@dr4@      710c869c     encode.obj
 0002:000146a0       ??_C@_03JPLLDODP@dr5@      710c86a0     encode.obj
 0002:000146a4       ??_C@_03LEJGGNPM@dr6@      710c86a4     encode.obj
 0002:000146a8       ??_C@_03KNINFMLN@dr7@      710c86a8     encode.obj
 0002:000146ac       ??_C@_03CKBFEAHC@dr8@      710c86ac     encode.obj
 0002:000146b0       ??_C@_03DDAOHBDD@dr9@      710c86b0     encode.obj
 0002:000146b4       ??_C@_04GOLGAICM@dr10@     710c86b4     encode.obj
 0002:000146bc       ??_C@_04HHKNDJGN@dr11@     710c86bc     encode.obj
 0002:000146c4       ??_C@_04FMIAGKKO@dr12@     710c86c4     encode.obj
 0002:000146cc       ??_C@_04EFJLFLOP@dr13@     710c86cc     encode.obj
 0002:000146d4       ??_C@_04KNKMNCI@dr14@      710c86d4     encode.obj
 0002:000146dc       ??_C@_04BDMBPMGJ@dr15@     710c86dc     encode.obj
 0002:000146e4       ??_C@_03HPBLPCMD@cr0@      710c86e4     encode.obj
 0002:000146e8       ??_C@_03GGAAMDIC@cr1@      710c86e8     encode.obj
 0002:000146ec       ??_C@_03ENCNJAEB@cr2@      710c86ec     encode.obj
 0002:000146f0       ??_C@_03FEDGKBAA@cr3@      710c86f0     encode.obj
 0002:000146f4       ??_C@_03BLHHDHMH@cr4@      710c86f4     encode.obj
 0002:000146f8       ??_C@_03CGMAGIG@cr5@       710c86f8     encode.obj
 0002:000146fc       ??_C@_03CJEBFFEF@cr6@      710c86fc     encode.obj
 0002:00014700       ??_C@_03DAFKGEAE@cr7@      710c8700     encode.obj
 0002:00014704       ??_C@_03LHMCHIML@cr8@      710c8704     encode.obj
 0002:00014708       ??_C@_03KONJEJIK@cr9@      710c8708     encode.obj
 0002:0001470c       ??_C@_04NMJGNEDM@cr10@     710c870c     encode.obj
 0002:00014714       ??_C@_04MFINOFHN@cr11@     710c8714     encode.obj
 0002:0001471c       ??_C@_04OOKALGLO@cr12@     710c871c     encode.obj
 0002:00014724       ??_C@_04PHLLIHPP@cr13@     710c8724     encode.obj
 0002:0001472c       ??_C@_04LIPKBBDI@cr14@     710c872c     encode.obj
 0002:00014734       ??_C@_04KBOBCAHJ@cr15@     710c8734     encode.obj
 0002:0001473c       ??_C@_09DPMBDOD@?$DMinvalid?$DO@ 710c873c     encode.obj
 0002:00014748       ??_C@_04JLBKMLAC@ymm0@     710c8748     encode.obj
 0002:00014750       ??_C@_04ICABPKED@ymm1@     710c8750     encode.obj
 0002:00014758       ??_C@_04KJCMKJIA@ymm2@     710c8758     encode.obj
 0002:00014760       ??_C@_04LADHJIMB@ymm3@     710c8760     encode.obj
 0002:00014768       ??_C@_04PPHGAOAG@ymm4@     710c8768     encode.obj
 0002:00014770       ??_C@_04OGGNDPEH@ymm5@     710c8770     encode.obj
 0002:00014778       ??_C@_04MNEAGMIE@ymm6@     710c8778     encode.obj
 0002:00014780       ??_C@_04NEFLFNMF@ymm7@     710c8780     encode.obj
 0002:00014788       ??_C@_04FDMDEBAK@ymm8@     710c8788     encode.obj
 0002:00014790       ??_C@_04EKNIHAEL@ymm9@     710c8790     encode.obj
 0002:00014798       ??_C@_05DABBCHCD@ymm10@    710c8798     encode.obj
 0002:000147a0       ??_C@_05CJAKBGGC@ymm11@    710c87a0     encode.obj
 0002:000147a8       ??_C@_05CCHEFKB@ymm12@     710c87a8     encode.obj
 0002:000147b0       ??_C@_05BLDMHEOA@ymm13@    710c87b0     encode.obj
 0002:000147b8       ??_C@_05FEHNOCCH@ymm14@    710c87b8     encode.obj
 0002:000147c0       ??_C@_05ENGGNDGG@ymm15@    710c87c0     encode.obj
 0002:000147c8       ??_C@_05GGELIAKF@ymm16@    710c87c8     encode.obj
 0002:000147d0       ??_C@_05HPFALBOE@ymm17@    710c87d0     encode.obj
 0002:000147d8       ??_C@_05PIMIKNCL@ymm18@    710c87d8     encode.obj
 0002:000147e0       ??_C@_05OBNDJMGK@ymm19@    710c87e0     encode.obj
 0002:000147e8       ??_C@_05DCFHJJHK@ymm20@    710c87e8     encode.obj
 0002:000147f0       ??_C@_05CLEMKIDL@ymm21@    710c87f0     encode.obj
 0002:000147f8       ??_C@_05GBPLPI@ymm22@      710c87f8     encode.obj
 0002:00014800       ??_C@_05BJHKMKLJ@ymm23@    710c8800     encode.obj
 0002:00014808       ??_C@_05FGDLFMHO@ymm24@    710c8808     encode.obj
 0002:00014810       ??_C@_05EPCAGNDP@ymm25@    710c8810     encode.obj
 0002:00014818       ??_C@_05GEANDOPM@ymm26@    710c8818     encode.obj
 0002:00014820       ??_C@_05HNBGAPLN@ymm27@    710c8820     encode.obj
 0002:00014828       ??_C@_05PKIOBDHC@ymm28@    710c8828     encode.obj
 0002:00014830       ??_C@_05ODJFCCDD@ymm29@    710c8830     encode.obj
 0002:00014838       ??_C@_05DDJFPDEN@ymm30@    710c8838     encode.obj
 0002:00014840       ??_C@_05CKIOMCAM@ymm31@    710c8840     encode.obj
 0002:00014848       ??_C@_04NMLKLBNC@zmm0@     710c8848     encode.obj
 0002:00014850       ??_C@_04MFKBIAJD@zmm1@     710c8850     encode.obj
 0002:00014858       ??_C@_04OOIMNDFA@zmm2@     710c8858     encode.obj
 0002:00014860       ??_C@_04PHJHOCBB@zmm3@     710c8860     encode.obj
 0002:00014868       ??_C@_04LINGHENG@zmm4@     710c8868     encode.obj
 0002:00014870       ??_C@_04KBMNEFJH@zmm5@     710c8870     encode.obj
 0002:00014878       ??_C@_04IKOABGFE@zmm6@     710c8878     encode.obj
 0002:00014880       ??_C@_04JDPLCHBF@zmm7@     710c8880     encode.obj
 0002:00014888       ??_C@_04BEGDDLNK@zmm8@     710c8888     encode.obj
 0002:00014890       ??_C@_04NHIAKJL@zmm9@      710c8890     encode.obj
 0002:00014898       ??_C@_05LGIFFFIN@zmm10@    710c8898     encode.obj
 0002:000148a0       ??_C@_05KPJOGEMM@zmm11@    710c88a0     encode.obj
 0002:000148a8       ??_C@_05IELDDHAP@zmm12@    710c88a8     encode.obj
 0002:000148b0       ??_C@_05JNKIAGEO@zmm13@    710c88b0     encode.obj
 0002:000148b8       ??_C@_05NCOJJAIJ@zmm14@    710c88b8     encode.obj
 0002:000148c0       ??_C@_05MLPCKBMI@zmm15@    710c88c0     encode.obj
 0002:000148c8       ??_C@_05OANPPCAL@zmm16@    710c88c8     encode.obj
 0002:000148d0       ??_C@_05PJMEMDEK@zmm17@    710c88d0     encode.obj
 0002:000148d8       ??_C@_05HOFMNPIF@zmm18@    710c88d8     encode.obj
 0002:000148e0       ??_C@_05GHEHOOME@zmm19@    710c88e0     encode.obj
 0002:000148e8       ??_C@_05LEMDOLNE@zmm20@    710c88e8     encode.obj
 0002:000148f0       ??_C@_05KNNINKJF@zmm21@    710c88f0     encode.obj
 0002:000148f8       ??_C@_05IGPFIJFG@zmm22@    710c88f8     encode.obj
 0002:00014900       ??_C@_05JPOOLIBH@zmm23@    710c8900     encode.obj
 0002:00014908       ??_C@_05NAKPCONA@zmm24@    710c8908     encode.obj
 0002:00014910       ??_C@_05MJLEBPJB@zmm25@    710c8910     encode.obj
 0002:00014918       ??_C@_05OCJJEMFC@zmm26@    710c8918     encode.obj
 0002:00014920       ??_C@_05PLICHNBD@zmm27@    710c8920     encode.obj
 0002:00014928       ??_C@_05HMBKGBNM@zmm28@    710c8928     encode.obj
 0002:00014930       ??_C@_05GFABFAJN@zmm29@    710c8930     encode.obj
 0002:00014938       ??_C@_05LFABIBOD@zmm30@    710c8938     encode.obj
 0002:00014940       ??_C@_05KMBKLAKC@zmm31@    710c8940     encode.obj
 0002:00014948       ??_C@_02JLHKDENP@k0@       710c8948     encode.obj
 0002:0001494c       ??_C@_02ICGBAFJO@k1@       710c894c     encode.obj
 0002:00014950       ??_C@_02KJEMFGFN@k2@       710c8950     encode.obj
 0002:00014954       ??_C@_02LAFHGHBM@k3@       710c8954     encode.obj
 0002:00014958       ??_C@_02PPBGPBNL@k4@       710c8958     encode.obj
 0002:0001495c       ??_C@_02OGANMAJK@k5@       710c895c     encode.obj
 0002:00014960       ??_C@_02MNCAJDFJ@k6@       710c8960     encode.obj
 0002:00014964       ??_C@_02NEDLKCBI@k7@       710c8964     encode.obj
 0002:00014968       ??_C@_04JBEOPJPA@bnd0@     710c8968     encode.obj
 0002:00014970       ??_C@_04IIFFMILB@bnd1@     710c8970     encode.obj
 0002:00014978       ??_C@_04KDHIJLHC@bnd2@     710c8978     encode.obj
 0002:00014980       ??_C@_04LKGDKKDD@bnd3@     710c8980     encode.obj
 0002:00014988       ??_C@_01IPJKGB@?$CD@       710c8988     disassemble_shared.obj
 0002:0001498c       ??_C@_01EPMOAMKG@$@        710c898c     disassemble_shared.obj
 0002:00014990       ??_C@_08KJEDNCKC@?$CFs?$CFs?$CFs?$CFs@ 710c8990     disassemble_shared.obj
 0002:0001499c       ??_C@_0L@BEKPIBAE@?$CFs?$CFs?$CF?$CF?$CFs?$CFs@ 710c899c     disassemble_shared.obj
 0002:000149a8       ??_C@_05DPKMBOAB@1byte@    710c89a8     disassemble_shared.obj
 0002:000149b0       ??_C@_05LJDIGMKP@2byte@    710c89b0     disassemble_shared.obj
 0002:000149b8       ??_C@_05HCGELPAK@3byte@    710c89b8     disassemble_shared.obj
 0002:000149c0       ??_C@_05GPGBIPLC@4byte@    710c89c0     disassemble_shared.obj
 0002:000149c8       ??_C@_05CCKJCOLJ@6byte@    710c89c8     disassemble_shared.obj
 0002:000149d0       ??_C@_05BIKDEPMJ@8byte@    710c89d0     disassemble_shared.obj
 0002:000149d8       ??_C@_06NGEKBNJP@10byte@   710c89d8     disassemble_shared.obj
 0002:000149e0       ??_C@_06JLICLMJE@12byte@   710c89e0     disassemble_shared.obj
 0002:000149e8       ??_C@_06ENNLFPIJ@14byte@   710c89e8     disassemble_shared.obj
 0002:000149f0       ??_C@_06IGIHIMCM@15byte@   710c89f0     disassemble_shared.obj
 0002:000149f8       ??_C@_06BDPOIC@16byte@     710c89f8     disassemble_shared.obj
 0002:00014a00       ??_C@_06OHKCAHAC@20byte@   710c8a00     disassemble_shared.obj
 0002:00014a08       ??_C@_06HMDDEFBE@24byte@   710c8a08     disassemble_shared.obj
 0002:00014a10       ??_C@_06LPBIFGP@28byte@    710c8a10     disassemble_shared.obj
 0002:00014a18       ??_C@_06MBNKNLN@32byte@    710c8a18     disassemble_shared.obj
 0002:00014a20       ??_C@_06JHIMOPKL@36byte@   710c8a20     disassemble_shared.obj
 0002:00014a28       ??_C@_06IEHCDCDI@40byte@   710c8a28     disassemble_shared.obj
 0002:00014a30       ??_C@_06BPODHACO@44byte@   710c8a30     disassemble_shared.obj
 0002:00014a38       ??_C@_06GICBLAFF@48byte@   710c8a38     disassemble_shared.obj
 0002:00014a40       ??_C@_06GPMNJIIH@52byte@   710c8a40     disassemble_shared.obj
 0002:00014a48       ??_C@_06PEFMNKJB@56byte@   710c8a48     disassemble_shared.obj
 0002:00014a50       ??_C@_06BDONCDBB@60byte@   710c8a50     disassemble_shared.obj
 0002:00014a58       ??_C@_06IIHMGBAH@64byte@   710c8a58     disassemble_shared.obj
 0002:00014a60       ??_C@_06PPLOKBHM@68byte@   710c8a60     disassemble_shared.obj
 0002:00014a68       ??_C@_06PIFCIJKO@72byte@   710c8a68     disassemble_shared.obj
 0002:00014a70       ??_C@_06GDMDMLLI@76byte@   710c8a70     disassemble_shared.obj
 0002:00014a78       ??_C@_06EDNCFIEM@80byte@   710c8a78     disassemble_shared.obj
 0002:00014a80       ??_C@_06NIEDBKFK@84byte@   710c8a80     disassemble_shared.obj
 0002:00014a88       ??_C@_06KPIBNKCB@88byte@   710c8a88     disassemble_shared.obj
 0002:00014a90       ??_C@_06KIGNPCPD@92byte@   710c8a90     disassemble_shared.obj
 0002:00014a98       ??_C@_06HODEBBOO@94byte@   710c8a98     disassemble_shared.obj
 0002:00014aa0       ??_C@_06DDPMLAOF@96byte@   710c8aa0     disassemble_shared.obj
 0002:00014aa8       ??_C@_07MBBEEFNP@100byte@  710c8aa8     disassemble_shared.obj
 0002:00014ab0       ??_C@_07FKIFAHMJ@104byte@  710c8ab0     disassemble_shared.obj
 0002:00014ab8       ??_C@_07CNEHMHLC@108byte@  710c8ab8     disassemble_shared.obj
 0002:00014ac0       ??_C@_07CKKLOPGA@112byte@  710c8ac0     disassemble_shared.obj
 0002:00014ac8       ??_C@_07LBDKKNHG@116byte@  710c8ac8     disassemble_shared.obj
 0002:00014ad0       ??_C@_07FGILFEPG@120byte@  710c8ad0     disassemble_shared.obj
 0002:00014ad8       ??_C@_07MNBKBGOA@124byte@  710c8ad8     disassemble_shared.obj
 0002:00014ae0       ??_C@_07LKNINGJL@128byte@  710c8ae0     disassemble_shared.obj
 0002:00014ae8       ??_C@_07KOOBOBJK@512byte@  710c8ae8     disassemble_shared.obj
 0002:00014af0       ??_C@_04IHGKJMLH@byte@     710c8af0     disassemble_shared.obj
 0002:00014af8       ??_C@_04EHIOMBPF@word@     710c8af8     disassemble_shared.obj
 0002:00014b00       ??_C@_05KDALNKAH@dword@    710c8b00     disassemble_shared.obj
 0002:00014b08       ??_C@_05OOMDHLAM@fword@    710c8b08     disassemble_shared.obj
 0002:00014b10       ??_C@_05PABAEJCP@qword@    710c8b10     disassemble_shared.obj
 0002:00014b18       ??_C@_05GADJIFNO@tbyte@    710c8b18     disassemble_shared.obj
 0002:00014b20       ??_C@_05MJMMCKME@oword@    710c8b20     disassemble_shared.obj
 0002:00014b28       ??_C@_05BMEDMLEC@yword@    710c8b28     disassemble_shared.obj
 0002:00014b30       ??_C@_08JLLGGCPE@?$CFs?5ptr?5?$FL@ 710c8b30     disassemble_shared.obj
 0002:00014b3c       ??_C@_01OHGJGJJP@?$FL@     710c8b3c     disassemble_shared.obj
 0002:00014b40       ??_C@_01JLIPDDHJ@?3@       710c8b40     disassemble_shared.obj
 0002:00014b44       ??_C@_01MIFGBAGJ@?$CL@     710c8b44     disassemble_shared.obj
 0002:00014b48       ??_C@_03LCLLABOE@?0?5?$CD@ 710c8b48     disassemble_shared.obj
 0002:00014b4c       ??_C@_06BEICJAKK@0x?$CF02x@ 710c8b4c     disassemble_shared.obj
 0002:00014b54       ??_C@_06BAAPOMBI@0x?$CF04x@ 710c8b54     disassemble_shared.obj
 0002:00014b5c       ??_C@_06BJBFBFHM@0x?$CF08x@ 710c8b5c     disassemble_shared.obj
 0002:00014b64       ??_C@_01ODHLEDKK@?$CI@     710c8b64     disassemble_shared.obj
 0002:00014b68       ??_C@_01IHBHIGKO@?0@       710c8b68     disassemble_shared.obj
 0002:00014b6c       ??_C@_01PKGAHCOL@?$CJ@     710c8b6c     disassemble_shared.obj
 0002:00014b70       ??_C@_01LBDDMOBJ@?$FN@     710c8b70     disassemble_shared.obj
 0002:00014b74       ??_C@_0BM@PECNOFJG@$?$CFp?5?$DMenter_dynamorio_hook?$DO?5@ 710c8b74     disassemble_shared.obj
 0002:00014b90       ??_C@_0BL@NCDAGHPL@$?$CFp?5?$DMexit_dynamorio_hook?$DO?5@ 710c8b90     disassemble_shared.obj
 0002:00014bac       ??_C@_0P@MMONCGEF@shared_syscall@ 710c8bac     disassemble_shared.obj
 0002:00014bbc       ??_C@_0BI@NBDLGBHL@unlinked_shared_syscall@ 710c8bbc     disassemble_shared.obj
 0002:00014bd4       ??_C@_0M@OEOCBILN@$?$CFp?5?$DM?$CFs_?$CFs?$DO@ 710c8bd4     disassemble_shared.obj
 0002:00014be0       ??_C@_0O@BEBHPGDB@fcache_return@ 710c8be0     disassemble_shared.obj
 0002:00014bf0       ??_C@_0BF@CEMHKKCE@fcache_return_coarse@ 710c8bf0     disassemble_shared.obj
 0002:00014c08       ??_C@_0BJ@PAPJPNGH@trace_head_return_coarse@ 710c8c08     disassemble_shared.obj
 0002:00014c24       ??_C@_09EJCKNPCL@$?$CFp?5?$DM?$CFs?$DO?5@ 710c8c24     disassemble_shared.obj
 0002:00014c30       ??_C@_0BD@PMLJGDHK@$?$CFp?5?$DMfragment?5?$CFp?$DO?5@ 710c8c30     disassemble_shared.obj
 0002:00014c44       ??_C@_0BE@MEONOALC@$?$CFp?5?$DMexit?5stub?5?$CFd?$DO?5@ 710c8c44     disassemble_shared.obj
 0002:00014c58       ??_C@_0BM@IALOECPJ@$?$CFp?5?$DMentrance?5stub?5for?5?$CFp?$DO?5@ 710c8c58     disassemble_shared.obj
 0002:00014c74       ??_C@_0BA@LCMEPDAA@NULL?5DCONTEXT?$CB?5@ 710c8c74     disassemble_shared.obj
 0002:00014c84       ??_C@_06DNBMMMHL@?$CFs?$CFs?$CFd@ 710c8c84     disassemble_shared.obj
 0002:00014c8c       ??_C@_0L@OCGFLCKJ@?$CFs?$CFs0x?$CF02x@ 710c8c8c     disassemble_shared.obj
 0002:00014c98       ??_C@_0L@OGOIMOBL@?$CFs?$CFs0x?$CF04x@ 710c8c98     disassemble_shared.obj
 0002:00014ca4       ??_C@_0L@OPPCDHHP@?$CFs?$CFs0x?$CF08x@ 710c8ca4     disassemble_shared.obj
 0002:00014cb0       ??_C@_0P@OAKKDCDB@?$CFs?$CFs0x?$CF016I64x@ 710c8cb0     disassemble_shared.obj
 0002:00014cc0       ??_C@_0M@KCAANBO@?$CFs?$CFs?$CFu?4?$CF?46u@ 710c8cc0     disassemble_shared.obj
 0002:00014ccc       ??_C@_04FIMPFKBJ@?$CFs?$CFp@ 710c8ccc     disassemble_shared.obj
 0002:00014cd4       ??_C@_09POGOLGJB@0x?$CF04x?3?$CFp@ 710c8cd4     disassemble_shared.obj
 0002:00014ce0       ??_C@_03FEBGIFCD@?$EA?$CFp@ 710c8ce0     disassemble_shared.obj
 0002:00014ce4       ??_C@_0L@MOEGFPPI@0x?$CF04x?3?$EA?$CFp@ 710c8ce4     disassemble_shared.obj
 0002:00014cf0       ??_C@_06MAAPCDCF@?$EA?$CFp?$CL?$CFd@ 710c8cf0     disassemble_shared.obj
 0002:00014cf8       ??_C@_0BI@GEFINPJD@UNKNOWN?5OPERAND?5TYPE?5?$CFd@ 710c8cf8     disassemble_shared.obj
 0002:00014d10       ??_C@_04LIFAFMCE@?$FL?$CFs?$FN@ 710c8d10     disassemble_shared.obj
 0002:00014d18       ??_C@_05NOMJGHJA@?5?5?$CFp?5@ 710c8d18     disassemble_shared.obj
 0002:00014d20       ??_C@_04FKFEEGKO@?$CF13s@  710c8d20     disassemble_shared.obj
 0002:00014d28       ??_C@_09OJNEAJGG@?$DMINVALID?$DO@ 710c8d28     disassemble_shared.obj
 0002:00014d34       ??_C@_02PEDIMADA@?5?$HL@   710c8d34     disassemble_shared.obj
 0002:00014d38       ??_C@_01CELHOKLL@?$HN@     710c8d38     disassemble_shared.obj
 0002:00014d3c       ??_C@_0BA@JOLHABBN@?$DMlabel?5note?$DN?$CFp?$DO@ 710c8d3c     disassemble_shared.obj
 0002:00014d4c       ??_C@_05HEMIBJDB@?$DMRAW?$DO@ 710c8d4c     disassemble_shared.obj
 0002:00014d54       ??_C@_0O@NMPKBFIA@?$DMraw?5?$CFp?9?$CFp?5?$DN?$DN@ 710c8d54     disassemble_shared.obj
 0002:00014d64       ??_C@_05HAJCMBLP@?5?$CF02x@ 710c8d64     disassemble_shared.obj
 0002:00014d6c       ??_C@_04IBCFJNCN@?5?4?4?4@ 710c8d6c     disassemble_shared.obj
 0002:00014d74       ??_C@_01PPODPGHN@?$DO@     710c8d74     disassemble_shared.obj
 0002:00014d78       ??_C@_01HCONENDN@?$HL@     710c8d78     disassemble_shared.obj
 0002:00014d7c       ??_C@_03PNJEBBD@?5?9?$DO@  710c8d7c     disassemble_shared.obj
 0002:00014d80       ??_C@_04OMFAIDPG@call@     710c8d80     disassemble_shared.obj
 0002:00014d88       ??_C@_07CJPOFOKO@jmp?1jcc@ 710c8d88     disassemble_shared.obj
 0002:00014d90       ??_C@_0BM@IFFBFDNH@fall?9through?1speculated?1IAT@ 710c8d90     disassemble_shared.obj
 0002:00014dac       ??_C@_09EEKGDCPH@?$DMunknown?$DO@ 710c8dac     disassemble_shared.obj
 0002:00014db8       ??_C@_0BA@IDNJBCPO@?0?5cannot?5delete@ 710c8db8     disassemble_shared.obj
 0002:00014dc8       ??_C@_0BB@BGNFGEBP@?0?5must?5end?5trace@ 710c8dc8     disassemble_shared.obj
 0002:00014ddc       ??_C@_0BC@BDIEABHH@?0?5cannot?5be?5trace@ 710c8ddc     disassemble_shared.obj
 0002:00014df0       ??_C@_07HMCBDDIL@trace?0?5@ 710c8df0     disassemble_shared.obj
 0002:00014df8       ??_C@_0M@JCENCNDN@tracehead?0?5@ 710c8df8     disassemble_shared.obj
 0002:00014e04       ??_C@_08PJLIEHJL@shared?0?5@ 710c8e04     disassemble_shared.obj
 0002:00014e10       ??_C@_0P@IEKINMO@private?5temp?0?5@ 710c8e10     disassemble_shared.obj
 0002:00014e20       ??_C@_09BDKEKBCE@private?0?5@ 710c8e20     disassemble_shared.obj
 0002:00014e2c       ??_C@_08IKBAJLE@coarse?0?5@ 710c8e2c     disassemble_shared.obj
 0002:00014e38       ??_C@_0DD@PPJJGFMA@Fragment?5tag?5?$CFp?0?5flags?50x?$CFx?0?5?$CFs@ 710c8e38     disassemble_shared.obj
 0002:00014e6c       ??_C@_0DD@DJLNGJOI@?5?5?9?9?9?9?9?9?9?9?5indirect?5branch?5targ@ 710c8e6c     disassemble_shared.obj
 0002:00014ea0       ??_C@_0CD@NHHMOCM@?5?5?9?9?9?9?9?9?9?9?5prefix?5entry?3?5?9?9?9?9?9?9@ 710c8ea0     disassemble_shared.obj
 0002:00014ec4       ??_C@_0CD@HPPLEOBM@?5?5?9?9?9?9?9?9?9?9?5normal?5entry?3?5?9?9?9?9?9?9@ 710c8ec4     disassemble_shared.obj
 0002:00014ee8       ??_C@_0DJ@ILAICPDA@?5?5?9?9?9?9?9?9?9?9?5exit?5stub?5?$CFd?3?5?9?9?9?9?9?9@ 710c8ee8     disassemble_shared.obj
 0002:00014f24       ??_C@_0BP@LNAKNBLI@?5?5?$DMno?5final?5jmp?5since?5elided?$DO?6@ 710c8f24     disassemble_shared.obj
 0002:00014f44       ??_C@_0CF@HPIEBBAE@?5?5?$DMno?5stub?5since?5linked?5and?5fro@ 710c8f44     disassemble_shared.obj
 0002:00014f6c       ??_C@_0CC@GBIHKLLI@?5?5?$DMno?5stub?5created?5since?5linked@ 710c8f6c     disassemble_shared.obj
 0002:00014f90       ??_C@_0CI@IJMKLHPO@?5?5?$DMno?5stub?5needed?3?5?9no_indirect@ 710c8f90     disassemble_shared.obj
 0002:00014fb8       ??_C@_0DB@JCBMBEDG@?5?5?9?9?9?9?9?9?9?9?5original?5code?5?$CIfrom?5@ 710c8fb8     disassemble_shared.obj
 0002:00014fec       ??_C@_08KNEMIHEL@TAG?5?5?$CFp?6@ 710c8fec     disassemble_shared.obj
 0002:00014ff8       ??_C@_0BB@PFLAIEEH@?5?$CL?$CF?94d?5?$CFc?$CFd?5?$EA?$CFp?5@ 710c8ff8     disassemble_shared.obj
 0002:0001500c       ??_C@_04EJCDIDHH@?$CF22s@  710c900c     disassemble_shared.obj
 0002:00015014       ??_C@_0BB@JJJBOLIL@?5?$CL?$CF?94d?5?$CFc?$CFd?5?$CF12s@ 710c9014     disassemble_shared.obj
 0002:00015028       ??_C@_0BD@PDNPLLFH@?5?$DM?4?4?4?$CFd?5bytes?4?4?4?$DO?6@ 710c9028     disassemble_shared.obj
 0002:0001503c       ??_C@_0BI@LPHLMDOF@?5?5?5?5?5?5?5?5?5?5?5?5?5?5?5?5?5?5?5?5?5?5?5@ 710c903c     disassemble_shared.obj
 0002:00015054       ??_C@_08JDGKEECO@END?5?$CFp?6?6@ 710c9054     disassemble_shared.obj
 0002:00015060       ??_C@_0BE@NBBCGPAE@mod?$DN?$CC?$CFp?$CC?5offs?$DN?$CC?$CFp?$CC?5@ 710c9060     disassemble_shared.obj
 0002:00015074       ??_C@_0L@GDLEOLB@?5?$DM?$CFs?$CL0x?$CFx?$DO@ 710c9074     disassemble_shared.obj
 0002:00015080       ??_C@_0BG@FNCMIALG@?7?$DMcall?9stack?5tid?$DN?$CFu?$DO?6@ 710c9080     disassemble_shared.obj
 0002:00015098       ??_C@_0BH@FKAFBLAE@Thread?5?$CFu?5call?5stack?3?6@ 710c9098     disassemble_shared.obj
 0002:000150b0       ??_C@_0BN@KFMEEGMA@?7?$DMcurrent_pc?$DN?$CC?$CFp?$CC?5name?$DN?$CC?$CFs?$CC?5@ 710c90b0     disassemble_shared.obj
 0002:000150d0       ??_C@_07IGCLKCOE@?7?$CFp?5?$CFs?5@ 710c90d0     disassemble_shared.obj
 0002:000150d8       ??_C@_03PCPALPJL@?1?$DO?6@ 710c90d8     disassemble_shared.obj
 0002:000150dc       ??_C@_02NOKNKGCL@?7?7@     710c90dc     disassemble_shared.obj
 0002:000150e0       ??_C@_01GPOEFGEJ@?7@       710c90e0     disassemble_shared.obj
 0002:000150e4       ??_C@_0BN@HEBNMPBI@?$DMframe?5ptr?$DN?$CC?$CFp?$CC?5parent?$DN?$CC?$CFp?$CC?5@ 710c90e4     disassemble_shared.obj
 0002:00015104       ??_C@_0BM@MNHNKGMI@frame?5ptr?5?$CFp?5?$DN?$DO?5parent?5?$CFp?0?5@ 710c9104     disassemble_shared.obj
 0002:00015120       ??_C@_0BE@BHJLDOEK@ret?$DN?$CC?$CFp?$CC?5name?$DN?$CC?$CFs?$CC?5@ 710c9120     disassemble_shared.obj
 0002:00015134       ??_C@_06GBCKLJNI@?$CFp?5?$CFs?5@ 710c9134     disassemble_shared.obj
 0002:0001513c       ??_C@_0BA@CBAHIOFG@?7?$DM?1call?9stack?$DO?6@ 710c913c     disassemble_shared.obj
 0002:0001514c       ??_C@_06KMLNPJJL@?4?4?4?$DP?$DP?5@ 710c914c     disassemble.obj
 0002:00015154       ??_C@_03NDEAONJP@?5?5?5@   710c9154     disassemble.obj
 0002:00015158       ??_C@_03COCDEFBB@?$CK?$CFd@ 710c9158     disassemble.obj
 0002:0001515c       ??_C@_03LEIBKMN@?0?$CFd@   710c915c     disassemble.obj
 0002:00015160       ??_C@_02KEGNLNML@?0?5@     710c9160     disassemble.obj
 0002:00015164       ??_C@_03OFBABGAB@jmp@      710c9164     disassemble.obj
 0002:00015168       ??_C@_04NGGILANB@retf@     710c9168     disassemble.obj
 0002:00015170       ??_C@_01OJONOECF@b@        710c9170     disassemble.obj
 0002:00015174       ??_C@_01NOFIACDB@w@        710c9174     disassemble.obj
 0002:00015178       ??_C@_01LPLHEDKD@d@        710c9178     disassemble.obj
 0002:0001517c       ??_C@_01IIACKFLH@q@        710c917c     disassemble.obj
 0002:00015180       ??_C@_01HHGOMJKL@l@        710c9180     disassemble.obj
 0002:00015184       ??_C@_09HDOLHHPF@xacquire?5@ 710c9184     disassemble.obj
 0002:00015190       ??_C@_09KNNKNDPH@xrelease?5@ 710c9190     disassemble.obj
 0002:0001519c       ??_C@_05NCPMCJGP@lock?5@   710c919c     disassemble.obj
 0002:000151a4       ??_C@_07CKKJPKOI@data16?5@ 710c91a4     disassemble.obj
 0002:000151ac       ??_C@_07BEOHDEOC@addr16?5@ 710c91ac     disassemble.obj
 0002:000151b4       ??_C@_0BC@NDGGBPHG@?$CIevex_Wb?5ext?5215?$CJ@ 710c91b4     decode_table.obj
 0002:000151c8       ??_C@_0BC@EJLIIPBD@?$CIevex_Wb?5ext?5261?$CJ@ 710c91c8     decode_table.obj
 0002:000151dc       ??_C@_09EDFOHFEF@punpcklbw@ 710c91dc     decode_table.obj
 0002:000151e8       ??_C@_0L@NNMEDEGP@vpunpcklbw@ 710c91e8     decode_table.obj
 0002:000151f4       ??_C@_09DIFMFFEM@punpcklwd@ 710c91f4     decode_table.obj
 0002:00015200       ??_C@_0L@KGMGBEGG@vpunpcklwd@ 710c9200     decode_table.obj
 0002:0001520c       ??_C@_09BBIJKOHB@punpckldq@ 710c920c     decode_table.obj
 0002:00015218       ??_C@_0L@IPBDOPFL@vpunpckldq@ 710c9218     decode_table.obj
 0002:00015224       ??_C@_0BC@HJGPNHPN@?$CIevex_Wb?5ext?5235?$CJ@ 710c9224     decode_table.obj
 0002:00015238       ??_C@_08OMPEMDNN@packsswb@ 710c9238     decode_table.obj
 0002:00015244       ??_C@_09BCCAEKNK@vpacksswb@ 710c9244     decode_table.obj
 0002:00015250       ??_C@_07GDKJBNCG@pcmpgtb@  710c9250     decode_table.obj
 0002:00015258       ??_C@_08GDDLGMLO@vpcmpgtb@ 710c9258     decode_table.obj
 0002:00015264       ??_C@_07FEBMPLDC@pcmpgtw@  710c9264     decode_table.obj
 0002:0001526c       ??_C@_08FEIOIKKK@vpcmpgtw@ 710c926c     decode_table.obj
 0002:00015278       ??_C@_07DFPDLKKA@pcmpgtd@  710c9278     decode_table.obj
 0002:00015280       ??_C@_08DFGBMLDI@vpcmpgtd@ 710c9280     decode_table.obj
 0002:0001528c       ??_C@_0BC@HLCJGJKE@?$CIevex_Wb?5ext?5236?$CJ@ 710c928c     decode_table.obj
 0002:000152a0       ??_C@_08GDLEDGHN@packuswb@ 710c92a0     decode_table.obj
 0002:000152ac       ??_C@_09JNGALPHK@vpackuswb@ 710c92ac     decode_table.obj
 0002:000152b8       ??_C@_09MMDMOCBC@punpckhbw@ 710c92b8     decode_table.obj
 0002:000152c4       ??_C@_0L@FCKGKDDI@vpunpckhbw@ 710c92c4     decode_table.obj
 0002:000152d0       ??_C@_09LHDOMCBL@punpckhwd@ 710c92d0     decode_table.obj
 0002:000152dc       ??_C@_0L@CJKEIDDB@vpunpckhwd@ 710c92dc     decode_table.obj
 0002:000152e8       ??_C@_09JOOLDJCG@punpckhdq@ 710c92e8     decode_table.obj
 0002:000152f4       ??_C@_0L@HBHIAM@vpunpckhdq@ 710c92f4     decode_table.obj
 0002:00015300       ??_C@_0BC@HKOLADJD@?$CIevex_Wb?5ext?5237?$CJ@ 710c9300     decode_table.obj
 0002:00015314       ??_C@_08MFCBDIOA@packssdw@ 710c9314     decode_table.obj
 0002:00015320       ??_C@_09DLPFLBOH@vpackssdw@ 710c9320     decode_table.obj
 0002:0001532c       ??_C@_0BC@HBLHEEKO@?$CIevex_Wb?5ext?5238?$CJ@ 710c932c     decode_table.obj
 0002:00015340       ??_C@_0L@GMBNEGIF@punpcklqdq@ 710c9340     decode_table.obj
 0002:0001534c       ??_C@_0M@LHDIBFBC@vpunpcklqdq@ 710c934c     decode_table.obj
 0002:00015358       ??_C@_0BC@NBCAKBCP@?$CIevex_Wb?5ext?5216?$CJ@ 710c9358     decode_table.obj
 0002:0001536c       ??_C@_0L@JJJNOAEF@punpckhqdq@ 710c936c     decode_table.obj
 0002:00015378       ??_C@_0M@ECLILDNC@vpunpckhqdq@ 710c9378     decode_table.obj
 0002:00015384       ??_C@_0BC@NKHMOGBC@?$CIevex_Wb?5ext?5219?$CJ@ 710c9384     decode_table.obj
 0002:00015398       ??_C@_04GKNHOGAK@movd@     710c9398     decode_table.obj
 0002:000153a0       ??_C@_0BA@JPOOODPF@?$CIvex_W?5ext?5108?$CJ@ 710c93a0     decode_table.obj
 0002:000153b0       ??_C@_0BC@DMIJBDHE@?$CIevex_Wb?5ext?5136?$CJ@ 710c93b0     decode_table.obj
 0002:000153c4       ??_C@_06NKMKLLEE@pshufw@   710c93c4     decode_table.obj
 0002:000153cc       ??_C@_07GGPEEEO@pshufhw@   710c93cc     decode_table.obj
 0002:000153d4       ??_C@_06LLCFPKNG@pshufd@   710c93d4     decode_table.obj
 0002:000153dc       ??_C@_07BGGOMJC@pshuflw@   710c93dc     decode_table.obj
 0002:000153e4       ??_C@_08GPNDFNG@vpshufhw@  710c93e4     decode_table.obj
 0002:000153f0       ??_C@_07CJFEGCNG@vpshufd@  710c93f0     decode_table.obj
 0002:000153f8       ??_C@_08BPEJNAK@vpshuflw@  710c93f8     decode_table.obj
 0002:00015404       ??_C@_0BC@HAHFCOJJ@?$CIevex_Wb?5ext?5239?$CJ@ 710c9404     decode_table.obj
 0002:00015418       ??_C@_07MPGLBHEG@pcmpeqb@  710c9418     decode_table.obj
 0002:00015420       ??_C@_08MPPJGGNO@vpcmpeqb@ 710c9420     decode_table.obj
 0002:0001542c       ??_C@_07PINOPBFC@pcmpeqw@  710c942c     decode_table.obj
 0002:00015434       ??_C@_08PIEMIAMK@vpcmpeqw@ 710c9434     decode_table.obj
 0002:00015440       ??_C@_07JJDBLAMA@pcmpeqd@  710c9440     decode_table.obj
 0002:00015448       ??_C@_08JJKDMBFI@vpcmpeqd@ 710c9448     decode_table.obj
 0002:00015454       ??_C@_0BC@OCHDCNKP@?$CIevex_Wb?5ext?5240?$CJ@ 710c9454     decode_table.obj
 0002:00015468       ??_C@_04FNGCAABO@movq@     710c9468     decode_table.obj
 0002:00015470       ??_C@_05PHPJLIHM@vmovq@    710c9470     decode_table.obj
 0002:00015478       ??_C@_0BA@JOCMIJMC@?$CIvex_W?5ext?5109?$CJ@ 710c9478     decode_table.obj
 0002:00015488       ??_C@_0BC@DNELHJED@?$CIevex_Wb?5ext?5137?$CJ@ 710c9488     decode_table.obj
 0002:0001549c       ??_C@_05JKCDHCKN@cmpps@    710c949c     decode_table.obj
 0002:000154a4       ??_C@_05JIGFMMPE@cmpss@    710c94a4     decode_table.obj
 0002:000154ac       ??_C@_05JPKAPGDL@cmppd@    710c94ac     decode_table.obj
 0002:000154b4       ??_C@_05JNOGEIGC@cmpsd@    710c94b4     decode_table.obj
 0002:000154bc       ??_C@_06DJDFOJGB@vcmpps@   710c94bc     decode_table.obj
 0002:000154c4       ??_C@_06DLHDFHDI@vcmpss@   710c94c4     decode_table.obj
 0002:000154cc       ??_C@_06DMLGGNPH@vcmppd@   710c94cc     decode_table.obj
 0002:000154d4       ??_C@_06DOPANDKO@vcmpsd@   710c94d4     decode_table.obj
 0002:000154dc       ??_C@_0BC@MABBNKKP@?$CIevex_Wb?5ext?5224?$CJ@ 710c94dc     decode_table.obj
 0002:000154f0       ??_C@_0BC@ELPODBEK@?$CIevex_Wb?5ext?5262?$CJ@ 710c94f0     decode_table.obj
 0002:00015504       ??_C@_06MJIDDLGJ@pinsrw@   710c9504     decode_table.obj
 0002:0001550c       ??_C@_07FLPCKDGJ@vpinsrw@  710c950c     decode_table.obj
 0002:00015514       ??_C@_06MMDGKBIJ@pextrw@   710c9514     decode_table.obj
 0002:0001551c       ??_C@_07FOEHDJIJ@vpextrw@  710c951c     decode_table.obj
 0002:00015524       ??_C@_06CECIOCAF@shufps@   710c9524     decode_table.obj
 0002:0001552c       ??_C@_06CBKLGGJD@shufpd@   710c952c     decode_table.obj
 0002:00015534       ??_C@_07LGFJHKAF@vshufps@  710c9534     decode_table.obj
 0002:0001553c       ??_C@_07LDNKPOJD@vshufpd@  710c953c     decode_table.obj
 0002:00015544       ??_C@_0BC@MGNKBIEE@?$CIevex_Wb?5ext?5221?$CJ@ 710c9544     decode_table.obj
 0002:00015558       ??_C@_05BLOIHMOA@psrlw@    710c9558     decode_table.obj
 0002:00015560       ??_C@_06LIPOOHCM@vpsrlw@   710c9560     decode_table.obj
 0002:00015568       ??_C@_05HKAHDNHC@psrld@    710c9568     decode_table.obj
 0002:00015570       ??_C@_06NJBBKGLO@vpsrld@   710c9570     decode_table.obj
 0002:00015578       ??_C@_0BC@ICPOLGPK@?$CIevex_Wb?5ext?5123?$CJ@ 710c9578     decode_table.obj
 0002:0001558c       ??_C@_05ENLCNLGG@psrlq@    710c958c     decode_table.obj
 0002:00015594       ??_C@_06OOKEEAKK@vpsrlq@   710c9594     decode_table.obj
 0002:0001559c       ??_C@_0BC@IGHDMKEI@?$CIevex_Wb?5ext?5125?$CJ@ 710c959c     decode_table.obj
 0002:000155b0       ??_C@_05CMPDEGHP@paddq@    710c95b0     decode_table.obj
 0002:000155b8       ??_C@_06IPOFNNLD@vpaddq@   710c95b8     decode_table.obj
 0002:000155c0       ??_C@_0BC@MBNDLAJI@?$CIevex_Wb?5ext?5225?$CJ@ 710c95c0     decode_table.obj
 0002:000155d4       ??_C@_06FLOABGFP@pmullw@   710c95d4     decode_table.obj
 0002:000155dc       ??_C@_07MJJBIOFP@vpmullw@  710c95dc     decode_table.obj
 0002:000155e4       ??_C@_07JGNMJFDC@movq2dq@  710c95e4     decode_table.obj
 0002:000155ec       ??_C@_07NPEMCIBB@movdq2q@  710c95ec     decode_table.obj
 0002:000155f4       ??_C@_08JFPNOFE@pmovmskb@  710c95f4     decode_table.obj
 0002:00015600       ??_C@_09PHILFHFD@vpmovmskb@ 710c9600     decode_table.obj
 0002:0001560c       ??_C@_07OINEMGN@psubusb@   710c960c     decode_table.obj
 0002:00015614       ??_C@_08OBPDNPF@vpsubusb@  710c9614     decode_table.obj
 0002:00015620       ??_C@_07DJDIKKHJ@psubusw@  710c9620     decode_table.obj
 0002:00015628       ??_C@_08DJKKNLOB@vpsubusw@ 710c9628     decode_table.obj
 0002:00015634       ??_C@_06HALLNKLM@pminub@   710c9634     decode_table.obj
 0002:0001563c       ??_C@_07OCMKECLM@vpminub@  710c963c     decode_table.obj
 0002:00015644       ??_C@_04ENDAMC@pand@       710c9644     decode_table.obj
 0002:0001564c       ??_C@_05KKNGIIKA@vpand@    710c964c     decode_table.obj
 0002:00015654       ??_C@_0BB@DBEFBHIK@?$CIevex_Wb?5ext?541?$CJ@ 710c9654     decode_table.obj
 0002:00015668       ??_C@_07LJAGOFBE@paddusb@  710c9668     decode_table.obj
 0002:00015670       ??_C@_08LJJEJEIM@vpaddusb@ 710c9670     decode_table.obj
 0002:0001567c       ??_C@_07IOLDADAA@paddusw@  710c967c     decode_table.obj
 0002:00015684       ??_C@_08IOCBHCJI@vpaddusw@ 710c9684     decode_table.obj
 0002:00015690       ??_C@_06DFLJJJDO@pmaxub@   710c9690     decode_table.obj
 0002:00015698       ??_C@_07KHMIABDO@vpmaxub@  710c9698     decode_table.obj
 0002:000156a0       ??_C@_05IOBEKIIF@pandn@    710c96a0     decode_table.obj
 0002:000156a8       ??_C@_06CNACDDEJ@vpandn@   710c96a8     decode_table.obj
 0002:000156b0       ??_C@_0BB@DDADKJND@?$CIevex_Wb?5ext?542?$CJ@ 710c96b0     decode_table.obj
 0002:000156c4       ??_C@_05LFEKCGKA@pavgb@    710c96c4     decode_table.obj
 0002:000156cc       ??_C@_06BGFMLNGM@vpavgb@   710c96cc     decode_table.obj
 0002:000156d4       ??_C@_05BDDAOPLD@psraw@    710c96d4     decode_table.obj
 0002:000156dc       ??_C@_06LACGHEHP@vpsraw@   710c96dc     decode_table.obj
 0002:000156e4       ??_C@_05HCNPKOCB@psrad@    710c96e4     decode_table.obj
 0002:000156ec       ??_C@_06NBMJDFON@vpsrad@   710c96ec     decode_table.obj
 0002:000156f4       ??_C@_0BC@IBHKGCJE@?$CIevex_Wb?5ext?5121?$CJ@ 710c96f4     decode_table.obj
 0002:00015708       ??_C@_05ICPPMALE@pavgw@    710c9708     decode_table.obj
 0002:00015710       ??_C@_06CBOJFLHI@vpavgw@   710c9710     decode_table.obj
 0002:00015718       ??_C@_07BHBHAAHL@pmulhuw@  710c9718     decode_table.obj
 0002:00015720       ??_C@_08BHIFHBOD@vpmulhuw@ 710c9720     decode_table.obj
 0002:0001572c       ??_C@_06FMOJLOID@pmulhw@   710c972c     decode_table.obj
 0002:00015734       ??_C@_07MOJICGID@vpmulhw@  710c9734     decode_table.obj
 0002:0001573c       ??_C@_08FGJFEIPF@cvtdq2pd@ 710c973c     decode_table.obj
 0002:00015748       ??_C@_09NBGJDONK@cvttpd2dq@ 710c9748     decode_table.obj
 0002:00015754       ??_C@_08EKEIPNDC@cvtpd2dq@ 710c9754     decode_table.obj
 0002:00015760       ??_C@_09KIEBMBPC@vcvtdq2pd@ 710c9760     decode_table.obj
 0002:0001576c       ??_C@_0L@EPPDHPPA@vcvttpd2dq@ 710c976c     decode_table.obj
 0002:00015778       ??_C@_09LEJMHEDF@vcvtpd2dq@ 710c9778     decode_table.obj
 0002:00015784       ??_C@_0BB@INHEAMFN@?$CIevex_Wb?5ext?557?$CJ@ 710c9784     decode_table.obj
 0002:00015798       ??_C@_0BC@MEJMKGBN@?$CIevex_Wb?5ext?5222?$CJ@ 710c9798     decode_table.obj
 0002:000157ac       ??_C@_0BC@MFFOMMCK@?$CIevex_Wb?5ext?5223?$CJ@ 710c97ac     decode_table.obj
 0002:000157c0       ??_C@_06LJOHKNEP@movntq@   710c97c0     decode_table.obj
 0002:000157c8       ??_C@_07MKBDJCIA@movntdq@  710c97c8     decode_table.obj
 0002:000157d0       ??_C@_08MKIBODBI@vmovntdq@ 710c97d0     decode_table.obj
 0002:000157dc       ??_C@_06KCCMAANO@psubsb@   710c97dc     decode_table.obj
 0002:000157e4       ??_C@_07DAFNJINO@vpsubsb@  710c97e4     decode_table.obj
 0002:000157ec       ??_C@_06JFJJOGMK@psubsw@   710c97ec     decode_table.obj
 0002:000157f4       ??_C@_07HOIHOMK@vpsubsw@   710c97f4     decode_table.obj
 0002:000157fc       ??_C@_06EDIDEABK@pminsw@   710c97fc     decode_table.obj
 0002:00015804       ??_C@_07NBPCNIBK@vpminsw@  710c9804     decode_table.obj
 0002:0001580c       ??_C@_03OLAGBHBG@por@      710c980c     decode_table.obj
 0002:00015810       ??_C@_04HKPCCKHI@vpor@     710c9810     decode_table.obj
 0002:00015818       ??_C@_0BB@DCMBMDOE@?$CIevex_Wb?5ext?543?$CJ@ 710c9818     decode_table.obj
 0002:0001582c       ??_C@_06JENJECKA@paddsb@   710c982c     decode_table.obj
 0002:00015834       ??_C@_07GKINKKA@vpaddsb@   710c9834     decode_table.obj
 0002:0001583c       ??_C@_06KDGMKELE@paddsw@   710c983c     decode_table.obj
 0002:00015844       ??_C@_07DBBNDMLE@vpaddsw@  710c9844     decode_table.obj
 0002:0001584c       ??_C@_06GIBADJI@pmaxsw@    710c984c     decode_table.obj
 0002:00015854       ??_C@_07JEPAJLJI@vpmaxsw@  710c9854     decode_table.obj
 0002:0001585c       ??_C@_04DAAGPHDH@pxor@     710c985c     decode_table.obj
 0002:00015864       ??_C@_05JKJNEPFF@vpxor@    710c9864     decode_table.obj
 0002:0001586c       ??_C@_0BB@DHIONFGB@?$CIevex_Wb?5ext?544?$CJ@ 710c986c     decode_table.obj
 0002:00015880       ??_C@_05KLCOFMEM@psllw@    710c9880     decode_table.obj
 0002:00015888       ??_C@_06IDIMHIA@vpsllw@    710c9888     decode_table.obj
 0002:00015890       ??_C@_05MKMBBNNO@pslld@    710c9890     decode_table.obj
 0002:00015898       ??_C@_06GJNHIGBC@vpslld@   710c9898     decode_table.obj
 0002:000158a0       ??_C@_0BC@OADFJDPG@?$CIevex_Wb?5ext?5243?$CJ@ 710c98a0     decode_table.obj
 0002:000158b4       ??_C@_05PNHEPLMK@psllq@    710c98b4     decode_table.obj
 0002:000158bc       ??_C@_06FOGCGAAG@vpsllq@   710c98bc     decode_table.obj
 0002:000158c4       ??_C@_0BC@MJALCDML@?$CIevex_Wb?5ext?5228?$CJ@ 710c98c4     decode_table.obj
 0002:000158d8       ??_C@_07PONKOBPI@pmuludq@  710c98d8     decode_table.obj
 0002:000158e0       ??_C@_08POEIJAGA@vpmuludq@ 710c98e0     decode_table.obj
 0002:000158ec       ??_C@_0BC@NAOCMLBI@?$CIevex_Wb?5ext?5217?$CJ@ 710c98ec     decode_table.obj
 0002:00015900       ??_C@_07JHJNCBHD@pmaddwd@  710c9900     decode_table.obj
 0002:00015908       ??_C@_08JHAPFAOL@vpmaddwd@ 710c9908     decode_table.obj
 0002:00015914       ??_C@_06DIHGEBBD@psadbw@   710c9914     decode_table.obj
 0002:0001591c       ??_C@_07KKAHNJBD@vpsadbw@  710c991c     decode_table.obj
 0002:00015924       ??_C@_08HDJHBAFE@maskmovq@ 710c9924     decode_table.obj
 0002:00015930       ??_C@_0L@KDNMNDNK@maskmovdqu@ 710c9930     decode_table.obj
 0002:0001593c       ??_C@_0M@HIPJIAEN@vmaskmovdqu@ 710c993c     decode_table.obj
 0002:00015948       ??_C@_05LLBEIPEH@psubb@    710c9948     decode_table.obj
 0002:00015950       ??_C@_06BIACBEIL@vpsubb@   710c9950     decode_table.obj
 0002:00015958       ??_C@_05IMKBGJFD@psubw@    710c9958     decode_table.obj
 0002:00015960       ??_C@_06CPLHPCJP@vpsubw@   710c9960     decode_table.obj
 0002:00015968       ??_C@_05ONEOCIMB@psubd@    710c9968     decode_table.obj
 0002:00015970       ??_C@_06EOFILDAN@vpsubd@   710c9970     decode_table.obj
 0002:00015978       ??_C@_0BC@ODLBEHJI@?$CIevex_Wb?5ext?5241?$CJ@ 710c9978     decode_table.obj
 0002:0001598c       ??_C@_05NKPLMONF@psubq@    710c998c     decode_table.obj
 0002:00015994       ??_C@_06HJONFFBJ@vpsubq@   710c9994     decode_table.obj
 0002:0001599c       ??_C@_0BC@MDJFAOMB@?$CIevex_Wb?5ext?5226?$CJ@ 710c999c     decode_table.obj
 0002:000159b0       ??_C@_05ENBMAHON@paddb@    710c99b0     decode_table.obj
 0002:000159b8       ??_C@_06OOAKJMCB@vpaddb@   710c99b8     decode_table.obj
 0002:000159c0       ??_C@_05HKKJOBPJ@paddw@    710c99c0     decode_table.obj
 0002:000159c8       ??_C@_06NJLPHKDF@vpaddw@   710c99c8     decode_table.obj
 0002:000159d0       ??_C@_05BLEGKAGL@paddd@    710c99d0     decode_table.obj
 0002:000159d8       ??_C@_06LIFADLKH@vpaddd@   710c99d8     decode_table.obj
 0002:000159e0       ??_C@_0BC@OBPHPJMB@?$CIevex_Wb?5ext?5242?$CJ@ 710c99e0     decode_table.obj
 0002:000159f4       ??_C@_06IIFFFPJK@psrldq@   710c99f4     decode_table.obj
 0002:000159fc       ??_C@_07BKCEMHJK@vpsrldq@  710c99fc     decode_table.obj
 0002:00015a04       ??_C@_06FHIFHGHJ@pslldq@   710c9a04     decode_table.obj
 0002:00015a0c       ??_C@_07MFPEOOHJ@vpslldq@  710c9a0c     decode_table.obj
 0002:00015a14       ??_C@_0O@NGAEAGAE@?$CIrex?4b?5ext?50?$CJ@ 710c9a14     decode_table.obj
 0002:00015a24       ??_C@_05PDJBBECF@pause@    710c9a24     decode_table.obj
 0002:00015a2c       ??_C@_0BC@IHLBKAHP@?$CIevex_Wb?5ext?5124?$CJ@ 710c9a2c     decode_table.obj
 0002:00015a40       ??_C@_0BC@IDDMNMMN@?$CIevex_Wb?5ext?5122?$CJ@ 710c9a40     decode_table.obj
 0002:00015a54       ??_C@_0BC@OFHKIFHD@?$CIevex_Wb?5ext?5244?$CJ@ 710c9a54     decode_table.obj
 0002:00015a68       ??_C@_0BC@IEDFHEBB@?$CIevex_Wb?5ext?5126?$CJ@ 710c9a68     decode_table.obj
 0002:00015a7c       ??_C@_0BC@MIMJEJPM@?$CIevex_Wb?5ext?5229?$CJ@ 710c9a7c     decode_table.obj
 0002:00015a90       ??_C@_06LEPNEKME@movdqu@   710c9a90     decode_table.obj
 0002:00015a98       ??_C@_06JKFDJNJB@movdqa@   710c9a98     decode_table.obj
 0002:00015aa0       ??_C@_07CGIMNCME@vmovdqu@  710c9aa0     decode_table.obj
 0002:00015aa8       ??_C@_07ICCAFJB@vmovdqa@   710c9aa8     decode_table.obj
 0002:00015ab0       ??_C@_0BB@GJLOHLI@?$CIevex_Wb?5ext?511?$CJ@ 710c9ab0     decode_table.obj
 0002:00015ac4       ??_C@_0BA@OCCKJMPP@?$CIevex_Wb?5ext?58?$CJ@ 710c9ac4     decode_table.obj
 0002:00015ad4       ??_C@_0BB@HFJINIP@?$CIevex_Wb?5ext?510?$CJ@ 710c9ad4     decode_table.obj
 0002:00015ae8       ??_C@_0BB@FBPDDNG@?$CIevex_Wb?5ext?513?$CJ@ 710c9ae8     decode_table.obj
 0002:00015afc       ??_C@_0BA@ODOIPGMI@?$CIevex_Wb?5ext?59?$CJ@ 710c9afc     decode_table.obj
 0002:00015b0c       ??_C@_0BB@ENNFJOB@?$CIevex_Wb?5ext?512?$CJ@ 710c9b0c     decode_table.obj
 0002:00015b20       ??_C@_06JEPEIJNG@haddpd@   710c9b20     decode_table.obj
 0002:00015b28       ??_C@_06JBHHANEA@haddps@   710c9b28     decode_table.obj
 0002:00015b30       ??_C@_07GIFBBNG@vhaddpd@   710c9b30     decode_table.obj
 0002:00015b38       ??_C@_07DAGJFEA@vhaddps@   710c9b38     decode_table.obj
 0002:00015b40       ??_C@_06KCABMLKI@hsubpd@   710c9b40     decode_table.obj
 0002:00015b48       ??_C@_06KHICEPDO@hsubps@   710c9b48     decode_table.obj
 0002:00015b50       ??_C@_07DAHAFDKI@vhsubpd@  710c9b50     decode_table.obj
 0002:00015b58       ??_C@_07DFPDNHDO@vhsubps@  710c9b58     decode_table.obj
 0002:00015b60       ??_C@_08BHNFBKK@addsubpd@  710c9b60     decode_table.obj
 0002:00015b6c       ??_C@_08EPONFDM@addsubps@  710c9b6c     decode_table.obj
 0002:00015b78       ??_C@_09PPKJNIKN@vaddsubpd@ 710c9b78     decode_table.obj
 0002:00015b84       ??_C@_09PKCKFMDL@vaddsubps@ 710c9b84     decode_table.obj
 0002:00015b90       ??_C@_05OOIGKPHA@lddqu@    710c9b90     decode_table.obj
 0002:00015b98       ??_C@_06ENJADELM@vlddqu@   710c9b98     decode_table.obj
 0002:00015ba0       ??_C@_06ONHPFNFA@pshufb@   710c9ba0     decode_table.obj
 0002:00015ba8       ??_C@_07HPAOMFFA@vpshufb@  710c9ba8     decode_table.obj
 0002:00015bb0       ??_C@_06FFOKMPPJ@phaddw@   710c9bb0     decode_table.obj
 0002:00015bb8       ??_C@_07MHJLFHPJ@vphaddw@  710c9bb8     decode_table.obj
 0002:00015bc0       ??_C@_06DEAFIOGL@phaddd@   710c9bc0     decode_table.obj
 0002:00015bc8       ??_C@_07KGHEBGGL@vphaddd@  710c9bc8     decode_table.obj
 0002:00015bd0       ??_C@_07KDEDOHJK@phaddsw@  710c9bd0     decode_table.obj
 0002:00015bd8       ??_C@_08KDNBJGAC@vphaddsw@ 710c9bd8     decode_table.obj
 0002:00015be4       ??_C@_09CBBJJIHC@pmaddubsw@ 710c9be4     decode_table.obj
 0002:00015bf0       ??_C@_0L@LPIDNJFI@vpmaddubsw@ 710c9bf0     decode_table.obj
 0002:00015bfc       ??_C@_06KDOCEHFD@phsubw@   710c9bfc     decode_table.obj
 0002:00015c04       ??_C@_07DBJDNPFD@vphsubw@  710c9c04     decode_table.obj
 0002:00015c0c       ??_C@_06MCANAGMB@phsubd@   710c9c0c     decode_table.obj
 0002:00015c14       ??_C@_07FAHMJOMB@vphsubd@  710c9c14     decode_table.obj
 0002:00015c1c       ??_C@_07JFLGKFOE@phsubsw@  710c9c1c     decode_table.obj
 0002:00015c24       ??_C@_08JFCENEHM@vphsubsw@ 710c9c24     decode_table.obj
 0002:00015c30       ??_C@_06CEBMLKEM@psignb@   710c9c30     decode_table.obj
 0002:00015c38       ??_C@_07LGGNCCEM@vpsignb@  710c9c38     decode_table.obj
 0002:00015c40       ??_C@_06BDKJFMFI@psignw@   710c9c40     decode_table.obj
 0002:00015c48       ??_C@_07IBNIMEFI@vpsignw@  710c9c48     decode_table.obj
 0002:00015c50       ??_C@_06HCEGBNMK@psignd@   710c9c50     decode_table.obj
 0002:00015c58       ??_C@_07OADHIFMK@vpsignd@  710c9c58     decode_table.obj
 0002:00015c60       ??_C@_08DNGAMAOA@pmulhrsw@ 710c9c60     decode_table.obj
 0002:00015c6c       ??_C@_09MDLEEJOH@vpmulhrsw@ 710c9c6c     decode_table.obj
 0002:00015c78       ??_C@_05HBBOONME@pabsb@    710c9c78     decode_table.obj
 0002:00015c80       ??_C@_06NCAIHGAI@vpabsb@   710c9c80     decode_table.obj
 0002:00015c88       ??_C@_05EGKLALNA@pabsw@    710c9c88     decode_table.obj
 0002:00015c90       ??_C@_06OFLNJABM@vpabsw@   710c9c90     decode_table.obj
 0002:00015c98       ??_C@_05CHEEEKEC@pabsd@    710c9c98     decode_table.obj
 0002:00015ca0       ??_C@_06IEFCNBIO@vpabsd@   710c9ca0     decode_table.obj
 0002:00015ca8       ??_C@_0BC@KBFOCLMN@?$CIevex_Wb?5ext?5146?$CJ@ 710c9ca8     decode_table.obj
 0002:00015cbc       ??_C@_07JOJBOKO@palignr@   710c9cbc     decode_table.obj
 0002:00015cc4       ??_C@_08JHLGPDG@vpalignr@  710c9cc4     decode_table.obj
 0002:00015cd0       ??_C@_06JOCPGCDO@vmread@   710c9cd0     decode_table.obj
 0002:00015cd8       ??_C@_05FKKKKIPJ@extrq@    710c9cd8     decode_table.obj
 0002:00015ce0       ??_C@_07PGHOMLMA@insertq@  710c9ce0     decode_table.obj
 0002:00015ce8       ??_C@_0BB@DPFGEGDC@?$CIevex_Wb?5ext?549?$CJ@ 710c9ce8     decode_table.obj
 0002:00015cfc       ??_C@_0BB@IPDCLCAE@?$CIevex_Wb?5ext?554?$CJ@ 710c9cfc     decode_table.obj
 0002:00015d10       ??_C@_0BB@IJPJHAOP@?$CIevex_Wb?5ext?551?$CJ@ 710c9d10     decode_table.obj
 0002:00015d24       ??_C@_0BB@IOPANIDD@?$CIevex_Wb?5ext?555?$CJ@ 710c9d24     decode_table.obj
 0002:00015d38       ??_C@_07ICOKPMJF@vmwrite@  710c9d38     decode_table.obj
 0002:00015d40       ??_C@_0BB@DFMIGLDI@?$CIevex_Wb?5ext?547?$CJ@ 710c9d40     decode_table.obj
 0002:00015d54       ??_C@_0BB@ILLPMOLG@?$CIevex_Wb?5ext?552?$CJ@ 710c9d54     decode_table.obj
 0002:00015d68       ??_C@_0BB@DOJECMAF@?$CIevex_Wb?5ext?548?$CJ@ 710c9d68     decode_table.obj
 0002:00015d7c       ??_C@_0BB@IKHNKEIB@?$CIevex_Wb?5ext?553?$CJ@ 710c9d7c     decode_table.obj
 0002:00015d90       ??_C@_03ECKNCBG@bsr@       710c9d90     decode_table.obj
 0002:00015d94       ??_C@_05KCOAGLCG@lzcnt@    710c9d94     decode_table.obj
 0002:00015d9c       ??_C@_07JMJJCKJK@vmptrld@  710c9d9c     decode_table.obj
 0002:00015da4       ??_C@_05OEJKEBDL@vmxon@    710c9da4     decode_table.obj
 0002:00015dac       ??_C@_07JAMFMPEO@vmclear@  710c9dac     decode_table.obj
 0002:00015db4       ??_C@_05PMLINNKI@movbe@    710c9db4     decode_table.obj
 0002:00015dbc       ??_C@_05KBIBMHFC@crc32@    710c9dbc     decode_table.obj
 0002:00015dc4       ??_C@_03CKIEAFED@bsf@      710c9dc4     decode_table.obj
 0002:00015dc8       ??_C@_05ENGFOLNA@tzcnt@    710c9dc8     decode_table.obj
 0002:00015dd0       ??_C@_05LKKJFLLL@bextr@    710c9dd0     decode_table.obj
 0002:00015dd8       ??_C@_04LEKGENFL@sarx@     710c9dd8     decode_table.obj
 0002:00015de0       ??_C@_04NPBGIMKL@shlx@     710c9de0     decode_table.obj
 0002:00015de8       ??_C@_04MJKOACNB@shrx@     710c9de8     decode_table.obj
 0002:00015df0       ??_C@_04CMFGCGEB@bzhi@     710c9df0     decode_table.obj
 0002:00015df8       ??_C@_04NNEGGKAG@pext@     710c9df8     decode_table.obj
 0002:00015e00       ??_C@_04BFGIPIEE@pdep@     710c9e00     decode_table.obj
 0002:00015e08       ??_C@_04INKGEJKI@adox@     710c9e08     decode_table.obj
 0002:00015e10       ??_C@_04IELMLAMM@adcx@     710c9e10     decode_table.obj
 0002:00015e18       ??_C@_04KCLFCKAK@mulx@     710c9e18     decode_table.obj
 0002:00015e20       ??_C@_0P@GCAOBMDK@?$CIvex_W?5ext?574?$CJ@ 710c9e20     decode_table.obj
 0002:00015e30       ??_C@_0P@GDMMHGAN@?$CIvex_W?5ext?575?$CJ@ 710c9e30     decode_table.obj
 0002:00015e40       ??_C@_0P@GBIKMIFE@?$CIvex_W?5ext?576?$CJ@ 710c9e40     decode_table.obj
 0002:00015e50       ??_C@_0P@GAEIKCGD@?$CIvex_W?5ext?577?$CJ@ 710c9e50     decode_table.obj
 0002:00015e60       ??_C@_0P@GLBEOFFO@?$CIvex_W?5ext?578?$CJ@ 710c9e60     decode_table.obj
 0002:00015e70       ??_C@_0P@GKNGIPGJ@?$CIvex_W?5ext?579?$CJ@ 710c9e70     decode_table.obj
 0002:00015e80       ??_C@_0BA@JFHAMOPP@?$CIvex_W?5ext?5106?$CJ@ 710c9e80     decode_table.obj
 0002:00015e90       ??_C@_0P@DNGEKELA@?$CIvex_W?5ext?580?$CJ@ 710c9e90     decode_table.obj
 0002:00015ea0       ??_C@_0P@DMKGMOIH@?$CIvex_W?5ext?581?$CJ@ 710c9ea0     decode_table.obj
 0002:00015eb0       ??_C@_0BA@JELCKEMI@?$CIvex_W?5ext?5107?$CJ@ 710c9eb0     decode_table.obj
 0002:00015ec0       ??_C@_0P@DOOAHANO@?$CIvex_W?5ext?582?$CJ@ 710c9ec0     decode_table.obj
 0002:00015ed0       ??_C@_0P@DPCCBKOJ@?$CIvex_W?5ext?583?$CJ@ 710c9ed0     decode_table.obj
 0002:00015ee0       ??_C@_0P@DKGNAMGM@?$CIvex_W?5ext?584?$CJ@ 710c9ee0     decode_table.obj
 0002:00015ef0       ??_C@_0P@DLKPGGFL@?$CIvex_W?5ext?585?$CJ@ 710c9ef0     decode_table.obj
 0002:00015f00       ??_C@_0P@DJOJNIAC@?$CIvex_W?5ext?586?$CJ@ 710c9f00     decode_table.obj
 0002:00015f10       ??_C@_0P@DICLLCDF@?$CIvex_W?5ext?587?$CJ@ 710c9f10     decode_table.obj
 0002:00015f20       ??_C@_0P@DDHHPFAI@?$CIvex_W?5ext?588?$CJ@ 710c9f20     decode_table.obj
 0002:00015f30       ??_C@_0P@DCLFJPDP@?$CIvex_W?5ext?589?$CJ@ 710c9f30     decode_table.obj
 0002:00015f40       ??_C@_0P@IFNIMDNF@?$CIvex_W?5ext?590?$CJ@ 710c9f40     decode_table.obj
 0002:00015f50       ??_C@_0P@IEBKKJOC@?$CIvex_W?5ext?591?$CJ@ 710c9f50     decode_table.obj
 0002:00015f60       ??_C@_0P@IGFMBHLL@?$CIvex_W?5ext?592?$CJ@ 710c9f60     decode_table.obj
 0002:00015f70       ??_C@_0P@IHJOHNIM@?$CIvex_W?5ext?593?$CJ@ 710c9f70     decode_table.obj
 0002:00015f80       ??_C@_0P@ICNBGLAJ@?$CIvex_W?5ext?594?$CJ@ 710c9f80     decode_table.obj
 0002:00015f90       ??_C@_0P@IDBDABDO@?$CIvex_W?5ext?595?$CJ@ 710c9f90     decode_table.obj
 0002:00015fa0       ??_C@_0P@IBFFLPGH@?$CIvex_W?5ext?596?$CJ@ 710c9fa0     decode_table.obj
 0002:00015fb0       ??_C@_0P@IAJHNFFA@?$CIvex_W?5ext?597?$CJ@ 710c9fb0     decode_table.obj
 0002:00015fc0       ??_C@_0P@ILMLJCGN@?$CIvex_W?5ext?598?$CJ@ 710c9fc0     decode_table.obj
 0002:00015fd0       ??_C@_0P@IKAJPIFK@?$CIvex_W?5ext?599?$CJ@ 710c9fd0     decode_table.obj
 0002:00015fe0       ??_C@_0BA@JGPEBKJB@?$CIvex_W?5ext?5104?$CJ@ 710c9fe0     decode_table.obj
 0002:00015ff0       ??_C@_0BA@JHDGHAKG@?$CIvex_W?5ext?5105?$CJ@ 710c9ff0     decode_table.obj
 0002:00016000       ??_C@_0BB@IGCIELGA@?$CIevex_Wb?5ext?558?$CJ@ 710ca000     decode_table.obj
 0002:00016014       ??_C@_0BB@DEAKABAP@?$CIevex_Wb?5ext?546?$CJ@ 710ca014     decode_table.obj
 0002:00016028       ??_C@_0BB@IHOKCBFH@?$CIevex_Wb?5ext?559?$CJ@ 710ca028     decode_table.obj
 0002:0001603c       ??_C@_0BB@JLEMNPAB@?$CIevex_Wb?5ext?561?$CJ@ 710ca03c     decode_table.obj
 0002:00016050       ??_C@_0BB@IIDLBKNI@?$CIevex_Wb?5ext?550?$CJ@ 710ca050     decode_table.obj
 0002:00016064       ??_C@_0BB@JKIOLFDG@?$CIevex_Wb?5ext?560?$CJ@ 710ca064     decode_table.obj
 0002:00016078       ??_C@_07PPCOGALA@vpmovqb@  710ca078     decode_table.obj
 0002:00016080       ??_C@_09JMHEOBNN@vpmovzxbq@ 710ca080     decode_table.obj
 0002:0001608c       ??_C@_08CIDMEBGL@vpmovsqb@ 710ca08c     decode_table.obj
 0002:00016098       ??_C@_09JBGEIDKM@vpmovsxbq@ 710ca098     decode_table.obj
 0002:000160a4       ??_C@_09LGKKKNLG@vpmovusqb@ 710ca0a4     decode_table.obj
 0002:000160b0       ??_C@_0BC@DIAEGPMG@?$CIevex_Wb?5ext?5130?$CJ@ 710ca0b0     decode_table.obj
 0002:000160c4       ??_C@_07MIJLIGKE@vpmovqw@  710ca0c4     decode_table.obj
 0002:000160cc       ??_C@_09IGJJIAEG@vpmovzxwq@ 710ca0cc     decode_table.obj
 0002:000160d8       ??_C@_08BPIJKHHP@vpmovsqw@ 710ca0d8     decode_table.obj
 0002:000160e4       ??_C@_09ILIJOCDH@vpmovsxwq@ 710ca0e4     decode_table.obj
 0002:000160f0       ??_C@_09IBBPELKC@vpmovusqw@ 710ca0f0     decode_table.obj
 0002:000160fc       ??_C@_0BC@JNNMJMMC@?$CIevex_Wb?5ext?5119?$CJ@ 710ca0fc     decode_table.obj
 0002:00016110       ??_C@_07KJHEMHDG@vpmovqd@  710ca110     decode_table.obj
 0002:00016118       ??_C@_09JIPJJNGP@vpmovzxdq@ 710ca118     decode_table.obj
 0002:00016124       ??_C@_08HOGGOGON@vpmovsqd@ 710ca124     decode_table.obj
 0002:00016130       ??_C@_09JFOJPPBO@vpmovsxdq@ 710ca130     decode_table.obj
 0002:0001613c       ??_C@_09OAPAAKDA@vpmovusqd@ 710ca13c     decode_table.obj
 0002:00016148       ??_C@_0BC@JHECLBMI@?$CIevex_Wb?5ext?5117?$CJ@ 710ca148     decode_table.obj
 0002:0001615c       ??_C@_07OFMDABCL@vpmovdb@  710ca15c     decode_table.obj
 0002:00016164       ??_C@_09KLMBAHMJ@vpmovzxbd@ 710ca164     decode_table.obj
 0002:00016170       ??_C@_08DCNBCAPA@vpmovsdb@ 710ca170     decode_table.obj
 0002:0001617c       ??_C@_09KGNBGFLI@vpmovsxbd@ 710ca17c     decode_table.obj
 0002:00016188       ??_C@_09KMEHMMCN@vpmovusdb@ 710ca188     decode_table.obj
 0002:00016194       ??_C@_0BC@IFPHBOCG@?$CIevex_Wb?5ext?5127?$CJ@ 710ca194     decode_table.obj
 0002:000161a8       ??_C@_07NCHGOHDP@vpmovdw@  710ca1a8     decode_table.obj
 0002:000161b0       ??_C@_09LBCMGGFC@vpmovzxwd@ 710ca1b0     decode_table.obj
 0002:000161bc       ??_C@_08FGEMGOE@vpmovsdw@  710ca1bc     decode_table.obj
 0002:000161c8       ??_C@_09LMDMAECD@vpmovsxwd@ 710ca1c8     decode_table.obj
 0002:000161d4       ??_C@_09JLPCCKDJ@vpmovusdw@ 710ca1d4     decode_table.obj
 0002:000161e0       ??_C@_0BC@EKDMFLHN@?$CIevex_Wb?5ext?5263?$CJ@ 710ca1e0     decode_table.obj
 0002:000161f4       ??_C@_07PLKDBMAC@vpmovwb@  710ca1f4     decode_table.obj
 0002:000161fc       ??_C@_09MKCOEGFL@vpmovzxbw@ 710ca1fc     decode_table.obj
 0002:00016208       ??_C@_08CMLBDNNJ@vpmovswb@ 710ca208     decode_table.obj
 0002:00016214       ??_C@_09MHDOCECK@vpmovsxbw@ 710ca214     decode_table.obj
 0002:00016220       ??_C@_09LCCHNBAE@vpmovuswb@ 710ca220     decode_table.obj
 0002:0001622c       ??_C@_07FDNMBHAC@vpsrlvw@  710ca22c     decode_table.obj
 0002:00016234       ??_C@_0BC@DGBHDOHO@?$CIevex_Wb?5ext?5138?$CJ@ 710ca234     decode_table.obj
 0002:00016248       ??_C@_0BC@MCFHGEPG@?$CIevex_Wb?5ext?5227?$CJ@ 710ca248     decode_table.obj
 0002:0001625c       ??_C@_0BC@DHNFFEEJ@?$CIevex_Wb?5ext?5139?$CJ@ 710ca25c     decode_table.obj
 0002:00016270       ??_C@_07OGEHDOAO@vpminsb@  710ca270     decode_table.obj
 0002:00016278       ??_C@_0BC@KFNDFHHP@?$CIevex_Wb?5ext?5140?$CJ@ 710ca278     decode_table.obj
 0002:0001628c       ??_C@_0BC@HNOCKLEP@?$CIevex_Wb?5ext?5233?$CJ@ 710ca28c     decode_table.obj
 0002:000162a0       ??_C@_0BC@KEBBDNEI@?$CIevex_Wb?5ext?5141?$CJ@ 710ca2a0     decode_table.obj
 0002:000162b4       ??_C@_0BC@JAELBJBE@?$CIevex_Wb?5ext?5113?$CJ@ 710ca2b4     decode_table.obj
 0002:000162c8       ??_C@_0BC@LGKEJCKG@?$CIevex_Wb?5ext?5171?$CJ@ 710ca2c8     decode_table.obj
 0002:000162dc       ??_C@_0BC@LKEHL@?$CIevex_Wb?5ext?5169?$CJ@ 710ca2dc     decode_table.obj
 0002:000162f0       ??_C@_0BC@LEOCCMPP@?$CIevex_Wb?5ext?5172?$CJ@ 710ca2f0     decode_table.obj
 0002:00016304       ??_C@_0BC@LHGGPIJB@?$CIevex_Wb?5ext?5170?$CJ@ 710ca304     decode_table.obj
 0002:00016318       ??_C@_0BA@OILOEFCD@vpbroadcastmb2q@ 710ca318     decode_table.obj
 0002:00016328       ??_C@_09GPEAEDFD@vmovntdqa@ 710ca328     decode_table.obj
 0002:00016334       ??_C@_0BA@LIMMAEJK@vpbroadcastmw2d@ 710ca334     decode_table.obj
 0002:00016344       ??_C@_07NFHPKEKI@vpminuw@  710ca344     decode_table.obj
 0002:0001634c       ??_C@_06PJDOBKFD@bndldx@   710ca34c     decode_table.obj
 0002:00016354       ??_C@_05BKJOAIKH@bndcl@    710ca354     decode_table.obj
 0002:0001635c       ??_C@_06NDFELPFJ@bndmov@   710ca35c     decode_table.obj
 0002:00016364       ??_C@_05IBJOKBLP@bndcu@    710ca364     decode_table.obj
 0002:0001636c       ??_C@_06ONGCPOOK@bndstx@   710ca36c     decode_table.obj
 0002:00016374       ??_C@_05FPEBLDGK@bndmk@    710ca374     decode_table.obj
 0002:0001637c       ??_C@_05CIKIGKCF@bndcn@    710ca37c     decode_table.obj
 0002:00016384       ??_C@_0O@DDNHNFFE@?$CIrex?4w?5ext?52?$CJ@ 710ca384     decode_table.obj
 0002:00016394       ??_C@_07LGMDCMAP@ptwrite@  710ca394     decode_table.obj
 0002:0001639c       ??_C@_09ILIGBPEA@vblendvps@ 710ca39c     decode_table.obj
 0002:000163a8       ??_C@_09IOAFJLNG@vblendvpd@ 710ca3a8     decode_table.obj
 0002:000163b4       ??_C@_09EJBAKIC@vpblendvb@ 710ca3b4     decode_table.obj
 0002:000163c0       ??_C@_05FIFBHIFI@ptest@    710ca3c0     decode_table.obj
 0002:000163c8       ??_C@_06PLEHODJE@vptest@   710ca3c8     decode_table.obj
 0002:000163d0       ??_C@_08DJOKKNCN@pmovsxbw@ 710ca3d0     decode_table.obj
 0002:000163dc       ??_C@_0BB@HEOHEBBN@?$CIprefix?5ext?5176?$CJ@ 710ca3dc     decode_table.obj
 0002:000163f0       ??_C@_08FIAFOMLP@pmovsxbd@ 710ca3f0     decode_table.obj
 0002:000163fc       ??_C@_0BB@HAGKDNKP@?$CIprefix?5ext?5170?$CJ@ 710ca3fc     decode_table.obj
 0002:00016410       ??_C@_08GPLAAKKL@pmovsxbq@ 710ca410     decode_table.obj
 0002:0001641c       ??_C@_0BB@MJBEDAPN@?$CIprefix?5ext?5161?$CJ@ 710ca41c     decode_table.obj
 0002:00016430       ??_C@_08ECOIINCE@pmovsxwd@ 710ca430     decode_table.obj
 0002:0001643c       ??_C@_0BB@HCCMIDPG@?$CIprefix?5ext?5173?$CJ@ 710ca43c     decode_table.obj
 0002:00016450       ??_C@_08HFFNGLDA@pmovsxwq@ 710ca450     decode_table.obj
 0002:0001645c       ??_C@_0BB@MPNPPCBG@?$CIprefix?5ext?5164?$CJ@ 710ca45c     decode_table.obj
 0002:00016470       ??_C@_08GLDNHGBJ@pmovsxdq@ 710ca470     decode_table.obj
 0002:0001647c       ??_C@_0BB@MNJJEMEP@?$CIprefix?5ext?5167?$CJ@ 710ca47c     decode_table.obj
 0002:00016490       ??_C@_06DKJOAGB@pmuldq@    710ca490     decode_table.obj
 0002:00016498       ??_C@_07JBNIHIGB@vpmuldq@  710ca498     decode_table.obj
 0002:000164a0       ??_C@_0BB@HOHJGMBH@?$CIprefix?5ext?5178?$CJ@ 710ca4a0     decode_table.obj
 0002:000164b4       ??_C@_07KOIEFGNE@pcmpeqq@  710ca4b4     decode_table.obj
 0002:000164bc       ??_C@_08KOBGCHEM@vpcmpeqq@ 710ca4bc     decode_table.obj
 0002:000164c8       ??_C@_0BB@CIAJCNPJ@?$CIprefix?5ext?5180?$CJ@ 710ca4c8     decode_table.obj
 0002:000164dc       ??_C@_08JBJEMKFE@movntdqa@ 710ca4dc     decode_table.obj
 0002:000164e8       ??_C@_0BB@CPAAIFCF@?$CIprefix?5ext?5184?$CJ@ 710ca4e8     decode_table.obj
 0002:000164fc       ??_C@_08EKGBMNEA@packusdw@ 710ca4fc     decode_table.obj
 0002:00016508       ??_C@_09LELFEEEH@vpackusdw@ 710ca508     decode_table.obj
 0002:00016514       ??_C@_0BC@OELIOPEE@?$CIevex_Wb?5ext?5245?$CJ@ 710ca514     decode_table.obj
 0002:00016528       ??_C@_08DEPKMPFM@pmovzxbw@ 710ca528     decode_table.obj
 0002:00016534       ??_C@_0BB@HGKBPPEE@?$CIprefix?5ext?5175?$CJ@ 710ca534     decode_table.obj
 0002:00016548       ??_C@_08FFBFIOMO@pmovzxbd@ 710ca548     decode_table.obj
 0002:00016554       ??_C@_0BB@MHAHGBEF@?$CIprefix?5ext?5169?$CJ@ 710ca554     decode_table.obj
 0002:00016568       ??_C@_08GCKAGINK@pmovzxbq@ 710ca568     decode_table.obj
 0002:00016574       ??_C@_0BB@MINGFKMK@?$CIprefix?5ext?5160?$CJ@ 710ca574     decode_table.obj
 0002:00016588       ??_C@_08EPPIOPFF@pmovzxwd@ 710ca588     decode_table.obj
 0002:00016594       ??_C@_0BB@HDOOOJMB@?$CIprefix?5ext?5172?$CJ@ 710ca594     decode_table.obj
 0002:000165a8       ??_C@_08HIENAJEB@pmovzxwq@ 710ca5a8     decode_table.obj
 0002:000165b4       ??_C@_0BB@MKJAOEJD@?$CIprefix?5ext?5163?$CJ@ 710ca5b4     decode_table.obj
 0002:000165c8       ??_C@_08GGCNBEGI@pmovzxdq@ 710ca5c8     decode_table.obj
 0002:000165d4       ??_C@_0BB@MMFLCGHI@?$CIprefix?5ext?5166?$CJ@ 710ca5d4     decode_table.obj
 0002:000165e8       ??_C@_07CEGFMLE@pcmpgtq@   710ca5e8     decode_table.obj
 0002:000165f0       ??_C@_08CNECNCM@vpcmpgtq@  710ca5f0     decode_table.obj
 0002:000165fc       ??_C@_0BC@HMCAMBHI@?$CIevex_Wb?5ext?5232?$CJ@ 710ca5fc     decode_table.obj
 0002:00016610       ??_C@_06HEDGKGAO@pminsb@   710ca610     decode_table.obj
 0002:00016618       ??_C@_0BB@HPLLAGCA@?$CIprefix?5ext?5179?$CJ@ 710ca618     decode_table.obj
 0002:0001662c       ??_C@_06CCGMABII@pminsd@   710ca62c     decode_table.obj
 0002:00016634       ??_C@_07LABNJJII@vpminsd@  710ca634     decode_table.obj
 0002:0001663c       ??_C@_0BB@CJMLEHMO@?$CIprefix?5ext?5181?$CJ@ 710ca63c     decode_table.obj
 0002:00016650       ??_C@_06EHAODMKI@pminuw@   710ca650     decode_table.obj
 0002:00016658       ??_C@_0BB@COMCOPBC@?$CIprefix?5ext?5185?$CJ@ 710ca658     decode_table.obj
 0002:0001666c       ??_C@_06CGOBHNDK@pminud@   710ca66c     decode_table.obj
 0002:00016674       ??_C@_07LEJAOFDK@vpminud@  710ca674     decode_table.obj
 0002:0001667c       ??_C@_0BC@JEMGGFKG@?$CIevex_Wb?5ext?5115?$CJ@ 710ca67c     decode_table.obj
 0002:00016690       ??_C@_06DBDEOFIM@pmaxsb@   710ca690     decode_table.obj
 0002:00016698       ??_C@_07KDEFHNIM@vpmaxsb@  710ca698     decode_table.obj
 0002:000166a0       ??_C@_06GHGOECAK@pmaxsd@   710ca6a0     decode_table.obj
 0002:000166a8       ??_C@_07PFBPNKAK@vpmaxsd@  710ca6a8     decode_table.obj
 0002:000166b0       ??_C@_0BC@JFAEAPJB@?$CIevex_Wb?5ext?5114?$CJ@ 710ca6b0     decode_table.obj
 0002:000166c4       ??_C@_06CAMHPCK@pmaxuw@    710ca6c4     decode_table.obj
 0002:000166cc       ??_C@_07JAHNOHCK@vpmaxuw@  710ca6cc     decode_table.obj
 0002:000166d4       ??_C@_06GDODDOLI@pmaxud@   710ca6d4     decode_table.obj
 0002:000166dc       ??_C@_07PBJCKGLI@vpmaxud@  710ca6dc     decode_table.obj
 0002:000166e4       ??_C@_0BC@JGIANLPP@?$CIevex_Wb?5ext?5116?$CJ@ 710ca6e4     decode_table.obj
 0002:000166f8       ??_C@_06DKAPFHMN@pmulld@   710ca6f8     decode_table.obj
 0002:00016700       ??_C@_07KIHOMPMN@vpmulld@  710ca700     decode_table.obj
 0002:00016708       ??_C@_0BB@DGEMLPFG@?$CIevex_Wb?5ext?545?$CJ@ 710ca708     decode_table.obj
 0002:0001671c       ??_C@_0L@EKOFBFBK@phminposuw@ 710ca71c     decode_table.obj
 0002:00016728       ??_C@_0M@JBMAEGIN@vphminposuw@ 710ca728     decode_table.obj
 0002:00016734       ??_C@_06OBOILLLI@aesimc@   710ca734     decode_table.obj
 0002:0001673c       ??_C@_07HDJJCDLI@vaesimc@  710ca73c     decode_table.obj
 0002:00016744       ??_C@_06KJHILKFJ@aesenc@   710ca744     decode_table.obj
 0002:0001674c       ??_C@_07DLAJCCFJ@vaesenc@  710ca74c     decode_table.obj
 0002:00016754       ??_C@_0L@PEJMLDIN@aesenclast@ 710ca754     decode_table.obj
 0002:00016760       ??_C@_0M@CPLJOABK@vaesenclast@ 710ca760     decode_table.obj
 0002:0001676c       ??_C@_06BNJBDCNN@aesdec@   710ca76c     decode_table.obj
 0002:00016774       ??_C@_07IPOAKKNN@vaesdec@  710ca774     decode_table.obj
 0002:0001677c       ??_C@_0L@DKDBOHOJ@aesdeclast@ 710ca77c     decode_table.obj
 0002:00016788       ??_C@_0M@OBBELEHO@vaesdeclast@ 710ca788     decode_table.obj
 0002:00016794       ??_C@_06PLIDEHJN@pextrb@   710ca794     decode_table.obj
 0002:0001679c       ??_C@_07GJPCNPJN@vpextrb@  710ca79c     decode_table.obj
 0002:000167a4       ??_C@_06KNNJOABL@pextrd@   710ca7a4     decode_table.obj
 0002:000167ac       ??_C@_07DPKIHIBL@vpextrd@  710ca7ac     decode_table.obj
 0002:000167b4       ??_C@_0BC@KDBIJFJE@?$CIevex_Wb?5ext?5145?$CJ@ 710ca7b4     decode_table.obj
 0002:000167c8       ??_C@_09JKKJMDNE@extractps@ 710ca7c8     decode_table.obj
 0002:000167d4       ??_C@_0L@EDDICPO@vextractps@ 710ca7d4     decode_table.obj
 0002:000167e0       ??_C@_07JABMPNBI@roundps@  710ca7e0     decode_table.obj
 0002:000167e8       ??_C@_08JAIOIMIA@vroundps@ 710ca7e8     decode_table.obj
 0002:000167f4       ??_C@_0BC@OGPOFBBN@?$CIevex_Wb?5ext?5246?$CJ@ 710ca7f4     decode_table.obj
 0002:00016808       ??_C@_07JFJPHJIO@roundpd@  710ca808     decode_table.obj
 0002:00016810       ??_C@_08JFANAIBG@vroundpd@ 710ca810     decode_table.obj
 0002:0001681c       ??_C@_0BC@NLLOIMCF@?$CIevex_Wb?5ext?5218?$CJ@ 710ca81c     decode_table.obj
 0002:00016830       ??_C@_07JCFKEDEB@roundss@  710ca830     decode_table.obj
 0002:00016838       ??_C@_08JCMIDCNJ@vroundss@ 710ca838     decode_table.obj
 0002:00016844       ??_C@_0BC@FIIJPEJD@?$CIevex_Wb?5ext?5253?$CJ@ 710ca844     decode_table.obj
 0002:00016858       ??_C@_07JHNJMHNH@roundsd@  710ca858     decode_table.obj
 0002:00016860       ??_C@_08JHELLGEP@vroundsd@ 710ca860     decode_table.obj
 0002:0001686c       ??_C@_0BC@FNMGOCBG@?$CIevex_Wb?5ext?5254?$CJ@ 710ca86c     decode_table.obj
 0002:00016880       ??_C@_07NOJJNEDF@blendps@  710ca880     decode_table.obj
 0002:00016888       ??_C@_08NOALKFKN@vblendps@ 710ca888     decode_table.obj
 0002:00016894       ??_C@_07NLBKFAKD@blendpd@  710ca894     decode_table.obj
 0002:0001689c       ??_C@_08NLIICBDL@vblendpd@ 710ca89c     decode_table.obj
 0002:000168a8       ??_C@_07PABJNHCL@pblendw@  710ca8a8     decode_table.obj
 0002:000168b0       ??_C@_08PAILKGLD@vpblendw@ 710ca8b0     decode_table.obj
 0002:000168bc       ??_C@_06PODGNNHN@pinsrb@   710ca8bc     decode_table.obj
 0002:000168c4       ??_C@_07GMEHEFHN@vpinsrb@  710ca8c4     decode_table.obj
 0002:000168cc       ??_C@_08JOECPMHJ@insertps@ 710ca8cc     decode_table.obj
 0002:000168d8       ??_C@_09GAJGHFHO@vinsertps@ 710ca8d8     decode_table.obj
 0002:000168e4       ??_C@_06KIGMHKPL@pinsrd@   710ca8e4     decode_table.obj
 0002:000168ec       ??_C@_07DKBNOCPL@vpinsrd@  710ca8ec     decode_table.obj
 0002:000168f4       ??_C@_0BC@KCNKPPKD@?$CIevex_Wb?5ext?5144?$CJ@ 710ca8f4     decode_table.obj
 0002:00016908       ??_C@_04GOLDDLJG@dpps@     710ca908     decode_table.obj
 0002:00016910       ??_C@_05MECIIDPE@vdpps@    710ca910     decode_table.obj
 0002:00016918       ??_C@_04GLDALPAA@dppd@     710ca918     decode_table.obj
 0002:00016920       ??_C@_05MBKLAHGC@vdppd@    710ca920     decode_table.obj
 0002:00016928       ??_C@_07ILNGPEGO@mpsadbw@  710ca928     decode_table.obj
 0002:00016930       ??_C@_08ILEEIFPG@vmpsadbw@ 710ca930     decode_table.obj
 0002:0001693c       ??_C@_09COIGHEKK@vdbpsadbw@ 710ca93c     decode_table.obj
 0002:00016948       ??_C@_09KNGEFANI@pcmpestrm@ 710ca948     decode_table.obj
 0002:00016954       ??_C@_0L@DDPOBBPC@vpcmpestrm@ 710ca954     decode_table.obj
 0002:00016960       ??_C@_09MJAIJFNM@pcmpestri@ 710ca960     decode_table.obj
 0002:0001696c       ??_C@_0L@FHJCNEPG@vpcmpestri@ 710ca96c     decode_table.obj
 0002:00016978       ??_C@_09NKKGJAKD@pcmpistrm@ 710ca978     decode_table.obj
 0002:00016984       ??_C@_0L@EEDMNBIJ@vpcmpistrm@ 710ca984     decode_table.obj
 0002:00016990       ??_C@_09LOMKFFKH@pcmpistri@ 710ca990     decode_table.obj
 0002:0001699c       ??_C@_0L@CAFABEIN@vpcmpistri@ 710ca99c     decode_table.obj
 0002:000169a8       ??_C@_09EPKDNNCN@pclmulqdq@ 710ca9a8     decode_table.obj
 0002:000169b4       ??_C@_0L@NBDJJMAH@vpclmulqdq@ 710ca9b4     decode_table.obj
 0002:000169c0       ??_C@_0BA@BKBPMOOB@aeskeygenassist@ 710ca9c0     decode_table.obj
 0002:000169d0       ??_C@_0BB@PMMLANHC@vaeskeygenassist@ 710ca9d0     decode_table.obj
 0002:000169e4       ??_C@_07LKDADNOB@vtestps@  710ca9e4     decode_table.obj
 0002:000169ec       ??_C@_07LPLDLJHH@vtestpd@  710ca9ec     decode_table.obj
 0002:000169f4       ??_C@_07HNIFNPIO@ldmxcsr@  710ca9f4     decode_table.obj
 0002:000169fc       ??_C@_08HNBHKOBG@vldmxcsr@ 710ca9fc     decode_table.obj
 0002:00016a08       ??_C@_07LPMAGAMH@stmxcsr@  710caa08     decode_table.obj
 0002:00016a10       ??_C@_08LPFCBBFP@vstmxcsr@ 710caa10     decode_table.obj
 0002:00016a1c       ??_C@_09FIHFPABK@vcvtph2ps@ 710caa1c     decode_table.obj
 0002:00016a28       ??_C@_0BB@HHGDJFHD@?$CIprefix?5ext?5174?$CJ@ 710caa28     decode_table.obj
 0002:00016a3c       ??_C@_0N@MGJELMLF@vbroadcastss@ 710caa3c     decode_table.obj
 0002:00016a4c       ??_C@_0N@MDBHDICD@vbroadcastsd@ 710caa4c     decode_table.obj
 0002:00016a5c       ??_C@_0BC@KLMAAGMH@?$CIevex_Wb?5ext?5148?$CJ@ 710caa5c     decode_table.obj
 0002:00016a70       ??_C@_0P@PCAIGGIP@vbroadcastf128@ 710caa70     decode_table.obj
 0002:00016a80       ??_C@_0BC@KKACGMPA@?$CIevex_Wb?5ext?5149?$CJ@ 710caa80     decode_table.obj
 0002:00016a94       ??_C@_0L@PHDPADNF@vmaskmovps@ 710caa94     decode_table.obj
 0002:00016aa0       ??_C@_0BC@OOMHICPA@?$CIevex_Wb?5ext?5181?$CJ@ 710caaa0     decode_table.obj
 0002:00016ab4       ??_C@_0L@PCLMIHED@vmaskmovpd@ 710caab4     decode_table.obj
 0002:00016ac0       ??_C@_0BC@OMIBDMKJ@?$CIevex_Wb?5ext?5182?$CJ@ 710caac0     decode_table.obj
 0002:00016ad4       ??_C@_09PFCGMNDI@vpermilps@ 710caad4     decode_table.obj
 0002:00016ae0       ??_C@_0BC@OHDMDLCK@?$CIevex_Wb?5ext?5247?$CJ@ 710caae0     decode_table.obj
 0002:00016af4       ??_C@_09PAKFEJKO@vpermilpd@ 710caaf4     decode_table.obj
 0002:00016b00       ??_C@_0BC@HPKEBFBG@?$CIevex_Wb?5ext?5230?$CJ@ 710cab00     decode_table.obj
 0002:00016b14       ??_C@_0L@EBGBBKJC@vperm2f128@ 710cab14     decode_table.obj
 0002:00016b20       ??_C@_0M@HPBOMOMM@vinsertf128@ 710cab20     decode_table.obj
 0002:00016b2c       ??_C@_0BC@CMHKACMD@?$CIevex_Wb?5ext?5105?$CJ@ 710cab2c     decode_table.obj
 0002:00016b40       ??_C@_0N@GHEEFFJN@vextractf128@ 710cab40     decode_table.obj
 0002:00016b50       ??_C@_0BC@CLHDKKBP@?$CIevex_Wb?5ext?5101?$CJ@ 710cab50     decode_table.obj
 0002:00016b64       ??_C@_09OGHDJNBD@vcvtps2ph@ 710cab64     decode_table.obj
 0002:00016b70       ??_C@_0BC@EPHDENPI@?$CIevex_Wb?5ext?5264?$CJ@ 710cab70     decode_table.obj
 0002:00016b84       ??_C@_0BC@OMGAHMBH@?$CIevex_Wb?5ext?5248?$CJ@ 710cab84     decode_table.obj
 0002:00016b98       ??_C@_0BC@HOGGHPCB@?$CIevex_Wb?5ext?5231?$CJ@ 710cab98     decode_table.obj
 0002:00016bac       ??_C@_04DKMKCCCI@seto@     710cabac     decode_table.obj
 0002:00016bb4       ??_C@_0BB@GFNGDKJN@?$CIprefix?5ext?5144?$CJ@ 710cabb4     decode_table.obj
 0002:00016bc8       ??_C@_05NGCIHPIH@setno@    710cabc8     decode_table.obj
 0002:00016bd0       ??_C@_0BB@GEBEFAKK@?$CIprefix?5ext?5145?$CJ@ 710cabd0     decode_table.obj
 0002:00016be4       ??_C@_04IPGEFMGF@setb@     710cabe4     decode_table.obj
 0002:00016bec       ??_C@_0BB@GGFCOOPD@?$CIprefix?5ext?5146?$CJ@ 710cabec     decode_table.obj
 0002:00016c00       ??_C@_05GDIGABMK@setnb@    710cac00     decode_table.obj
 0002:00016c08       ??_C@_0BB@GHJAIEME@?$CIprefix?5ext?5147?$CJ@ 710cac08     decode_table.obj
 0002:00016c1c       ??_C@_06JJLNOEOD@cmovno@   710cac1c     decode_table.obj
 0002:00016c24       ??_C@_0BB@GMMMMDPJ@?$CIprefix?5ext?5148?$CJ@ 710cac24     decode_table.obj
 0002:00016c38       ??_C@_05MFANGKMG@cmovb@    710cac38     decode_table.obj
 0002:00016c40       ??_C@_0BB@GNAOKJMO@?$CIprefix?5ext?5149?$CJ@ 710cac40     decode_table.obj
 0002:00016c54       ??_C@_06FEOHOKHN@cmovnp@   710cac54     decode_table.obj
 0002:00016c5c       ??_C@_0BB@NKGDPFCE@?$CIprefix?5ext?5150?$CJ@ 710cac5c     decode_table.obj
 0002:00016c70       ??_C@_05EHBGPCJP@cmovz@    710cac70     decode_table.obj
 0002:00016c78       ??_C@_0BB@NLKBJPBD@?$CIprefix?5ext?5151?$CJ@ 710cac78     decode_table.obj
 0002:00016c8c       ??_C@_06KOAIACPH@cmovnz@   710cac8c     decode_table.obj
 0002:00016c94       ??_C@_0BB@NJOHCBEK@?$CIprefix?5ext?5152?$CJ@ 710cac94     decode_table.obj
 0002:00016ca8       ??_C@_06GKEIPFAN@cmovbe@   710caca8     decode_table.obj
 0002:00016cb0       ??_C@_0BB@NICFELHN@?$CIprefix?5ext?5153?$CJ@ 710cacb0     decode_table.obj
 0002:00016cc4       ??_C@_07CJMIACJH@cmovnbe@  710cacc4     decode_table.obj
 0002:00016ccc       ??_C@_0BB@NNGKFNPI@?$CIprefix?5ext?5154?$CJ@ 710caccc     decode_table.obj
 0002:00016ce0       ??_C@_05LNPJBKBF@cmovp@    710cace0     decode_table.obj
 0002:00016ce8       ??_C@_0BB@NMKIDHMP@?$CIprefix?5ext?5155?$CJ@ 710cace8     decode_table.obj
 0002:00016cfc       ??_C@_04NMLNHPHF@sets@     710cacfc     decode_table.obj
 0002:00016d04       ??_C@_0BB@NOOOIJJG@?$CIprefix?5ext?5156?$CJ@ 710cad04     decode_table.obj
 0002:00016d18       ??_C@_05DAFPCCNK@setns@    710cad18     decode_table.obj
 0002:00016d20       ??_C@_0BB@NPCMODKB@?$CIprefix?5ext?5157?$CJ@ 710cad20     decode_table.obj
 0002:00016d34       ??_C@_0O@GLJAAHKJ@?$CIvex_W?5ext?50?$CJ@ 710cad34     decode_table.obj
 0002:00016d44       ??_C@_0BB@JJAKGBFI@?$CIevex_Wb?5ext?562?$CJ@ 710cad44     decode_table.obj
 0002:00016d58       ??_C@_0O@GKFCGNJO@?$CIvex_W?5ext?51?$CJ@ 710cad58     decode_table.obj
 0002:00016d68       ??_C@_0BB@JIMIALGP@?$CIevex_Wb?5ext?563?$CJ@ 710cad68     decode_table.obj
 0002:00016d7c       ??_C@_0O@GIBENDMH@?$CIvex_W?5ext?52?$CJ@ 710cad7c     decode_table.obj
 0002:00016d8c       ??_C@_0BB@JNIHBNOK@?$CIevex_Wb?5ext?564?$CJ@ 710cad8c     decode_table.obj
 0002:00016da0       ??_C@_0O@GJNGLJPA@?$CIvex_W?5ext?53?$CJ@ 710cada0     decode_table.obj
 0002:00016db0       ??_C@_0BB@JMEFHHNN@?$CIevex_Wb?5ext?565?$CJ@ 710cadb0     decode_table.obj
 0002:00016dc4       ??_C@_0O@GMJJKPHF@?$CIvex_W?5ext?54?$CJ@ 710cadc4     decode_table.obj
 0002:00016dd4       ??_C@_0BB@JOADMJIE@?$CIevex_Wb?5ext?566?$CJ@ 710cadd4     decode_table.obj
 0002:00016de8       ??_C@_0O@GNFLMFEC@?$CIvex_W?5ext?55?$CJ@ 710cade8     decode_table.obj
 0002:00016df8       ??_C@_0BB@JPMBKDLD@?$CIevex_Wb?5ext?567?$CJ@ 710cadf8     decode_table.obj
 0002:00016e0c       ??_C@_0O@GPBNHLBL@?$CIvex_W?5ext?56?$CJ@ 710cae0c     decode_table.obj
 0002:00016e1c       ??_C@_0BB@JEJNOEIO@?$CIevex_Wb?5ext?568?$CJ@ 710cae1c     decode_table.obj
 0002:00016e30       ??_C@_0O@GONPBBCM@?$CIvex_W?5ext?57?$CJ@ 710cae30     decode_table.obj
 0002:00016e40       ??_C@_0BB@JFFPIOLJ@?$CIevex_Wb?5ext?569?$CJ@ 710cae40     decode_table.obj
 0002:00016e54       ??_C@_0O@GFIDFGBB@?$CIvex_W?5ext?58?$CJ@ 710cae54     decode_table.obj
 0002:00016e64       ??_C@_0BB@CCDCNCFD@?$CIevex_Wb?5ext?570?$CJ@ 710cae64     decode_table.obj
 0002:00016e78       ??_C@_0O@GEEBDMCG@?$CIvex_W?5ext?59?$CJ@ 710cae78     decode_table.obj
 0002:00016e88       ??_C@_0BB@CDPALIGE@?$CIevex_Wb?5ext?571?$CJ@ 710cae88     decode_table.obj
 0002:00016e9c       ??_C@_0P@EAGMOLDK@?$CIvex_W?5ext?510?$CJ@ 710cae9c     decode_table.obj
 0002:00016eac       ??_C@_0BB@CBLGAGDN@?$CIevex_Wb?5ext?572?$CJ@ 710caeac     decode_table.obj
 0002:00016ec0       ??_C@_0P@EBKOIBAN@?$CIvex_W?5ext?511?$CJ@ 710caec0     decode_table.obj
 0002:00016ed0       ??_C@_0BB@CAHEGMAK@?$CIevex_Wb?5ext?573?$CJ@ 710caed0     decode_table.obj
 0002:00016ee4       ??_C@_0P@EDOIDPFE@?$CIvex_W?5ext?512?$CJ@ 710caee4     decode_table.obj
 0002:00016ef4       ??_C@_0BB@CFDLHKIP@?$CIevex_Wb?5ext?574?$CJ@ 710caef4     decode_table.obj
 0002:00016f08       ??_C@_0P@ECCKFFGD@?$CIvex_W?5ext?513?$CJ@ 710caf08     decode_table.obj
 0002:00016f18       ??_C@_0BB@CEPJBALI@?$CIevex_Wb?5ext?575?$CJ@ 710caf18     decode_table.obj
 0002:00016f2c       ??_C@_0P@EHGFEDOG@?$CIvex_W?5ext?514?$CJ@ 710caf2c     decode_table.obj
 0002:00016f3c       ??_C@_0BB@CGLPKOOB@?$CIevex_Wb?5ext?576?$CJ@ 710caf3c     decode_table.obj
 0002:00016f50       ??_C@_0P@EGKHCJNB@?$CIvex_W?5ext?515?$CJ@ 710caf50     decode_table.obj
 0002:00016f60       ??_C@_0BB@CHHNMENG@?$CIevex_Wb?5ext?577?$CJ@ 710caf60     decode_table.obj
 0002:00016f74       ??_C@_0P@EEOBJHII@?$CIvex_W?5ext?516?$CJ@ 710caf74     decode_table.obj
 0002:00016f84       ??_C@_0BB@CMCBIDOL@?$CIevex_Wb?5ext?578?$CJ@ 710caf84     decode_table.obj
 0002:00016f98       ??_C@_0P@EFCDPNLP@?$CIvex_W?5ext?517?$CJ@ 710caf98     decode_table.obj
 0002:00016fa8       ??_C@_0BB@CNODOJNM@?$CIevex_Wb?5ext?579?$CJ@ 710cafa8     decode_table.obj
 0002:00016fbc       ??_C@_0P@EOHPLKIC@?$CIvex_W?5ext?518?$CJ@ 710cafbc     decode_table.obj
 0002:00016fcc       ??_C@_0BB@HKFBMCAF@?$CIevex_Wb?5ext?580?$CJ@ 710cafcc     decode_table.obj
 0002:00016fe0       ??_C@_0P@EPLNNALF@?$CIvex_W?5ext?519?$CJ@ 710cafe0     decode_table.obj
 0002:00016ff0       ??_C@_0BB@HLJDKIDC@?$CIevex_Wb?5ext?581?$CJ@ 710caff0     decode_table.obj
 0002:00017004       ??_C@_0P@FCNJEENE@?$CIvex_W?5ext?520?$CJ@ 710cb004     decode_table.obj
 0002:00017014       ??_C@_0BB@HJNFBGGL@?$CIevex_Wb?5ext?582?$CJ@ 710cb014     decode_table.obj
 0002:00017028       ??_C@_0P@FDBLCOOD@?$CIvex_W?5ext?521?$CJ@ 710cb028     decode_table.obj
 0002:00017038       ??_C@_0BB@HIBHHMFM@?$CIevex_Wb?5ext?583?$CJ@ 710cb038     decode_table.obj
 0002:0001704c       ??_C@_0P@FBFNJALK@?$CIvex_W?5ext?522?$CJ@ 710cb04c     decode_table.obj
 0002:0001705c       ??_C@_0BB@HNFIGKNJ@?$CIevex_Wb?5ext?584?$CJ@ 710cb05c     decode_table.obj
 0002:00017070       ??_C@_0P@FAJPPKIN@?$CIvex_W?5ext?523?$CJ@ 710cb070     decode_table.obj
 0002:00017080       ??_C@_0BB@HMJKAAOO@?$CIevex_Wb?5ext?585?$CJ@ 710cb080     decode_table.obj
 0002:00017094       ??_C@_0P@FFNAOMAI@?$CIvex_W?5ext?524?$CJ@ 710cb094     decode_table.obj
 0002:000170a4       ??_C@_0BB@HONMLOLH@?$CIevex_Wb?5ext?586?$CJ@ 710cb0a4     decode_table.obj
 0002:000170b8       ??_C@_0P@FEBCIGDP@?$CIvex_W?5ext?525?$CJ@ 710cb0b8     decode_table.obj
 0002:000170c8       ??_C@_0BB@HPBONEIA@?$CIevex_Wb?5ext?587?$CJ@ 710cb0c8     decode_table.obj
 0002:000170dc       ??_C@_0P@FGFEDIGG@?$CIvex_W?5ext?526?$CJ@ 710cb0dc     decode_table.obj
 0002:000170ec       ??_C@_0BB@HEECJDLN@?$CIevex_Wb?5ext?588?$CJ@ 710cb0ec     decode_table.obj
 0002:00017100       ??_C@_0P@FHJGFCFB@?$CIvex_W?5ext?527?$CJ@ 710cb100     decode_table.obj
 0002:00017110       ??_C@_0BB@HFIAPJIK@?$CIevex_Wb?5ext?589?$CJ@ 710cb110     decode_table.obj
 0002:00017124       ??_C@_0P@FMMKBFGM@?$CIvex_W?5ext?528?$CJ@ 710cb124     decode_table.obj
 0002:00017134       ??_C@_0BB@MCONKFGA@?$CIevex_Wb?5ext?590?$CJ@ 710cb134     decode_table.obj
 0002:00017148       ??_C@_0P@FNAIHPFL@?$CIvex_W?5ext?529?$CJ@ 710cb148     decode_table.obj
 0002:00017158       ??_C@_0BB@MDCPMPFH@?$CIevex_Wb?5ext?591?$CJ@ 710cb158     decode_table.obj
 0002:0001716c       ??_C@_06DHHDKOKL@vpermd@   710cb16c     decode_table.obj
 0002:00017174       ??_C@_0BB@MAKLBLDJ@?$CIevex_Wb?5ext?593?$CJ@ 710cb174     decode_table.obj
 0002:00017188       ??_C@_07FOAOCIFH@vpermps@  710cb188     decode_table.obj
 0002:00017190       ??_C@_0BB@MFOEANLM@?$CIevex_Wb?5ext?594?$CJ@ 710cb190     decode_table.obj
 0002:000171a4       ??_C@_06MGEILP@vpermq@     710cb1a4     decode_table.obj
 0002:000171ac       ??_C@_0BC@FLANCAPN@?$CIevex_Wb?5ext?5251?$CJ@ 710cb1ac     decode_table.obj
 0002:000171c0       ??_C@_07FLINKMMB@vpermpd@  710cb1c0     decode_table.obj
 0002:000171c8       ??_C@_0BC@FJELJOKE@?$CIevex_Wb?5ext?5252?$CJ@ 710cb1c8     decode_table.obj
 0002:000171dc       ??_C@_0N@OFBEMCEM@vextracti128@ 710cb1dc     decode_table.obj
 0002:000171ec       ??_C@_0BC@CIPHHOHB@?$CIevex_Wb?5ext?5103?$CJ@ 710cb1ec     decode_table.obj
 0002:00017200       ??_C@_0M@PNEOFJBN@vinserti128@ 710cb200     decode_table.obj
 0002:0001720c       ??_C@_0BC@CPPONGKN@?$CIevex_Wb?5ext?5107?$CJ@ 710cb20c     decode_table.obj
 0002:00017220       ??_C@_08HANBBCNB@blendvpd@ 710cb220     decode_table.obj
 0002:0001722c       ??_C@_0BB@MGMFALHC@?$CIprefix?5ext?5168?$CJ@ 710cb22c     decode_table.obj
 0002:00017240       ??_C@_08HFFCJGEH@blendvps@ 710cb240     decode_table.obj
 0002:0001724c       ??_C@_0BB@MOBNJICB@?$CIprefix?5ext?5165?$CJ@ 710cb24c     decode_table.obj
 0002:00017260       ??_C@_07MAFJIOEN@vpsravd@  710cb260     decode_table.obj
 0002:00017268       ??_C@_0BC@IOKLFJBL@?$CIevex_Wb?5ext?5128?$CJ@ 710cb268     decode_table.obj
 0002:0001727c       ??_C@_08PKEFIDIF@pblendvb@ 710cb27c     decode_table.obj
 0002:00017288       ??_C@_0BB@HFCFCLCK@?$CIprefix?5ext?5177?$CJ@ 710cb288     decode_table.obj
 0002:0001729c       ??_C@_0P@GGIDGAII@?$CIvex_W?5ext?572?$CJ@ 710cb29c     decode_table.obj
 0002:000172ac       ??_C@_0BC@IPGJDDCM@?$CIevex_Wb?5ext?5129?$CJ@ 710cb2ac     decode_table.obj
 0002:000172c0       ??_C@_0P@GHEBAKLP@?$CIvex_W?5ext?573?$CJ@ 710cb2c0     decode_table.obj
 0002:000172d0       ??_C@_0BC@DJMGAFPB@?$CIevex_Wb?5ext?5131?$CJ@ 710cb2d0     decode_table.obj
 0002:000172e4       ??_C@_0N@IDDNICPI@vpbroadcastb@ 710cb2e4     decode_table.obj
 0002:000172f4       ??_C@_0N@LEIIGEOM@vpbroadcastw@ 710cb2f4     decode_table.obj
 0002:00017304       ??_C@_0N@NFGHCFHO@vpbroadcastd@ 710cb304     decode_table.obj
 0002:00017314       ??_C@_0N@OCNCMDGK@vpbroadcastq@ 710cb314     decode_table.obj
 0002:00017324       ??_C@_0BC@BOOLOEHE@?$CIevex_Wb?5ext?5152?$CJ@ 710cb324     decode_table.obj
 0002:00017338       ??_C@_0P@HAFIPBFO@vbroadcasti128@ 710cb338     decode_table.obj
 0002:00017348       ??_C@_0BC@BPCJIOED@?$CIevex_Wb?5ext?5153?$CJ@ 710cb348     decode_table.obj
 0002:0001735c       ??_C@_0P@NJDGKPDB@?$CIvex_W?5ext?566?$CJ@ 710cb35c     decode_table.obj
 0002:0001736c       ??_C@_0BC@OANENDEI@?$CIevex_Wb?5ext?5189?$CJ@ 710cb36c     decode_table.obj
 0002:00017380       ??_C@_0P@NIPEMFAG@?$CIvex_W?5ext?567?$CJ@ 710cb380     decode_table.obj
 0002:00017390       ??_C@_0BC@FHLJIPKC@?$CIevex_Wb?5ext?5190?$CJ@ 710cb390     decode_table.obj
 0002:000173a4       ??_C@_0P@NDKIICDL@?$CIvex_W?5ext?568?$CJ@ 710cb3a4     decode_table.obj
 0002:000173b4       ??_C@_0BC@FGHLOFJF@?$CIevex_Wb?5ext?5191?$CJ@ 710cb3b4     decode_table.obj
 0002:000173c8       ??_C@_0P@NCGKOIAM@?$CIvex_W?5ext?569?$CJ@ 710cb3c8     decode_table.obj
 0002:000173d8       ??_C@_0BC@FEDNFLMM@?$CIevex_Wb?5ext?5192?$CJ@ 710cb3d8     decode_table.obj
 0002:000173ec       ??_C@_08IJPBAJEM@sha1msg2@ 710cb3ec     decode_table.obj
 0002:000173f8       ??_C@_0BC@DPANMHBK@?$CIevex_Wb?5ext?5134?$CJ@ 710cb3f8     decode_table.obj
 0002:0001740c       ??_C@_09HCDAMFGH@sha1nexte@ 710cb40c     decode_table.obj
 0002:00017418       ??_C@_0BC@OJMOCKCM@?$CIevex_Wb?5ext?5185?$CJ@ 710cb418     decode_table.obj
 0002:0001742c       ??_C@_0M@GKPONAEI@sha256rnds2@ 710cb42c     decode_table.obj
 0002:00017438       ??_C@_0BC@DOMPKNCN@?$CIevex_Wb?5ext?5135?$CJ@ 710cb438     decode_table.obj
 0002:0001744c       ??_C@_0L@GONPHFO@sha256msg1@ 710cb44c     decode_table.obj
 0002:00017458       ??_C@_0BC@LILHMDBO@?$CIevex_Wb?5ext?5179?$CJ@ 710cb458     decode_table.obj
 0002:0001746c       ??_C@_0L@CNMAKEJN@sha256msg2@ 710cb46c     decode_table.obj
 0002:00017478       ??_C@_0BC@OPAFOIMH@?$CIevex_Wb?5ext?5180?$CJ@ 710cb478     decode_table.obj
 0002:0001748c       ??_C@_0BA@CJEBNFCI@?$CIvex_W?5ext?5110?$CJ@ 710cb48c     decode_table.obj
 0002:0001749c       ??_C@_0BC@ENDFPDKB@?$CIevex_Wb?5ext?5267?$CJ@ 710cb49c     decode_table.obj
 0002:000174b0       ??_C@_0BA@CIIDLPBP@?$CIvex_W?5ext?5111?$CJ@ 710cb4b0     decode_table.obj
 0002:000174c0       ??_C@_0BC@EGGJLEJM@?$CIevex_Wb?5ext?5268?$CJ@ 710cb4c0     decode_table.obj
 0002:000174d4       ??_C@_0BA@CKMFABEG@?$CIvex_W?5ext?5112?$CJ@ 710cb4d4     decode_table.obj
 0002:000174e4       ??_C@_0BC@EHKLNOKL@?$CIevex_Wb?5ext?5269?$CJ@ 710cb4e4     decode_table.obj
 0002:000174f8       ??_C@_0BA@CLAHGLHB@?$CIvex_W?5ext?5113?$CJ@ 710cb4f8     decode_table.obj
 0002:00017508       ??_C@_0BC@PAMGICEB@?$CIevex_Wb?5ext?5270?$CJ@ 710cb508     decode_table.obj
 0002:0001751c       ??_C@_04CFNDICEJ@sgdt@     710cb51c     decode_table.obj
 0002:00017524       ??_C@_0BJ@FNJOCGHC@?$CIgroup?57?5mod?5?$CL?5rm?5ext?50?$CJ@ 710cb524     decode_table.obj
 0002:00017540       ??_C@_04MFAMPFHK@sidt@     710cb540     decode_table.obj
 0002:00017548       ??_C@_0BJ@FMFMEMEF@?$CIgroup?57?5mod?5?$CL?5rm?5ext?51?$CJ@ 710cb548     decode_table.obj
 0002:00017564       ??_C@_06DHGMIPHJ@invlpg@   710cb564     decode_table.obj
 0002:0001756c       ??_C@_0BJ@FOBKPCBM@?$CIgroup?57?5mod?5?$CL?5rm?5ext?52?$CJ@ 710cb56c     decode_table.obj
 0002:00017588       ??_C@_07KNLCLAFM@clflush@  710cb588     decode_table.obj
 0002:00017590       ??_C@_06LJIOJEOG@sfence@   710cb590     decode_table.obj
 0002:00017598       ??_C@_04CHLMPFCJ@lidt@     710cb598     decode_table.obj
 0002:000175a0       ??_C@_0BJ@FPNIJICL@?$CIgroup?57?5mod?5?$CL?5rm?5ext?53?$CJ@ 710cb5a0     decode_table.obj
 0002:000175bc       ??_C@_04MHGDICBK@lgdt@     710cb5bc     decode_table.obj
 0002:000175c4       ??_C@_0BJ@FKJHIOKO@?$CIgroup?57?5mod?5?$CL?5rm?5ext?54?$CJ@ 710cb5c4     decode_table.obj
 0002:000175e0       ??_C@_0O@DCBFLPGD@?$CIrex?4w?5ext?53?$CJ@ 710cb5e0     decode_table.obj
 0002:000175f0       ??_C@_06CIBIHIMB@lfence@   710cb5f0     decode_table.obj
 0002:000175f8       ??_C@_0O@DHFKKJOG@?$CIrex?4w?5ext?54?$CJ@ 710cb5f8     decode_table.obj
 0002:00017608       ??_C@_06IOGPHDHF@mfence@   710cb608     decode_table.obj
 0002:00017610       ??_C@_06FONCDKPE@vmovss@   710cb610     decode_table.obj
 0002:00017618       ??_C@_06FLFBLOGC@vmovsd@   710cb618     decode_table.obj
 0002:00017620       ??_C@_0BB@PKEHLMHN@?$CIprefix?5ext?5137?$CJ@ 710cb620     decode_table.obj
 0002:00017634       ??_C@_06MJFBMHIP@rdrand@   710cb634     decode_table.obj
 0002:0001763c       ??_C@_07MBCBNMIG@vmptrst@  710cb63c     decode_table.obj
 0002:00017644       ??_C@_06HHAGJGIJ@rdseed@   710cb644     decode_table.obj
 0002:0001764c       ??_C@_0O@DAFDABDK@?$CIrex?4w?5ext?50?$CJ@ 710cb64c     decode_table.obj
 0002:0001765c       ??_C@_08NIIHFFFD@rdfsbase@ 710cb65c     decode_table.obj
 0002:00017668       ??_C@_0O@DBJBGLAN@?$CIrex?4w?5ext?51?$CJ@ 710cb668     decode_table.obj
 0002:00017678       ??_C@_08HOPAFOOH@rdgsbase@ 710cb678     decode_table.obj
 0002:00017684       ??_C@_0P@GGCOLDNB@?$CIe_vex?5ext?561?$CJ@ 710cb684     decode_table.obj
 0002:00017694       ??_C@_08CIMECILA@wrfsbase@ 710cb694     decode_table.obj
 0002:000176a0       ??_C@_0P@GEGIANII@?$CIe_vex?5ext?562?$CJ@ 710cb6a0     decode_table.obj
 0002:000176b0       ??_C@_08IOLDCDAE@wrgsbase@ 710cb6b0     decode_table.obj
 0002:000176bc       ??_C@_09HMLBFODM@vcvtps2qq@ 710cb6bc     decode_table.obj
 0002:000176c8       ??_C@_09KOHBBFKO@vcvtpd2qq@ 710cb6c8     decode_table.obj
 0002:000176d4       ??_C@_0L@IMLIHDKC@vcvtps2udq@ 710cb6d4     decode_table.obj
 0002:000176e0       ??_C@_0L@JCGLEBIB@vcvtpd2udq@ 710cb6e0     decode_table.obj
 0002:000176ec       ??_C@_0L@JGFFBCDJ@vcvtps2uqq@ 710cb6ec     decode_table.obj
 0002:000176f8       ??_C@_0L@IIIGCABK@vcvtpd2uqq@ 710cb6f8     decode_table.obj
 0002:00017704       ??_C@_0M@GHENCKJG@vcvttps2udq@ 710cb704     decode_table.obj
 0002:00017710       ??_C@_0M@HJJOBILF@vcvttpd2udq@ 710cb710     decode_table.obj
 0002:0001771c       ??_C@_0L@IHNOFFPJ@vcvttps2qq@ 710cb71c     decode_table.obj
 0002:00017728       ??_C@_0L@FFBOBOGL@vcvttpd2qq@ 710cb728     decode_table.obj
 0002:00017734       ??_C@_0M@HNKAELAN@vcvttps2uqq@ 710cb734     decode_table.obj
 0002:00017740       ??_C@_0M@GDHDHJCO@vcvttpd2uqq@ 710cb740     decode_table.obj
 0002:0001774c       ??_C@_09PONJNGEM@vcvtqq2ps@ 710cb74c     decode_table.obj
 0002:00017758       ??_C@_09PLFKFCNK@vcvtqq2pd@ 710cb758     decode_table.obj
 0002:00017764       ??_C@_0L@PANKEFBF@vcvtudq2ps@ 710cb764     decode_table.obj
 0002:00017770       ??_C@_0L@KDMBNGDN@vcvtuqq2ps@ 710cb770     decode_table.obj
 0002:0001777c       ??_C@_0L@KGECFCKL@vcvtuqq2pd@ 710cb77c     decode_table.obj
 0002:00017788       ??_C@_0M@JAADPJHO@vfmadd132ps@ 710cb788     decode_table.obj
 0002:00017794       ??_C@_0M@JFIAHNOI@vfmadd132pd@ 710cb794     decode_table.obj
 0002:000177a0       ??_C@_0M@NEOLLPNF@vfmadd213ps@ 710cb7a0     decode_table.obj
 0002:000177ac       ??_C@_0M@NBGIDLED@vfmadd213pd@ 710cb7ac     decode_table.obj
 0002:000177b8       ??_C@_0M@ECCCEDO@vfmadd231ps@ 710cb7b8     decode_table.obj
 0002:000177c4       ??_C@_0M@BKBKAKI@vfmadd231pd@ 710cb7c4     decode_table.obj
 0002:000177d0       ??_C@_0P@KIGNLEBH@vfmaddsub132ps@ 710cb7d0     decode_table.obj
 0002:000177e0       ??_C@_0P@KNOODAIB@vfmaddsub132pd@ 710cb7e0     decode_table.obj
 0002:000177f0       ??_C@_0P@OMIFPCLM@vfmaddsub213ps@ 710cb7f0     decode_table.obj
 0002:00017800       ??_C@_0P@OJAGHGCK@vfmaddsub213pd@ 710cb800     decode_table.obj
 0002:00017810       ??_C@_0P@DMEMGJFH@vfmaddsub231ps@ 710cb810     decode_table.obj
 0002:00017820       ??_C@_0P@DJMPONMB@vfmaddsub231pd@ 710cb820     decode_table.obj
 0002:00017830       ??_C@_0P@HLNPMCEA@vfmsubadd132ps@ 710cb830     decode_table.obj
 0002:00017840       ??_C@_0P@HOFMEGNG@vfmsubadd132pd@ 710cb840     decode_table.obj
 0002:00017850       ??_C@_0P@DPDHIEOL@vfmsubadd213ps@ 710cb850     decode_table.obj
 0002:00017860       ??_C@_0P@DKLEAAHN@vfmsubadd213pd@ 710cb860     decode_table.obj
 0002:00017870       ??_C@_0P@OPPOBPAA@vfmsubadd231ps@ 710cb870     decode_table.obj
 0002:00017880       ??_C@_0P@OKHNJLJG@vfmsubadd231pd@ 710cb880     decode_table.obj
 0002:00017890       ??_C@_0M@MBPEJHAG@vfmsub132ps@ 710cb890     decode_table.obj
 0002:0001789c       ??_C@_0M@MEHHBDJA@vfmsub132pd@ 710cb89c     decode_table.obj
 0002:000178a8       ??_C@_0M@IFBMNBKN@vfmsub213ps@ 710cb8a8     decode_table.obj
 0002:000178b4       ??_C@_0M@IAJPFFDL@vfmsub213pd@ 710cb8b4     decode_table.obj
 0002:000178c0       ??_C@_0M@FFNFEKEG@vfmsub231ps@ 710cb8c0     decode_table.obj
 0002:000178cc       ??_C@_0M@FAFGMONA@vfmsub231pd@ 710cb8cc     decode_table.obj
 0002:000178d8       ??_C@_0N@EIGINGHD@vfnmadd132ps@ 710cb8d8     decode_table.obj
 0002:000178e8       ??_C@_0N@ENOLFCOF@vfnmadd132pd@ 710cb8e8     decode_table.obj
 0002:000178f8       ??_C@_0N@MIAJANI@vfnmadd213ps@ 710cb8f8     decode_table.obj
 0002:00017908       ??_C@_0N@JADBEEO@vfnmadd213pd@ 710cb908     decode_table.obj
 0002:00017918       ??_C@_0N@NMEJALDD@vfnmadd231ps@ 710cb918     decode_table.obj
 0002:00017928       ??_C@_0N@NJMKIPKF@vfnmadd231pd@ 710cb928     decode_table.obj
 0002:00017938       ??_C@_0N@BJJPLIAL@vfnmsub132ps@ 710cb938     decode_table.obj
 0002:00017948       ??_C@_0N@BMBMDMJN@vfnmsub132pd@ 710cb948     decode_table.obj
 0002:00017958       ??_C@_0N@FNHHPOKA@vfnmsub213ps@ 710cb958     decode_table.obj
 0002:00017968       ??_C@_0N@FIPEHKDG@vfnmsub213pd@ 710cb968     decode_table.obj
 0002:00017978       ??_C@_0N@INLOGFEL@vfnmsub231ps@ 710cb978     decode_table.obj
 0002:00017988       ??_C@_0N@IIDNOBNN@vfnmsub231pd@ 710cb988     decode_table.obj
 0002:00017998       ??_C@_08HLNLOFJH@vrcp28ps@ 710cb998     decode_table.obj
 0002:000179a4       ??_C@_08HOFIGBAB@vrcp28pd@ 710cb9a4     decode_table.obj
 0002:000179b0       ??_C@_0M@EOJLMAIC@vfixupimmps@ 710cb9b0     decode_table.obj
 0002:000179bc       ??_C@_0M@ELBIEEBE@vfixupimmpd@ 710cb9bc     decode_table.obj
 0002:000179c8       ??_C@_09PFELADMC@vgetexpps@ 710cb9c8     decode_table.obj
 0002:000179d4       ??_C@_09PAMIIHFE@vgetexppd@ 710cb9d4     decode_table.obj
 0002:000179e0       ??_C@_0L@DEEPNPHD@vgetmantps@ 710cb9e0     decode_table.obj
 0002:000179ec       ??_C@_0L@DBMMFLOF@vgetmantpd@ 710cb9ec     decode_table.obj
 0002:000179f8       ??_C@_08BMAMAAJB@vrangeps@ 710cb9f8     decode_table.obj
 0002:00017a04       ??_C@_08BJIPIEAH@vrangepd@ 710cba04     decode_table.obj
 0002:00017a10       ??_C@_09HODJLJH@vreduceps@ 710cba10     decode_table.obj
 0002:00017a1c       ??_C@_09CGABPAB@vreducepd@ 710cba1c     decode_table.obj
 0002:00017a28       ??_C@_0L@IMFOBKAA@vrsqrt28ps@ 710cba28     decode_table.obj
 0002:00017a34       ??_C@_0L@IJNNJOJG@vrsqrt28pd@ 710cba34     decode_table.obj
 0002:00017a40       ??_C@_09DNODKAOJ@vscalefps@ 710cba40     decode_table.obj
 0002:00017a4c       ??_C@_09DIGACEHP@vscalefpd@ 710cba4c     decode_table.obj
 0002:00017a58       ??_C@_07DNAOMGOP@vexp2ps@  710cba58     decode_table.obj
 0002:00017a60       ??_C@_07DIINECHJ@vexp2pd@  710cba60     decode_table.obj
 0002:00017a68       ??_C@_0M@HMECNBDB@vrndscaleps@ 710cba68     decode_table.obj
 0002:00017a74       ??_C@_0M@HJMBFFKH@vrndscalepd@ 710cba74     decode_table.obj
 0002:00017a80       ??_C@_0BJ@FLFFOEJJ@?$CIgroup?57?5mod?5?$CL?5rm?5ext?55?$CJ@ 710cba80     decode_table.obj
 0002:00017a9c       ??_C@_05CBDNLNEA@enclv@    710cba9c     decode_table.obj
 0002:00017aa4       ??_C@_06IMMMFCAA@vmcall@   710cbaa4     decode_table.obj
 0002:00017aac       ??_C@_08FDGBGFFD@vmlaunch@ 710cbaac     decode_table.obj
 0002:00017ab8       ??_C@_08EIHJLGKP@vmresume@ 710cbab8     decode_table.obj
 0002:00017ac4       ??_C@_06IMFLOOPM@vmxoff@   710cbac4     decode_table.obj
 0002:00017acc       ??_C@_07LAMOHCEE@monitor@  710cbacc     decode_table.obj
 0002:00017ad4       ??_C@_05DOGKKCDM@mwait@    710cbad4     decode_table.obj
 0002:00017adc       ??_C@_05FMEKEJAF@encls@    710cbadc     decode_table.obj
 0002:00017ae4       ??_C@_06CPNDNOLP@swapgs@   710cbae4     decode_table.obj
 0002:00017aec       ??_C@_06JKHHOJDN@rdtscp@   710cbaec     decode_table.obj
 0002:00017af4       ??_C@_08JGOHLIAF@monitorx@ 710cbaf4     decode_table.obj
 0002:00017b00       ??_C@_06MILHOFNL@mwaitx@   710cbb00     decode_table.obj
 0002:00017b08       ??_C@_05JKJGIHPJ@vmrun@    710cbb08     decode_table.obj
 0002:00017b10       ??_C@_07HLGEACDE@vmmcall@  710cbb10     decode_table.obj
 0002:00017b18       ??_C@_06COECKLLJ@vmload@   710cbb18     decode_table.obj
 0002:00017b20       ??_C@_06CMFPFIGN@vmsave@   710cbb20     decode_table.obj
 0002:00017b28       ??_C@_04JKFFKIHN@stgi@     710cbb28     decode_table.obj
 0002:00017b30       ??_C@_04GPBIEAIP@clgi@     710cbb30     decode_table.obj
 0002:00017b38       ??_C@_06JOKOMMPP@skinit@   710cbb38     decode_table.obj
 0002:00017b40       ??_C@_07FFAIPPPB@invlpga@  710cbb40     decode_table.obj
 0002:00017b48       ??_C@_06CPFMIPOH@xgetbv@   710cbb48     decode_table.obj
 0002:00017b50       ??_C@_06LHBLMPGK@xsetbv@   710cbb50     decode_table.obj
 0002:00017b58       ??_C@_06BPELNFBJ@vmfunc@   710cbb58     decode_table.obj
 0002:00017b60       ??_C@_04LPFPOMFE@xend@     710cbb60     decode_table.obj
 0002:00017b68       ??_C@_05LEACPKDF@xtest@    710cbb68     decode_table.obj
 0002:00017b70       ??_C@_05KBAOOID@enclu@     710cbb70     decode_table.obj
 0002:00017b78       ??_C@_06JKMJANIP@rdpkru@   710cbb78     decode_table.obj
 0002:00017b80       ??_C@_06BNHOMDKO@wrpkru@   710cbb80     decode_table.obj
 0002:00017b88       ??_C@_03LGHHLCMB@rex@      710cbb88     decode_table.obj
 0002:00017b8c       ??_C@_05JCJGOABH@rex?4b@   710cbb8c     decode_table.obj
 0002:00017b94       ??_C@_05CCLLBKMM@rex?4x@   710cbb94     decode_table.obj
 0002:00017b9c       ??_C@_06MFDLDMKE@rex?4xb@  710cbb9c     decode_table.obj
 0002:00017ba4       ??_C@_05NIFEPCEG@rex?4r@   710cbba4     decode_table.obj
 0002:00017bac       ??_C@_06MIKMLJHC@rex?4rb@  710cbbac     decode_table.obj
 0002:00017bb4       ??_C@_06HIIBEDKJ@rex?4rx@  710cbbb4     decode_table.obj
 0002:00017bbc       ??_C@_07PILJJDCK@rex?4rxb@ 710cbbbc     decode_table.obj
 0002:00017bc4       ??_C@_05KFCDAGAD@rex?4w@   710cbbc4     decode_table.obj
 0002:00017bcc       ??_C@_06MOGHHLJJ@rex?4wb@  710cbbcc     decode_table.obj
 0002:00017bd4       ??_C@_06HOEKIBEC@rex?4wx@  710cbbd4     decode_table.obj
 0002:00017bdc       ??_C@_07MPGHGDBI@rex?4wxb@ 710cbbdc     decode_table.obj
 0002:00017be4       ??_C@_06IEKFGJMI@rex?4wr@  710cbbe4     decode_table.obj
 0002:00017bec       ??_C@_07MCPAOGMO@rex?4wrb@ 710cbbec     decode_table.obj
 0002:00017bf4       ??_C@_07HCNNBMBF@rex?4wrx@ 710cbbf4     decode_table.obj
 0002:00017bfc       ??_C@_08DKGEDANC@rex?4wrxb@ 710cbbfc     decode_table.obj
 0002:00017c08       ??_C@_04MBAAHCPD@arpl@     710cbc08     decode_table.obj
 0002:00017c10       ??_C@_06CFDLDNHN@movsxd@   710cbc10     decode_table.obj
 0002:00017c18       ??_C@_03OFEFELKG@les@      710cbc18     decode_table.obj
 0002:00017c1c       ??_C@_06HLKHOAJD@vex?$CL2b@ 710cbc1c     decode_table.obj
 0002:00017c24       ??_C@_03OEIHCBJB@lds@      710cbc24     decode_table.obj
 0002:00017c28       ??_C@_06HJOBFOMK@vex?$CL1b@ 710cbc28     decode_table.obj
 0002:00017c30       ??_C@_0L@HLDONIFG@?$CIgroup?51d?$CJ@ 710cbc30     decode_table.obj
 0002:00017c3c       ??_C@_03BMIEFNHL@xop@      710cbc3c     decode_table.obj
 0002:00017c40       ??_C@_04OFFOKNEH@emms@     710cbc40     decode_table.obj
 0002:00017c48       ??_C@_0L@HMOMGDGG@vzeroupper@ 710cbc48     decode_table.obj
 0002:00017c54       ??_C@_08CIMGHFML@vzeroall@ 710cbc54     decode_table.obj
 0002:00017c60       ??_C@_05PFKAILG@bound@     710cbc60     decode_table.obj
 0002:00017c68       ??_C@_0O@IPFIICCG@?$CIevex?5prefix?$CJ@ 710cbc68     decode_table.obj
 0002:00017c78       ??_C@_06BIJKFHIL@fxsave@   710cbc78     decode_table.obj
 0002:00017c80       ??_C@_08LGLEPHJI@fxsave64@ 710cbc80     decode_table.obj
 0002:00017c8c       ??_C@_07BBJJIBJB@fxrstor@  710cbc8c     decode_table.obj
 0002:00017c94       ??_C@_09GJCJHDKB@fxrstor64@ 710cbc94     decode_table.obj
 0002:00017ca0       ??_C@_05NMFCFAIJ@xsave@    710cbca0     decode_table.obj
 0002:00017ca8       ??_C@_07BKOGMEHB@xsave64@  710cbca8     decode_table.obj
 0002:00017cb0       ??_C@_06PPFDCILK@xrstor@   710cbcb0     decode_table.obj
 0002:00017cb8       ??_C@_08LAFDHLEO@xrstor64@ 710cbcb8     decode_table.obj
 0002:00017cc4       ??_C@_08KNNNHOKI@xsaveopt@ 710cbcc4     decode_table.obj
 0002:00017cd0       ??_C@_0L@EKKPKNNC@xsaveopt64@ 710cbcd0     decode_table.obj
 0002:00017cdc       ??_C@_06NKGIFBLA@xsavec@   710cbcdc     decode_table.obj
 0002:00017ce4       ??_C@_08GDGFHPGH@xsavec64@ 710cbce4     decode_table.obj
 0002:00017cf0       ??_C@_0BB@FLBCDDML@?$CIprefix?5ext?5118?$CJ@ 710cbcf0     decode_table.obj
 0002:00017d04       ??_C@_0BB@FKNAFJPM@?$CIprefix?5ext?5119?$CJ@ 710cbd04     decode_table.obj
 0002:00017d18       ??_C@_0BB@EHLEMNJN@?$CIprefix?5ext?5120?$CJ@ 710cbd18     decode_table.obj
 0002:00017d2c       ??_C@_0BB@EGHGKHKK@?$CIprefix?5ext?5121?$CJ@ 710cbd2c     decode_table.obj
 0002:00017d40       ??_C@_0BB@EEDABJPD@?$CIprefix?5ext?5122?$CJ@ 710cbd40     decode_table.obj
 0002:00017d54       ??_C@_0BB@EFPCHDME@?$CIprefix?5ext?5123?$CJ@ 710cbd54     decode_table.obj
 0002:00017d68       ??_C@_0BB@EALNGFEB@?$CIprefix?5ext?5124?$CJ@ 710cbd68     decode_table.obj
 0002:00017d7c       ??_C@_0BB@EBHPAPHG@?$CIprefix?5ext?5125?$CJ@ 710cbd7c     decode_table.obj
 0002:00017d90       ??_C@_0BB@EDDJLBCP@?$CIprefix?5ext?5126?$CJ@ 710cbd90     decode_table.obj
 0002:00017da4       ??_C@_0BB@ECPLNLBI@?$CIprefix?5ext?5127?$CJ@ 710cbda4     decode_table.obj
 0002:00017db8       ??_C@_0BB@EJKHJMCF@?$CIprefix?5ext?5128?$CJ@ 710cbdb8     decode_table.obj
 0002:00017dcc       ??_C@_0BB@EIGFPGBC@?$CIprefix?5ext?5129?$CJ@ 710cbdcc     decode_table.obj
 0002:00017de0       ??_C@_0BB@PPAIKKPI@?$CIprefix?5ext?5130?$CJ@ 710cbde0     decode_table.obj
 0002:00017df4       ??_C@_0BB@POMKMAMP@?$CIprefix?5ext?5131?$CJ@ 710cbdf4     decode_table.obj
 0002:00017e08       ??_C@_0BB@PMIMHOJG@?$CIprefix?5ext?5132?$CJ@ 710cbe08     decode_table.obj
 0002:00017e1c       ??_C@_0BA@LNKOALBA@?$CIe_vex?5ext?5132?$CJ@ 710cbe1c     decode_table.obj
 0002:00017e2c       ??_C@_0BA@LOCKNPHO@?$CIe_vex?5ext?5130?$CJ@ 710cbe2c     decode_table.obj
 0002:00017e3c       ??_C@_0BA@JEHIDJE@?$CIe_vex?5ext?5129?$CJ@ 710cbe3c     decode_table.obj
 0002:00017e4c       ??_C@_0O@OOOKNJAE@?$CIe_vex?5ext?53?$CJ@ 710cbe4c     decode_table.obj
 0002:00017e5c       ??_C@_0P@BFJHHJHJ@?$CIe_vex?5ext?5?54?$CJ@ 710cbe5c     decode_table.obj
 0002:00017e6c       ??_C@_0P@BEFFBDEO@?$CIe_vex?5ext?5?55?$CJ@ 710cbe6c     decode_table.obj
 0002:00017e7c       ??_C@_0P@BGBDKNBH@?$CIe_vex?5ext?5?56?$CJ@ 710cbe7c     decode_table.obj
 0002:00017e8c       ??_C@_0P@BHNBMHCA@?$CIe_vex?5ext?5?57?$CJ@ 710cbe8c     decode_table.obj
 0002:00017e9c       ??_C@_0P@BMINIABN@?$CIe_vex?5ext?5?58?$CJ@ 710cbe9c     decode_table.obj
 0002:00017eac       ??_C@_0P@BNEPOKCK@?$CIe_vex?5ext?5?59?$CJ@ 710cbeac     decode_table.obj
 0002:00017ebc       ??_C@_0P@PKDLOBFP@?$CIe_vex?5ext?510?$CJ@ 710cbebc     decode_table.obj
 0002:00017ecc       ??_C@_0P@PLPJILGI@?$CIe_vex?5ext?511?$CJ@ 710cbecc     decode_table.obj
 0002:00017edc       ??_C@_0P@PJLPDFDB@?$CIe_vex?5ext?512?$CJ@ 710cbedc     decode_table.obj
 0002:00017eec       ??_C@_0P@PIHNFPAG@?$CIe_vex?5ext?513?$CJ@ 710cbeec     decode_table.obj
 0002:00017efc       ??_C@_0P@PNDCEJID@?$CIe_vex?5ext?514?$CJ@ 710cbefc     decode_table.obj
 0002:00017f0c       ??_C@_0P@PMPACDLE@?$CIe_vex?5ext?515?$CJ@ 710cbf0c     decode_table.obj
 0002:00017f1c       ??_C@_0P@POLGJNON@?$CIe_vex?5ext?516?$CJ@ 710cbf1c     decode_table.obj
 0002:00017f2c       ??_C@_0P@PPHEPHNK@?$CIe_vex?5ext?517?$CJ@ 710cbf2c     decode_table.obj
 0002:00017f3c       ??_C@_0P@PECILAOH@?$CIe_vex?5ext?518?$CJ@ 710cbf3c     decode_table.obj
 0002:00017f4c       ??_C@_0P@PFOKNKNA@?$CIe_vex?5ext?519?$CJ@ 710cbf4c     decode_table.obj
 0002:00017f5c       ??_C@_0P@OIIOEOLB@?$CIe_vex?5ext?520?$CJ@ 710cbf5c     decode_table.obj
 0002:00017f6c       ??_C@_0P@OJEMCEIG@?$CIe_vex?5ext?521?$CJ@ 710cbf6c     decode_table.obj
 0002:00017f7c       ??_C@_0P@OLAKJKNP@?$CIe_vex?5ext?522?$CJ@ 710cbf7c     decode_table.obj
 0002:00017f8c       ??_C@_0P@OKMIPAOI@?$CIe_vex?5ext?523?$CJ@ 710cbf8c     decode_table.obj
 0002:00017f9c       ??_C@_0P@OPIHOGGN@?$CIe_vex?5ext?524?$CJ@ 710cbf9c     decode_table.obj
 0002:00017fac       ??_C@_0P@OOEFIMFK@?$CIe_vex?5ext?525?$CJ@ 710cbfac     decode_table.obj
 0002:00017fbc       ??_C@_0P@OMADDCAD@?$CIe_vex?5ext?526?$CJ@ 710cbfbc     decode_table.obj
 0002:00017fcc       ??_C@_0P@ONMBFIDE@?$CIe_vex?5ext?527?$CJ@ 710cbfcc     decode_table.obj
 0002:00017fdc       ??_C@_0P@OGJNBPAJ@?$CIe_vex?5ext?528?$CJ@ 710cbfdc     decode_table.obj
 0002:00017fec       ??_C@_0P@OHFPHFDO@?$CIe_vex?5ext?529?$CJ@ 710cbfec     decode_table.obj
 0002:00017ffc       ??_C@_0P@FADCCJNE@?$CIe_vex?5ext?530?$CJ@ 710cbffc     decode_table.obj
 0002:0001800c       ??_C@_0BB@PBBLPLEA@?$CIprefix?5ext?5138?$CJ@ 710cc00c     decode_table.obj
 0002:00018020       ??_C@_0BB@PANJJBHH@?$CIprefix?5ext?5139?$CJ@ 710cc020     decode_table.obj
 0002:00018034       ??_C@_06CLILIBGB@invept@   710cc034     decode_table.obj
 0002:0001803c       ??_C@_07ILBKJJN@invvpid@   710cc03c     decode_table.obj
 0002:00018044       ??_C@_0P@FBPAEDOD@?$CIe_vex?5ext?531?$CJ@ 710cc044     decode_table.obj
 0002:00018054       ??_C@_0P@FDLGPNLK@?$CIe_vex?5ext?532?$CJ@ 710cc054     decode_table.obj
 0002:00018064       ??_C@_0P@FCHEJHIN@?$CIe_vex?5ext?533?$CJ@ 710cc064     decode_table.obj
 0002:00018074       ??_C@_0P@FHDLIBAI@?$CIe_vex?5ext?534?$CJ@ 710cc074     decode_table.obj
 0002:00018084       ??_C@_0P@FGPJOLDP@?$CIe_vex?5ext?535?$CJ@ 710cc084     decode_table.obj
 0002:00018094       ??_C@_0P@HKIIENIH@?$CIe_vex?5ext?559?$CJ@ 710cc094     decode_table.obj
 0002:000180a4       ??_C@_0P@GHOMNJOG@?$CIe_vex?5ext?560?$CJ@ 710cc0a4     decode_table.obj
 0002:000180b4       ??_C@_0P@DAFOPCDP@?$CIe_vex?5ext?599?$CJ@ 710cc0b4     decode_table.obj
 0002:000180c4       ??_C@_0BA@KPBLKEPO@?$CIe_vex?5ext?5102?$CJ@ 710cc0c4     decode_table.obj
 0002:000180d4       ??_C@_0P@DNMJHHOJ@?$CIe_vex?5ext?593?$CJ@ 710cc0d4     decode_table.obj
 0002:000180e4       ??_C@_0P@DLACLFAC@?$CIe_vex?5ext?596?$CJ@ 710cc0e4     decode_table.obj
 0002:000180f4       ??_C@_0BA@KKFELCHL@?$CIe_vex?5ext?5105?$CJ@ 710cc0f4     decode_table.obj
 0002:00018104       ??_C@_0BA@KCIMCBCI@?$CIe_vex?5ext?5108?$CJ@ 710cc104     decode_table.obj
 0002:00018114       ??_C@_0BA@BFOBHNMC@?$CIe_vex?5ext?5111?$CJ@ 710cc114     decode_table.obj
 0002:00018124       ??_C@_0BA@BDCKLPCJ@?$CIe_vex?5ext?5114?$CJ@ 710cc124     decode_table.obj
 0002:00018134       ??_C@_0BA@BBGMABHA@?$CIe_vex?5ext?5117?$CJ@ 710cc134     decode_table.obj
 0002:00018144       ??_C@_0BA@GJGLIBL@?$CIe_vex?5ext?5120?$CJ@ 710cc144     decode_table.obj
 0002:00018154       ??_C@_0BA@KMJPHAJA@?$CIe_vex?5ext?5100?$CJ@ 710cc154     decode_table.obj
 0002:00018164       ??_C@_0BA@KONJMOMJ@?$CIe_vex?5ext?5103?$CJ@ 710cc164     decode_table.obj
 0002:00018174       ??_C@_0P@DIIGGBGM@?$CIe_vex?5ext?594?$CJ@ 710cc174     decode_table.obj
 0002:00018184       ??_C@_0P@DKMANPDF@?$CIe_vex?5ext?597?$CJ@ 710cc184     decode_table.obj
 0002:00018194       ??_C@_0BA@KIBCAMCC@?$CIe_vex?5ext?5106?$CJ@ 710cc194     decode_table.obj
 0002:000181a4       ??_C@_0BA@KDEOELBP@?$CIe_vex?5ext?5109?$CJ@ 710cc1a4     decode_table.obj
 0002:000181b4       ??_C@_0BA@BHKHMDJL@?$CIe_vex?5ext?5112?$CJ@ 710cc1b4     decode_table.obj
 0002:000181c4       ??_C@_0BA@BCOINFBO@?$CIe_vex?5ext?5115?$CJ@ 710cc1c4     decode_table.obj
 0002:000181d4       ??_C@_0BA@BKDAEGEN@?$CIe_vex?5ext?5118?$CJ@ 710cc1d4     decode_table.obj
 0002:000181e4       ??_C@_0BA@HFENCCM@?$CIe_vex?5ext?5121?$CJ@ 710cc1e4     decode_table.obj
 0002:000181f4       ??_C@_0BA@KNFNBKKH@?$CIe_vex?5ext?5101?$CJ@ 710cc1f4     decode_table.obj
 0002:00018204       ??_C@_0BA@KLJGNIEM@?$CIe_vex?5ext?5104?$CJ@ 710cc204     decode_table.obj
 0002:00018214       ??_C@_0P@DJEEALFL@?$CIe_vex?5ext?595?$CJ@ 710cc214     decode_table.obj
 0002:00018224       ??_C@_0P@DBJMJIAI@?$CIe_vex?5ext?598?$CJ@ 710cc224     decode_table.obj
 0002:00018234       ??_C@_0BA@KJNAGGBF@?$CIe_vex?5ext?5107?$CJ@ 710cc234     decode_table.obj
 0002:00018244       ??_C@_0BA@BECDBHPF@?$CIe_vex?5ext?5110?$CJ@ 710cc244     decode_table.obj
 0002:00018254       ??_C@_0BA@BGGFKJKM@?$CIe_vex?5ext?5113?$CJ@ 710cc254     decode_table.obj
 0002:00018264       ??_C@_0BA@BAKOGLEH@?$CIe_vex?5ext?5116?$CJ@ 710cc264     decode_table.obj
 0002:00018274       ??_C@_0BA@BLPCCMHK@?$CIe_vex?5ext?5119?$CJ@ 710cc274     decode_table.obj
 0002:00018284       ??_C@_0BA@FBCGMHF@?$CIe_vex?5ext?5122?$CJ@ 710cc284     decode_table.obj
 0002:00018294       ??_C@_0P@GFKKGHLP@?$CIe_vex?5ext?563?$CJ@ 710cc294     decode_table.obj
 0002:000182a4       ??_C@_0P@GAOFHBDK@?$CIe_vex?5ext?564?$CJ@ 710cc2a4     decode_table.obj
 0002:000182b4       ??_C@_0P@GBCHBLAN@?$CIe_vex?5ext?565?$CJ@ 710cc2b4     decode_table.obj
 0002:000182c4       ??_C@_0P@GDGBKFFE@?$CIe_vex?5ext?566?$CJ@ 710cc2c4     decode_table.obj
 0002:000182d4       ??_C@_0P@GCKDMPGD@?$CIe_vex?5ext?567?$CJ@ 710cc2d4     decode_table.obj
 0002:000182e4       ??_C@_0P@GJPPIIFO@?$CIe_vex?5ext?568?$CJ@ 710cc2e4     decode_table.obj
 0002:000182f4       ??_C@_0P@GIDNOCGJ@?$CIe_vex?5ext?569?$CJ@ 710cc2f4     decode_table.obj
 0002:00018304       ??_C@_0P@NPFALOID@?$CIe_vex?5ext?570?$CJ@ 710cc304     decode_table.obj
 0002:00018314       ??_C@_0P@NKBPKIAG@?$CIe_vex?5ext?577?$CJ@ 710cc314     decode_table.obj
 0002:00018324       ??_C@_0P@NBEDOPDL@?$CIe_vex?5ext?578?$CJ@ 710cc324     decode_table.obj
 0002:00018334       ??_C@_0BB@GDBNPIHG@?$CIprefix?5ext?5141?$CJ@ 710cc334     decode_table.obj
 0002:00018348       ??_C@_0L@BFMEEILP@?$CIgroup?517?$CJ@ 710cc348     decode_table.obj
 0002:00018354       ??_C@_04PCNGPDPK@andn@     710cc354     decode_table.obj
 0002:0001835c       ??_C@_0BB@GBFLEGCP@?$CIprefix?5ext?5142?$CJ@ 710cc35c     decode_table.obj
 0002:00018370       ??_C@_0BB@GAJJCMBI@?$CIprefix?5ext?5143?$CJ@ 710cc370     decode_table.obj
 0002:00018384       ??_C@_07MFFNKEEM@invpcid@  710cc384     decode_table.obj
 0002:0001838c       ??_C@_0BA@CDPNOHMH@?$CIe_vex?5ext?5140?$CJ@ 710cc38c     decode_table.obj
 0002:0001839c       ??_C@_0BA@CCDPINPA@?$CIe_vex?5ext?5141?$CJ@ 710cc39c     decode_table.obj
 0002:000183ac       ??_C@_0BA@CAHJDDKJ@?$CIe_vex?5ext?5142?$CJ@ 710cc3ac     decode_table.obj
 0002:000183bc       ??_C@_0BA@CBLLFJJO@?$CIe_vex?5ext?5143?$CJ@ 710cc3bc     decode_table.obj
 0002:000183cc       ??_C@_0BA@LBPLOEPB@?$CIe_vex?5ext?5139?$CJ@ 710cc3cc     decode_table.obj
 0002:000183dc       ??_C@_0P@GFAHLEOG@?$CIvex_W?5ext?570?$CJ@ 710cc3dc     decode_table.obj
 0002:000183ec       ??_C@_0P@GEMFNONB@?$CIvex_W?5ext?571?$CJ@ 710cc3ec     decode_table.obj
 0002:000183fc       ??_C@_0BA@BJPBAMH@?$CIe_vex?5ext?5124?$CJ@ 710cc3fc     decode_table.obj
 0002:0001840c       ??_C@_0BA@ENAAGEC@?$CIe_vex?5ext?5123?$CJ@ 710cc40c     decode_table.obj
 0002:0001841c       ??_C@_0BA@LMGMGBCH@?$CIe_vex?5ext?5133?$CJ@ 710cc41c     decode_table.obj
 0002:0001842c       ??_C@_0BA@LPOILFEJ@?$CIe_vex?5ext?5131?$CJ@ 710cc42c     decode_table.obj
 0002:0001843c       ??_C@_0BA@LJCDHHKC@?$CIe_vex?5ext?5134?$CJ@ 710cc43c     decode_table.obj
 0002:0001844c       ??_C@_0BA@LIOBBNJF@?$CIe_vex?5ext?5135?$CJ@ 710cc44c     decode_table.obj
 0002:0001845c       ??_C@_0BA@LKKHKDMM@?$CIe_vex?5ext?5136?$CJ@ 710cc45c     decode_table.obj
 0002:0001846c       ??_C@_0BA@LLGFMJPL@?$CIe_vex?5ext?5137?$CJ@ 710cc46c     decode_table.obj
 0002:0001847c       ??_C@_0BA@LADJIOMG@?$CIe_vex?5ext?5138?$CJ@ 710cc47c     decode_table.obj
 0002:0001848c       ??_C@_0BB@MBGJHBAO@?$CIevex_Wb?5ext?592?$CJ@ 710cc48c     decode_table.obj
 0002:000184a0       ??_C@_0BB@MECGGHIL@?$CIevex_Wb?5ext?595?$CJ@ 710cc4a0     decode_table.obj
 0002:000184b4       ??_C@_0BB@MGGANJNC@?$CIevex_Wb?5ext?596?$CJ@ 710cc4b4     decode_table.obj
 0002:000184c8       ??_C@_0BB@MHKCLDOF@?$CIevex_Wb?5ext?597?$CJ@ 710cc4c8     decode_table.obj
 0002:000184dc       ??_C@_0BB@MMPOPENI@?$CIevex_Wb?5ext?598?$CJ@ 710cc4dc     decode_table.obj
 0002:000184f0       ??_C@_0BB@MNDMJOOP@?$CIevex_Wb?5ext?599?$CJ@ 710cc4f0     decode_table.obj
 0002:00018504       ??_C@_0BC@CKLBMACI@?$CIevex_Wb?5ext?5100?$CJ@ 710cc504     decode_table.obj
 0002:00018518       ??_C@_0BB@HBKIFHJI@?$CIprefix?5ext?5171?$CJ@ 710cc518     decode_table.obj
 0002:0001852c       ??_C@_0BB@MLFCIOKE@?$CIprefix?5ext?5162?$CJ@ 710cc52c     decode_table.obj
 0002:00018540       ??_C@_0BC@DLIALLKI@?$CIevex_Wb?5ext?5132?$CJ@ 710cc540     decode_table.obj
 0002:00018554       ??_C@_0BC@DKECNBJP@?$CIevex_Wb?5ext?5133?$CJ@ 710cc554     decode_table.obj
 0002:00018568       ??_C@_0BA@CEPEEPBL@?$CIe_vex?5ext?5144?$CJ@ 710cc568     decode_table.obj
 0002:00018578       ??_C@_0BA@CHHAJLHF@?$CIe_vex?5ext?5146?$CJ@ 710cc578     decode_table.obj
 0002:00018588       ??_C@_0BC@KAJMEBPK@?$CIevex_Wb?5ext?5147?$CJ@ 710cc588     decode_table.obj
 0002:0001859c       ??_C@_0BC@BNGPDABK@?$CIevex_Wb?5ext?5150?$CJ@ 710cc59c     decode_table.obj
 0002:000185b0       ??_C@_0BC@BMKNFKCN@?$CIevex_Wb?5ext?5151?$CJ@ 710cc5b0     decode_table.obj
 0002:000185c4       ??_C@_0BC@BKGGJIMG@?$CIevex_Wb?5ext?5154?$CJ@ 710cc5c4     decode_table.obj
 0002:000185d8       ??_C@_0BC@BJOCEMKI@?$CIevex_Wb?5ext?5156?$CJ@ 710cc5d8     decode_table.obj
 0002:000185ec       ??_C@_0BC@BICACGJP@?$CIevex_Wb?5ext?5157?$CJ@ 710cc5ec     decode_table.obj
 0002:00018600       ??_C@_0BC@BDHMGBKC@?$CIevex_Wb?5ext?5158?$CJ@ 710cc600     decode_table.obj
 0002:00018614       ??_C@_0BC@OBIPFMD@?$CIevex_Wb?5ext?5161?$CJ@ 710cc614     decode_table.obj
 0002:00018628       ??_C@_0BC@MFOELJK@?$CIevex_Wb?5ext?5162?$CJ@ 710cc628     decode_table.obj
 0002:0001863c       ??_C@_0BC@JBBFNBP@?$CIevex_Wb?5ext?5165?$CJ@ 710cc63c     decode_table.obj
 0002:00018650       ??_C@_0BC@LFHODEG@?$CIevex_Wb?5ext?5166?$CJ@ 710cc650     decode_table.obj
 0002:00018664       ??_C@_0BC@KJFIJHB@?$CIevex_Wb?5ext?5167?$CJ@ 710cc664     decode_table.obj
 0002:00018678       ??_C@_0BC@BMJMOEM@?$CIevex_Wb?5ext?5168?$CJ@ 710cc678     decode_table.obj
 0002:0001868c       ??_C@_0BB@CLINPJJH@?$CIprefix?5ext?5182?$CJ@ 710cc68c     decode_table.obj
 0002:000186a0       ??_C@_0BB@CKEPJDKA@?$CIprefix?5ext?5183?$CJ@ 710cc6a0     decode_table.obj
 0002:000186b4       ??_C@_0BC@LCCJOOBE@?$CIevex_Wb?5ext?5177?$CJ@ 710cc6b4     decode_table.obj
 0002:000186c8       ??_C@_0BC@LJHFKJCJ@?$CIevex_Wb?5ext?5178?$CJ@ 710cc6c8     decode_table.obj
 0002:000186dc       ??_C@_0BA@CGLCPBEC@?$CIe_vex?5ext?5147?$CJ@ 710cc6dc     decode_table.obj
 0002:000186ec       ??_C@_0BA@CNOOLGHP@?$CIe_vex?5ext?5148?$CJ@ 710cc6ec     decode_table.obj
 0002:000186fc       ??_C@_0BA@CFDGCFCM@?$CIe_vex?5ext?5145?$CJ@ 710cc6fc     decode_table.obj
 0002:0001870c       ??_C@_0BC@OLIIJEHF@?$CIevex_Wb?5ext?5186?$CJ@ 710cc70c     decode_table.obj
 0002:00018720       ??_C@_0BC@OKEKPOEC@?$CIevex_Wb?5ext?5187?$CJ@ 710cc720     decode_table.obj
 0002:00018734       ??_C@_0BC@MHBIHCHD@?$CIevex_Wb?5ext?5220?$CJ@ 710cc734     decode_table.obj
 0002:00018748       ??_C@_0BC@HIKNLNMK@?$CIevex_Wb?5ext?5234?$CJ@ 710cc748     decode_table.obj
 0002:0001875c       ??_C@_0BC@FFPPDBPL@?$CIevex_Wb?5ext?5193?$CJ@ 710cc75c     decode_table.obj
 0002:00018770       ??_C@_0BC@FALACHHO@?$CIevex_Wb?5ext?5194?$CJ@ 710cc770     decode_table.obj
 0002:00018784       ??_C@_0BC@FBHCENEJ@?$CIevex_Wb?5ext?5195?$CJ@ 710cc784     decode_table.obj
 0002:00018798       ??_C@_0BC@FDDEPDBA@?$CIevex_Wb?5ext?5196?$CJ@ 710cc798     decode_table.obj
 0002:000187ac       ??_C@_08ICEGENAC@group?518@ 710cc7ac     decode_table.obj
 0002:000187b8       ??_C@_08JLFNHMED@group?519@ 710cc7b8     decode_table.obj
 0002:000187c4       ??_C@_08KCNMFKIP@sha1msg1@ 710cc7c4     decode_table.obj
 0002:000187d0       ??_C@_0BA@CMCMNMEI@?$CIe_vex?5ext?5149?$CJ@ 710cc7d0     decode_table.obj
 0002:000187e0       ??_C@_0BA@JLEBIAKC@?$CIe_vex?5ext?5150?$CJ@ 710cc7e0     decode_table.obj
 0002:000187f0       ??_C@_0BA@JKIDOKJF@?$CIe_vex?5ext?5151?$CJ@ 710cc7f0     decode_table.obj
 0002:00018800       ??_C@_0BA@JIMFFEMM@?$CIe_vex?5ext?5152?$CJ@ 710cc800     decode_table.obj
 0002:00018810       ??_C@_0BB@PNEOBEKB@?$CIprefix?5ext?5133?$CJ@ 710cc810     decode_table.obj
 0002:00018824       ??_C@_0P@FELPFFGG@?$CIe_vex?5ext?536?$CJ@ 710cc824     decode_table.obj
 0002:00018834       ??_C@_0P@FFHNDPFB@?$CIe_vex?5ext?537?$CJ@ 710cc834     decode_table.obj
 0002:00018844       ??_C@_0P@FOCBHIGM@?$CIe_vex?5ext?538?$CJ@ 710cc844     decode_table.obj
 0002:00018854       ??_C@_0P@FPODBCFL@?$CIe_vex?5ext?539?$CJ@ 710cc854     decode_table.obj
 0002:00018864       ??_C@_0P@MNOFBBGN@?$CIe_vex?5ext?540?$CJ@ 710cc864     decode_table.obj
 0002:00018874       ??_C@_0P@MMCHHLFK@?$CIe_vex?5ext?541?$CJ@ 710cc874     decode_table.obj
 0002:00018884       ??_C@_0P@MOGBMFAD@?$CIe_vex?5ext?542?$CJ@ 710cc884     decode_table.obj
 0002:00018894       ??_C@_0P@MPKDKPDE@?$CIe_vex?5ext?543?$CJ@ 710cc894     decode_table.obj
 0002:000188a4       ??_C@_0P@MKOMLJLB@?$CIe_vex?5ext?544?$CJ@ 710cc8a4     decode_table.obj
 0002:000188b4       ??_C@_0P@MLCONDIG@?$CIe_vex?5ext?545?$CJ@ 710cc8b4     decode_table.obj
 0002:000188c4       ??_C@_0P@MJGIGNNP@?$CIe_vex?5ext?546?$CJ@ 710cc8c4     decode_table.obj
 0002:000188d4       ??_C@_0P@MIKKAHOI@?$CIe_vex?5ext?547?$CJ@ 710cc8d4     decode_table.obj
 0002:000188e4       ??_C@_0P@MDPGEANF@?$CIe_vex?5ext?548?$CJ@ 710cc8e4     decode_table.obj
 0002:000188f4       ??_C@_0P@MCDECKOC@?$CIe_vex?5ext?549?$CJ@ 710cc8f4     decode_table.obj
 0002:00018904       ??_C@_0P@HFFJHGAI@?$CIe_vex?5ext?550?$CJ@ 710cc904     decode_table.obj
 0002:00018914       ??_C@_0P@HEJLBMDP@?$CIe_vex?5ext?551?$CJ@ 710cc914     decode_table.obj
 0002:00018924       ??_C@_0P@HGNNKCGG@?$CIe_vex?5ext?552?$CJ@ 710cc924     decode_table.obj
 0002:00018934       ??_C@_0P@HHBPMIFB@?$CIe_vex?5ext?553?$CJ@ 710cc934     decode_table.obj
 0002:00018944       ??_C@_0P@HCFANONE@?$CIe_vex?5ext?554?$CJ@ 710cc944     decode_table.obj
 0002:00018954       ??_C@_0P@HDJCLEOD@?$CIe_vex?5ext?555?$CJ@ 710cc954     decode_table.obj
 0002:00018964       ??_C@_0P@HBNEAKLK@?$CIe_vex?5ext?556?$CJ@ 710cc964     decode_table.obj
 0002:00018974       ??_C@_0P@HABGGAIN@?$CIe_vex?5ext?557?$CJ@ 710cc974     decode_table.obj
 0002:00018984       ??_C@_0P@HLEKCHLA@?$CIe_vex?5ext?558?$CJ@ 710cc984     decode_table.obj
 0002:00018994       ??_C@_0P@BCJONBKF@?$CIe_vex?5ext?5?50?$CJ@ 710cc994     decode_table.obj
 0002:000189a4       ??_C@_0P@BDFMLLJC@?$CIe_vex?5ext?5?51?$CJ@ 710cc9a4     decode_table.obj
 0002:000189b4       ??_C@_0P@BBBKAFML@?$CIe_vex?5ext?5?52?$CJ@ 710cc9b4     decode_table.obj
 0002:000189c4       ??_C@_0P@NOJCNELE@?$CIe_vex?5ext?571?$CJ@ 710cc9c4     decode_table.obj
 0002:000189d4       ??_C@_0P@NMNEGKON@?$CIe_vex?5ext?572?$CJ@ 710cc9d4     decode_table.obj
 0002:000189e4       ??_C@_0P@NNBGAANK@?$CIe_vex?5ext?573?$CJ@ 710cc9e4     decode_table.obj
 0002:000189f4       ??_C@_0P@NIFJBGFP@?$CIe_vex?5ext?574?$CJ@ 710cc9f4     decode_table.obj
 0002:00018a04       ??_C@_0P@NJJLHMGI@?$CIe_vex?5ext?575?$CJ@ 710cca04     decode_table.obj
 0002:00018a14       ??_C@_0P@NLNNMCDB@?$CIe_vex?5ext?576?$CJ@ 710cca14     decode_table.obj
 0002:00018a24       ??_C@_0P@OKGFCDLB@?$CIvex_W?5ext?530?$CJ@ 710cca24     decode_table.obj
 0002:00018a34       ??_C@_0P@OLKHEJIG@?$CIvex_W?5ext?531?$CJ@ 710cca34     decode_table.obj
 0002:00018a44       ??_C@_0P@OJOBPHNP@?$CIvex_W?5ext?532?$CJ@ 710cca44     decode_table.obj
 0002:00018a54       ??_C@_0P@OICDJNOI@?$CIvex_W?5ext?533?$CJ@ 710cca54     decode_table.obj
 0002:00018a64       ??_C@_0P@ONGMILGN@?$CIvex_W?5ext?534?$CJ@ 710cca64     decode_table.obj
 0002:00018a74       ??_C@_0P@OMKOOBFK@?$CIvex_W?5ext?535?$CJ@ 710cca74     decode_table.obj
 0002:00018a84       ??_C@_0P@OOOIFPAD@?$CIvex_W?5ext?536?$CJ@ 710cca84     decode_table.obj
 0002:00018a94       ??_C@_0P@OPCKDFDE@?$CIvex_W?5ext?537?$CJ@ 710cca94     decode_table.obj
 0002:00018aa4       ??_C@_0P@OEHGHCAJ@?$CIvex_W?5ext?538?$CJ@ 710ccaa4     decode_table.obj
 0002:00018ab4       ??_C@_0P@OFLEBIDO@?$CIvex_W?5ext?539?$CJ@ 710ccab4     decode_table.obj
 0002:00018ac4       ??_C@_0P@HHLCBLAI@?$CIvex_W?5ext?540?$CJ@ 710ccac4     decode_table.obj
 0002:00018ad4       ??_C@_0P@HGHAHBDP@?$CIvex_W?5ext?541?$CJ@ 710ccad4     decode_table.obj
 0002:00018ae4       ??_C@_0P@HEDGMPGG@?$CIvex_W?5ext?542?$CJ@ 710ccae4     decode_table.obj
 0002:00018af4       ??_C@_0P@HFPEKFFB@?$CIvex_W?5ext?543?$CJ@ 710ccaf4     decode_table.obj
 0002:00018b04       ??_C@_0P@HALLLDNE@?$CIvex_W?5ext?544?$CJ@ 710ccb04     decode_table.obj
 0002:00018b14       ??_C@_0P@HBHJNJOD@?$CIvex_W?5ext?545?$CJ@ 710ccb14     decode_table.obj
 0002:00018b24       ??_C@_0P@HDDPGHLK@?$CIvex_W?5ext?546?$CJ@ 710ccb24     decode_table.obj
 0002:00018b34       ??_C@_0P@HCPNANIN@?$CIvex_W?5ext?547?$CJ@ 710ccb34     decode_table.obj
 0002:00018b44       ??_C@_0P@HJKBEKLA@?$CIvex_W?5ext?548?$CJ@ 710ccb44     decode_table.obj
 0002:00018b54       ??_C@_0P@HIGDCAIH@?$CIvex_W?5ext?549?$CJ@ 710ccb54     decode_table.obj
 0002:00018b64       ??_C@_0P@NKLCHLFP@?$CIvex_W?5ext?564?$CJ@ 710ccb64     decode_table.obj
 0002:00018b74       ??_C@_0P@NLHABBGI@?$CIvex_W?5ext?565?$CJ@ 710ccb74     decode_table.obj
 0002:00018b84       ??_C@_04GJBJBDNI@rorx@     710ccb84     decode_table.obj
 0002:00018b8c       ??_C@_0BA@IIFOJKD@?$CIe_vex?5ext?5128?$CJ@ 710ccb8c     decode_table.obj
 0002:00018b9c       ??_C@_0BA@DNJKOJO@?$CIe_vex?5ext?5127?$CJ@ 710ccb9c     decode_table.obj
 0002:00018bac       ??_C@_0BA@FNHKPA@?$CIe_vex?5ext?5125?$CJ@ 710ccbac     decode_table.obj
 0002:00018bbc       ??_C@_0BA@CBLMEKJ@?$CIe_vex?5ext?5126?$CJ@ 710ccbbc     decode_table.obj
 0002:00018bcc       ??_C@_08JBGEOHCB@vpblendd@ 710ccbcc     decode_table.obj
 0002:00018bd8       ??_C@_0L@MDDBINED@vperm2i128@ 710ccbd8     decode_table.obj
 0002:00018be4       ??_C@_0BA@JCHJGGCD@?$CIvex_W?5ext?5102?$CJ@ 710ccbe4     decode_table.obj
 0002:00018bf4       ??_C@_0BA@JDLLAMBE@?$CIvex_W?5ext?5103?$CJ@ 710ccbf4     decode_table.obj
 0002:00018c04       ??_C@_0BA@JBPNLCEN@?$CIvex_W?5ext?5100?$CJ@ 710ccc04     decode_table.obj
 0002:00018c14       ??_C@_0BA@JADPNIHK@?$CIvex_W?5ext?5101?$CJ@ 710ccc14     decode_table.obj
 0002:00018c24       ??_C@_0BC@CJDFBEEG@?$CIevex_Wb?5ext?5102?$CJ@ 710ccc24     decode_table.obj
 0002:00018c38       ??_C@_0BC@CNLIGIPE@?$CIevex_Wb?5ext?5104?$CJ@ 710ccc38     decode_table.obj
 0002:00018c4c       ??_C@_0BC@CODMLMJK@?$CIevex_Wb?5ext?5106?$CJ@ 710ccc4c     decode_table.obj
 0002:00018c60       ??_C@_0BC@CEKCJBJA@?$CIevex_Wb?5ext?5108?$CJ@ 710ccc60     decode_table.obj
 0002:00018c74       ??_C@_0BC@CFGAPLKH@?$CIevex_Wb?5ext?5109?$CJ@ 710ccc74     decode_table.obj
 0002:00018c88       ??_C@_0BC@JCANKHEN@?$CIevex_Wb?5ext?5110?$CJ@ 710ccc88     decode_table.obj
 0002:00018c9c       ??_C@_0BC@JDMPMNHK@?$CIevex_Wb?5ext?5111?$CJ@ 710ccc9c     decode_table.obj
 0002:00018cb0       ??_C@_0BC@JBIJHDCD@?$CIevex_Wb?5ext?5112?$CJ@ 710cccb0     decode_table.obj
 0002:00018cc4       ??_C@_0BC@KGFHIDBB@?$CIevex_Wb?5ext?5142?$CJ@ 710cccc4     decode_table.obj
 0002:00018cd8       ??_C@_0BC@KHJFOJCG@?$CIevex_Wb?5ext?5143?$CJ@ 710cccd8     decode_table.obj
 0002:00018cec       ??_C@_0BC@BLKEPCPB@?$CIevex_Wb?5ext?5155?$CJ@ 710cccec     decode_table.obj
 0002:00018d00       ??_C@_0BC@BCLOALJF@?$CIevex_Wb?5ext?5159?$CJ@ 710ccd00     decode_table.obj
 0002:00018d14       ??_C@_0BC@PNKJPPE@?$CIevex_Wb?5ext?5160?$CJ@ 710ccd14     decode_table.obj
 0002:00018d28       ??_C@_0BC@NJMCBKN@?$CIevex_Wb?5ext?5163?$CJ@ 710ccd28     decode_table.obj
 0002:00018d3c       ??_C@_0BC@INDDHCI@?$CIevex_Wb?5ext?5164?$CJ@ 710ccd3c     decode_table.obj
 0002:00018d50       ??_C@_0BC@LFCAEGMI@?$CIevex_Wb?5ext?5173?$CJ@ 710ccd50     decode_table.obj
 0002:00018d64       ??_C@_0BC@LAGPFAEN@?$CIevex_Wb?5ext?5174?$CJ@ 710ccd64     decode_table.obj
 0002:00018d78       ??_C@_0BC@LBKNDKHK@?$CIevex_Wb?5ext?5175?$CJ@ 710ccd78     decode_table.obj
 0002:00018d8c       ??_C@_0BC@LDOLIECD@?$CIevex_Wb?5ext?5176?$CJ@ 710ccd8c     decode_table.obj
 0002:00018da0       ??_C@_0BC@ONEDFGJO@?$CIevex_Wb?5ext?5183?$CJ@ 710ccda0     decode_table.obj
 0002:00018db4       ??_C@_0BC@OIAMEABL@?$CIevex_Wb?5ext?5184?$CJ@ 710ccdb4     decode_table.obj
 0002:00018dc8       ??_C@_0BC@OBBGLJHP@?$CIevex_Wb?5ext?5188?$CJ@ 710ccdc8     decode_table.obj
 0002:00018ddc       ??_C@_09MNNEKECB@sha1rnds4@ 710ccddc     decode_table.obj
 0002:00018de8       ??_C@_0M@JCEFEHCH@vfmadd132ss@ 710ccde8     decode_table.obj
 0002:00018df4       ??_C@_0M@JHMGMDLB@vfmadd132sd@ 710ccdf4     decode_table.obj
 0002:00018e00       ??_C@_0M@NGKNABIM@vfmadd213ss@ 710cce00     decode_table.obj
 0002:00018e0c       ??_C@_0M@NDCOIFBK@vfmadd213sd@ 710cce0c     decode_table.obj
 0002:00018e18       ??_C@_0M@GGEJKGH@vfmadd231ss@ 710cce18     decode_table.obj
 0002:00018e24       ??_C@_0M@DOHBOPB@vfmadd231sd@ 710cce24     decode_table.obj
 0002:00018e30       ??_C@_0M@MDLCCJFP@vfmsub132ss@ 710cce30     decode_table.obj
 0002:00018e3c       ??_C@_0M@MGDBKNMJ@vfmsub132sd@ 710cce3c     decode_table.obj
 0002:00018e48       ??_C@_0M@IHFKGPPE@vfmsub213ss@ 710cce48     decode_table.obj
 0002:00018e54       ??_C@_0M@ICNJOLGC@vfmsub213sd@ 710cce54     decode_table.obj
 0002:00018e60       ??_C@_0M@FHJDPEBP@vfmsub231ss@ 710cce60     decode_table.obj
 0002:00018e6c       ??_C@_0M@FCBAHAIJ@vfmsub231sd@ 710cce6c     decode_table.obj
 0002:00018e78       ??_C@_0N@EKCOGICK@vfnmadd132ss@ 710cce78     decode_table.obj
 0002:00018e88       ??_C@_0N@EPKNOMLM@vfnmadd132sd@ 710cce88     decode_table.obj
 0002:00018e98       ??_C@_0N@OMGCOIB@vfnmadd213ss@ 710cce98     decode_table.obj
 0002:00018ea8       ??_C@_0N@LEFKKBH@vfnmadd213sd@ 710ccea8     decode_table.obj
 0002:00018eb8       ??_C@_0N@NOAPLFGK@vfnmadd231ss@ 710cceb8     decode_table.obj
 0002:00018ec8       ??_C@_0N@NLIMDBPM@vfnmadd231sd@ 710ccec8     decode_table.obj
 0002:00018ed8       ??_C@_0N@BLNJAGFC@vfnmsub132ss@ 710cced8     decode_table.obj
 0002:00018ee8       ??_C@_0N@BOFKICME@vfnmsub132sd@ 710ccee8     decode_table.obj
 0002:00018ef8       ??_C@_0N@FPDBEAPJ@vfnmsub213ss@ 710ccef8     decode_table.obj
 0002:00018f08       ??_C@_0N@FKLCMEGP@vfnmsub213sd@ 710ccf08     decode_table.obj
 0002:00018f18       ??_C@_0N@IPPINLBC@vfnmsub231ss@ 710ccf18     decode_table.obj
 0002:00018f28       ??_C@_0N@IKHLFPIE@vfnmsub231sd@ 710ccf28     decode_table.obj
 0002:00018f38       ??_C@_0M@MOCNPAFC@vfmaddsubps@ 710ccf38     decode_table.obj
 0002:00018f44       ??_C@_0M@MLKOHEME@vfmaddsubpd@ 710ccf44     decode_table.obj
 0002:00018f50       ??_C@_0M@KJCPNMFE@vfmsubaddps@ 710ccf50     decode_table.obj
 0002:00018f5c       ??_C@_0M@KMKMFIMC@vfmsubaddpd@ 710ccf5c     decode_table.obj
 0002:00018f68       ??_C@_08CNBHPKFE@vfmaddps@ 710ccf68     decode_table.obj
 0002:00018f74       ??_C@_08CIJEHOMC@vfmaddpd@ 710ccf74     decode_table.obj
 0002:00018f80       ??_C@_08CPFBEEAN@vfmaddss@ 710ccf80     decode_table.obj
 0002:00018f8c       ??_C@_08CKNCMAJL@vfmaddsd@ 710ccf8c     decode_table.obj
 0002:00018f98       ??_C@_08BLOCLICK@vfmsubps@ 710ccf98     decode_table.obj
 0002:00018fa4       ??_C@_08BOGBDMLM@vfmsubpd@ 710ccfa4     decode_table.obj
 0002:00018fb0       ??_C@_08BJKEAGHD@vfmsubss@ 710ccfb0     decode_table.obj
 0002:00018fbc       ??_C@_08BMCHICOF@vfmsubsd@ 710ccfbc     decode_table.obj
 0002:00018fc8       ??_C@_09KMOGCKJH@vfnmaddps@ 710ccfc8     decode_table.obj
 0002:00018fd4       ??_C@_09KJGFKOAB@vfnmaddpd@ 710ccfd4     decode_table.obj
 0002:00018fe0       ??_C@_09KOKAJEMO@vfnmaddss@ 710ccfe0     decode_table.obj
 0002:00018fec       ??_C@_09KLCDBAFI@vfnmaddsd@ 710ccfec     decode_table.obj
 0002:00018ff8       ??_C@_09JKBDGIOJ@vfnmsubps@ 710ccff8     decode_table.obj
 0002:00019004       ??_C@_09JPJAOMHP@vfnmsubpd@ 710cd004     decode_table.obj
 0002:00019010       ??_C@_09JIFFNGLA@vfnmsubss@ 710cd010     decode_table.obj
 0002:0001901c       ??_C@_09JNNGFCCG@vfnmsubsd@ 710cd01c     decode_table.obj
 0002:00019028       ??_C@_06MLDJLIHP@vpcmov@   710cd028     decode_table.obj
 0002:00019030       ??_C@_06JEAFIGHL@vpperm@   710cd030     decode_table.obj
 0002:00019038       ??_C@_06CGNFFAC@vprotb@    710cd038     decode_table.obj
 0002:00019040       ??_C@_06DFNILDBG@vprotw@   710cd040     decode_table.obj
 0002:00019048       ??_C@_06FEDHPCIE@vprotd@   710cd048     decode_table.obj
 0002:00019050       ??_C@_06GDICBEJA@vprotq@   710cd050     decode_table.obj
 0002:00019058       ??_C@_06LAOPLGMD@vpshlb@   710cd058     decode_table.obj
 0002:00019060       ??_C@_06IHFKFANH@vpshlw@   710cd060     decode_table.obj
 0002:00019068       ??_C@_06OGLFBBEF@vpshld@   710cd068     decode_table.obj
 0002:00019070       ??_C@_06NBAAPHFB@vpshlq@   710cd070     decode_table.obj
 0002:00019078       ??_C@_06LIDHCFJA@vpshab@   710cd078     decode_table.obj
 0002:00019080       ??_C@_06IPICMDIE@vpshaw@   710cd080     decode_table.obj
 0002:00019088       ??_C@_06OOGNICBG@vpshad@   710cd088     decode_table.obj
 0002:00019090       ??_C@_06NJNIGEAC@vpshaq@   710cd090     decode_table.obj
 0002:00019098       ??_C@_0L@BPLOJKIJ@vpermil2ps@ 710cd098     decode_table.obj
 0002:000190a4       ??_C@_0L@BKDNBOBP@vpermil2pd@ 710cd0a4     decode_table.obj
 0002:000190b0       ??_C@_0L@HCMODLAJ@vpgatherdd@ 710cd0b0     decode_table.obj
 0002:000190bc       ??_C@_0L@EFHLNNBN@vpgatherdq@ 710cd0bc     decode_table.obj
 0002:000190c8       ??_C@_0L@GICDFKJC@vpgatherqd@ 710cd0c8     decode_table.obj
 0002:000190d4       ??_C@_0L@FPJGLMIG@vpgatherqq@ 710cd0d4     decode_table.obj
 0002:000190e0       ??_C@_0L@FFADMONC@vgatherdps@ 710cd0e0     decode_table.obj
 0002:000190ec       ??_C@_0L@FAIAEKEE@vgatherdpd@ 710cd0ec     decode_table.obj
 0002:000190f8       ??_C@_0L@DCMEGJHP@vgatherqps@ 710cd0f8     decode_table.obj
 0002:00019104       ??_C@_0L@DHEHONOJ@vgatherqpd@ 710cd104     decode_table.obj
 0002:00019110       ??_C@_0L@CJHCEOCK@vpmaskmovd@ 710cd110     decode_table.obj
 0002:0001911c       ??_C@_0L@BOMHKIDO@vpmaskmovq@ 710cd11c     decode_table.obj
 0002:00019128       ??_C@_07DCDDFGJA@vpsrlvd@  710cd128     decode_table.obj
 0002:00019130       ??_C@_07FIGLAIE@vpsrlvq@   710cd130     decode_table.obj
 0002:00019138       ??_C@_07ONODHPHD@vpsllvd@  710cd138     decode_table.obj
 0002:00019140       ??_C@_07NKFGJJGH@vpsllvq@  710cd140     decode_table.obj
 0002:00019148       ??_C@_05BOOLAOLP@kmovw@    710cd148     decode_table.obj
 0002:00019150       ??_C@_05EILBKJDJ@kmovq@    710cd150     decode_table.obj
 0002:00019158       ??_C@_05CJFOOIKL@kmovb@    710cd158     decode_table.obj
 0002:00019160       ??_C@_05HPAEEPCN@kmovd@    710cd160     decode_table.obj
 0002:00019168       ??_C@_05HMAFPDMF@kandw@    710cd168     decode_table.obj
 0002:00019170       ??_C@_05CKFPFEED@kandq@    710cd170     decode_table.obj
 0002:00019178       ??_C@_05ELLABFNB@kandb@    710cd178     decode_table.obj
 0002:00019180       ??_C@_05BNOKLCFH@kandd@    710cd180     decode_table.obj
 0002:00019188       ??_C@_06JIPLEEAC@kandnw@   710cd188     decode_table.obj
 0002:00019190       ??_C@_06MOKBODIE@kandnq@   710cd190     decode_table.obj
 0002:00019198       ??_C@_06KPEOKCBG@kandnb@   710cd198     decode_table.obj
 0002:000191a0       ??_C@_06PJBEAFJA@kandnd@   710cd1a0     decode_table.obj
 0002:000191a8       ??_C@_08JBEBPMEM@kunpckwd@ 710cd1a8     decode_table.obj
 0002:000191b4       ??_C@_08LIJEAHHB@kunpckdq@ 710cd1b4     decode_table.obj
 0002:000191c0       ??_C@_08OKEDNMEF@kunpckbw@ 710cd1c0     decode_table.obj
 0002:000191cc       ??_C@_05FKMPKAAB@knotw@    710cd1cc     decode_table.obj
 0002:000191d4       ??_C@_05MJFAHIH@knotq@     710cd1d4     decode_table.obj
 0002:000191dc       ??_C@_05GNHKEGBF@knotb@    710cd1dc     decode_table.obj
 0002:000191e4       ??_C@_05DLCAOBJD@knotd@    710cd1e4     decode_table.obj
 0002:000191ec       ??_C@_04IDHBPKOE@korw@     710cd1ec     decode_table.obj
 0002:000191f4       ??_C@_04NFCLFNGC@korq@     710cd1f4     decode_table.obj
 0002:000191fc       ??_C@_04LEMEBMPA@korb@     710cd1fc     decode_table.obj
 0002:00019204       ??_C@_04OCJOLLHG@kord@     710cd204     decode_table.obj
 0002:0001920c       ??_C@_06HOBPMKEE@kxnorw@   710cd20c     decode_table.obj
 0002:00019214       ??_C@_06CIEFGNMC@kxnorq@   710cd214     decode_table.obj
 0002:0001921c       ??_C@_06EJKKCMFA@kxnorb@   710cd21c     decode_table.obj
 0002:00019224       ??_C@_06BPPAILNG@kxnord@   710cd224     decode_table.obj
 0002:0001922c       ??_C@_05LBOCLOJB@kxorw@    710cd22c     decode_table.obj
 0002:00019234       ??_C@_05OHLIBJBH@kxorq@    710cd234     decode_table.obj
 0002:0001923c       ??_C@_05IGFHFIIF@kxorb@    710cd23c     decode_table.obj
 0002:00019244       ??_C@_05NAANPPAD@kxord@    710cd244     decode_table.obj
 0002:0001924c       ??_C@_05BDLIBDKB@kaddw@    710cd24c     decode_table.obj
 0002:00019254       ??_C@_05EFOCLECH@kaddq@    710cd254     decode_table.obj
 0002:0001925c       ??_C@_05CEANPFLF@kaddb@    710cd25c     decode_table.obj
 0002:00019264       ??_C@_05HCFHFCDD@kaddd@    710cd264     decode_table.obj
 0002:0001926c       ??_C@_08DOJBBABI@kortestw@ 710cd26c     decode_table.obj
 0002:00019278       ??_C@_08GIMLLHJO@kortestq@ 710cd278     decode_table.obj
 0002:00019284       ??_C@_08JCEPGAM@kortestb@  710cd284     decode_table.obj
 0002:00019290       ??_C@_08FPHOFBIK@kortestd@ 710cd290     decode_table.obj
 0002:0001929c       ??_C@_08JGJELAAM@kshiftlb@ 710cd29c     decode_table.obj
 0002:000192a8       ??_C@_08KBCBFGBI@kshiftlw@ 710cd2a8     decode_table.obj
 0002:000192b4       ??_C@_08MAMOBHIK@kshiftld@ 710cd2b4     decode_table.obj
 0002:000192c0       ??_C@_08PHHLPBJO@kshiftlq@ 710cd2c0     decode_table.obj
 0002:000192cc       ??_C@_08IACMDOHG@kshiftrb@ 710cd2cc     decode_table.obj
 0002:000192d8       ??_C@_08LHJJNIGC@kshiftrw@ 710cd2d8     decode_table.obj
 0002:000192e4       ??_C@_08NGHGJJPA@kshiftrd@ 710cd2e4     decode_table.obj
 0002:000192f0       ??_C@_08OBMDHPOE@kshiftrq@ 710cd2f0     decode_table.obj
 0002:000192fc       ??_C@_06GAEPKPLL@ktestw@   710cd2fc     decode_table.obj
 0002:00019304       ??_C@_06DGBFAIDN@ktestq@   710cd304     decode_table.obj
 0002:0001930c       ??_C@_06FHPKEJKP@ktestb@   710cd30c     decode_table.obj
 0002:00019314       ??_C@_06BKAOOCJ@ktestd@    710cd314     decode_table.obj
 0002:0001931c       ??_C@_05MAEMFOGI@vmovd@    710cd31c     decode_table.obj
 0002:00019324       ??_C@_08KKPBKJIA@vpdpbusd@ 710cd324     decode_table.obj
 0002:00019330       ??_C@_09OJAAFILM@vpdpbusds@ 710cd330     decode_table.obj
 0002:0001933c       ??_C@_08CHJKOOKO@vpdpwssd@ 710cd33c     decode_table.obj
 0002:00019348       ??_C@_09DFFLDODE@vpdpwssds@ 710cd348     decode_table.obj
 0002:00019354       ??_C@_09NDGNEIEO@vmovdqa32@ 710cd354     decode_table.obj
 0002:00019360       ??_C@_09IDPMCNCD@vmovdqa64@ 710cd360     decode_table.obj
 0002:0001936c       ??_C@_08ILLADGIA@vmovdqu8@ 710cd36c     decode_table.obj
 0002:00019378       ??_C@_09GLPOJJOM@vmovdqu16@ 710cd378     decode_table.obj
 0002:00019384       ??_C@_09MBGIIIG@vmovdqu32@ 710cd384     decode_table.obj
 0002:00019390       ??_C@_09FMIHONOL@vmovdqu64@ 710cd390     decode_table.obj
 0002:0001939c       ??_C@_06NHONNLMD@vpandd@   710cd39c     decode_table.obj
 0002:000193a4       ??_C@_06OAFIDNNH@vpandq@   710cd3a4     decode_table.obj
 0002:000193ac       ??_C@_07OLMFFKE@vpandnd@   710cd3ac     decode_table.obj
 0002:000193b4       ??_C@_07DJAJLDLA@vpandnq@  710cd3b4     decode_table.obj
 0002:000193bc       ??_C@_05FPDFKFIH@vpord@    710cd3bc     decode_table.obj
 0002:000193c4       ??_C@_05GIIAEDJD@vporq@    710cd3c4     decode_table.obj
 0002:000193cc       ??_C@_06BKAKJGJH@vpxord@   710cd3cc     decode_table.obj
 0002:000193d4       ??_C@_06CNLPHAID@vpxorq@   710cd3d4     decode_table.obj
 0002:000193dc       ??_C@_07JPMLCJNJ@vpmullq@  710cd3dc     decode_table.obj
 0002:000193e4       ??_C@_0N@BNCCLKJJ@?$CImod?5ext?524?$CJ@ 710cd3e4     decode_table.obj
 0002:000193f4       ??_C@_0N@BMOANAKO@?$CImod?5ext?525?$CJ@ 710cd3f4     decode_table.obj
 0002:00019404       ??_C@_0N@BOKGGOPH@?$CImod?5ext?526?$CJ@ 710cd404     decode_table.obj
 0002:00019414       ??_C@_0N@BPGEAEMA@?$CImod?5ext?527?$CJ@ 710cd414     decode_table.obj
 0002:00019424       ??_C@_0N@BEDIEDPN@?$CImod?5ext?528?$CJ@ 710cd424     decode_table.obj
 0002:00019434       ??_C@_0N@BFPKCJMK@?$CImod?5ext?529?$CJ@ 710cd434     decode_table.obj
 0002:00019444       ??_C@_0N@KCJHHFCA@?$CImod?5ext?530?$CJ@ 710cd444     decode_table.obj
 0002:00019454       ??_C@_0N@KDFFBPBH@?$CImod?5ext?531?$CJ@ 710cd454     decode_table.obj
 0002:00019464       ??_C@_0N@KBBDKBEO@?$CImod?5ext?532?$CJ@ 710cd464     decode_table.obj
 0002:00019474       ??_C@_0N@KANBMLHJ@?$CImod?5ext?533?$CJ@ 710cd474     decode_table.obj
 0002:00019484       ??_C@_0N@KFJONNPM@?$CImod?5ext?534?$CJ@ 710cd484     decode_table.obj
 0002:00019494       ??_C@_0N@KEFMLHML@?$CImod?5ext?535?$CJ@ 710cd494     decode_table.obj
 0002:000194a4       ??_C@_0L@CGCCEEJD@vcvtss2usi@ 710cd4a4     decode_table.obj
 0002:000194b0       ??_C@_0L@DIPBHGLA@vcvtsd2usi@ 710cd4b0     decode_table.obj
 0002:000194bc       ??_C@_0M@MNNHBNKH@vcvttss2usi@ 710cd4bc     decode_table.obj
 0002:000194c8       ??_C@_0M@NDAECPIE@vcvttsd2usi@ 710cd4c8     decode_table.obj
 0002:000194d4       ??_C@_0N@KGBKAJJC@?$CImod?5ext?536?$CJ@ 710cd4d4     decode_table.obj
 0002:000194e4       ??_C@_0N@KHNIGDKF@?$CImod?5ext?537?$CJ@ 710cd4e4     decode_table.obj
 0002:000194f4       ??_C@_0N@KMIECEJI@?$CImod?5ext?538?$CJ@ 710cd4f4     decode_table.obj
 0002:00019504       ??_C@_0L@LMNPBFCM@vcvtusi2ss@ 710cd504     decode_table.obj
 0002:00019510       ??_C@_0L@LJFMJBLK@vcvtusi2sd@ 710cd510     decode_table.obj
 0002:0001951c       ??_C@_0N@KNEGEOKP@?$CImod?5ext?539?$CJ@ 710cd51c     decode_table.obj
 0002:0001952c       ??_C@_0N@DPEAENJJ@?$CImod?5ext?540?$CJ@ 710cd52c     decode_table.obj
 0002:0001953c       ??_C@_0L@PFFJMBID@vcvtudq2pd@ 710cd53c     decode_table.obj
 0002:00019548       ??_C@_0N@DOICCHKO@?$CImod?5ext?541?$CJ@ 710cd548     decode_table.obj
 0002:00019558       ??_C@_0N@DMMEJJPH@?$CImod?5ext?542?$CJ@ 710cd558     decode_table.obj
 0002:00019568       ??_C@_0N@DNAGPDMA@?$CImod?5ext?543?$CJ@ 710cd568     decode_table.obj
 0002:00019578       ??_C@_0N@DIEJOFEF@?$CImod?5ext?544?$CJ@ 710cd578     decode_table.obj
 0002:00019588       ??_C@_0N@DJILIPHC@?$CImod?5ext?545?$CJ@ 710cd588     decode_table.obj
 0002:00019598       ??_C@_0N@DLMNDBCL@?$CImod?5ext?546?$CJ@ 710cd598     decode_table.obj
 0002:000195a8       ??_C@_0N@DKAPFLBM@?$CImod?5ext?547?$CJ@ 710cd5a8     decode_table.obj
 0002:000195b8       ??_C@_0N@DBFDBMCB@?$CImod?5ext?548?$CJ@ 710cd5b8     decode_table.obj
 0002:000195c8       ??_C@_0N@DAJBHGBG@?$CImod?5ext?549?$CJ@ 710cd5c8     decode_table.obj
 0002:000195d8       ??_C@_0N@IHPMCKPM@?$CImod?5ext?550?$CJ@ 710cd5d8     decode_table.obj
 0002:000195e8       ??_C@_0N@IGDOEAML@?$CImod?5ext?551?$CJ@ 710cd5e8     decode_table.obj
 0002:000195f8       ??_C@_0N@IEHIPOJC@?$CImod?5ext?552?$CJ@ 710cd5f8     decode_table.obj
 0002:00019608       ??_C@_0N@IFLKJEKF@?$CImod?5ext?553?$CJ@ 710cd608     decode_table.obj
 0002:00019618       ??_C@_0N@IAPFICCA@?$CImod?5ext?554?$CJ@ 710cd618     decode_table.obj
 0002:00019628       ??_C@_0N@IBDHOIBH@?$CImod?5ext?555?$CJ@ 710cd628     decode_table.obj
 0002:00019638       ??_C@_0N@IDHBFGEO@?$CImod?5ext?556?$CJ@ 710cd638     decode_table.obj
 0002:00019648       ??_C@_0N@ICLDDMHJ@?$CImod?5ext?557?$CJ@ 710cd648     decode_table.obj
 0002:00019658       ??_C@_0N@IJOPHLEE@?$CImod?5ext?558?$CJ@ 710cd658     decode_table.obj
 0002:00019668       ??_C@_0N@IICNBBHD@?$CImod?5ext?559?$CJ@ 710cd668     decode_table.obj
 0002:00019678       ??_C@_0N@JFEJIFBC@?$CImod?5ext?560?$CJ@ 710cd678     decode_table.obj
 0002:00019688       ??_C@_0N@JEILOPCF@?$CImod?5ext?561?$CJ@ 710cd688     decode_table.obj
 0002:00019698       ??_C@_0N@JGMNFBHM@?$CImod?5ext?562?$CJ@ 710cd698     decode_table.obj
 0002:000196a8       ??_C@_0N@JHAPDLEL@?$CImod?5ext?563?$CJ@ 710cd6a8     decode_table.obj
 0002:000196b8       ??_C@_0N@JCEACNMO@?$CImod?5ext?564?$CJ@ 710cd6b8     decode_table.obj
 0002:000196c8       ??_C@_0N@JDICEHPJ@?$CImod?5ext?565?$CJ@ 710cd6c8     decode_table.obj
 0002:000196d8       ??_C@_0N@JBMEPJKA@?$CImod?5ext?566?$CJ@ 710cd6d8     decode_table.obj
 0002:000196e8       ??_C@_0N@JAAGJDJH@?$CImod?5ext?567?$CJ@ 710cd6e8     decode_table.obj
 0002:000196f8       ??_C@_0N@JLFKNEKK@?$CImod?5ext?568?$CJ@ 710cd6f8     decode_table.obj
 0002:00019708       ??_C@_0N@JKJILOJN@?$CImod?5ext?569?$CJ@ 710cd708     decode_table.obj
 0002:00019718       ??_C@_0N@CNPFOCHH@?$CImod?5ext?570?$CJ@ 710cd718     decode_table.obj
 0002:00019728       ??_C@_0N@CMDHIIEA@?$CImod?5ext?571?$CJ@ 710cd728     decode_table.obj
 0002:00019738       ??_C@_0N@COHBDGBJ@?$CImod?5ext?572?$CJ@ 710cd738     decode_table.obj
 0002:00019748       ??_C@_0N@CPLDFMCO@?$CImod?5ext?573?$CJ@ 710cd748     decode_table.obj
 0002:00019758       ??_C@_0N@CKPMEKKL@?$CImod?5ext?574?$CJ@ 710cd758     decode_table.obj
 0002:00019768       ??_C@_0N@CLDOCAJM@?$CImod?5ext?575?$CJ@ 710cd768     decode_table.obj
 0002:00019778       ??_C@_0N@CJHIJOMF@?$CImod?5ext?576?$CJ@ 710cd778     decode_table.obj
 0002:00019788       ??_C@_0N@CILKPEPC@?$CImod?5ext?577?$CJ@ 710cd788     decode_table.obj
 0002:00019798       ??_C@_06GBCJAJCN@vpermb@   710cd798     decode_table.obj
 0002:000197a0       ??_C@_06FGJMOPDJ@vpermw@   710cd7a0     decode_table.obj
 0002:000197a8       ??_C@_09NOPELFKJ@vpermi2ps@ 710cd7a8     decode_table.obj
 0002:000197b4       ??_C@_09NLHHDBDP@vpermi2pd@ 710cd7b4     decode_table.obj
 0002:000197c0       ??_C@_08KIIJJLDO@vpermi2d@ 710cd7c0     decode_table.obj
 0002:000197cc       ??_C@_08JPDMHNCK@vpermi2q@ 710cd7cc     decode_table.obj
 0002:000197d8       ??_C@_08PONDDMLI@vpermi2b@ 710cd7d8     decode_table.obj
 0002:000197e4       ??_C@_08MJGGNKKM@vpermi2w@ 710cd7e4     decode_table.obj
 0002:000197f0       ??_C@_08FMKALDPK@vpermt2b@ 710cd7f0     decode_table.obj
 0002:000197fc       ??_C@_08GLBFFFOO@vpermt2w@ 710cd7fc     decode_table.obj
 0002:00019808       ??_C@_08KPKBEHM@vpermt2d@  710cd808     decode_table.obj
 0002:00019814       ??_C@_08DNEPPCGI@vpermt2q@ 710cd814     decode_table.obj
 0002:00019820       ??_C@_09EGIEOGJK@vpermt2ps@ 710cd820     decode_table.obj
 0002:0001982c       ??_C@_09EDAHGCAM@vpermt2pd@ 710cd82c     decode_table.obj
 0002:00019838       ??_C@_0O@DPKJIGPL@vextractf32x4@ 710cd838     decode_table.obj
 0002:00019848       ??_C@_0O@IEHIPBNB@vextractf64x2@ 710cd848     decode_table.obj
 0002:00019858       ??_C@_0O@JDBMMJPH@vextractf32x8@ 710cd858     decode_table.obj
 0002:00019868       ??_C@_0O@NCCCFGFH@vextractf64x4@ 710cd868     decode_table.obj
 0002:00019878       ??_C@_0O@MOPPDECO@vextracti32x4@ 710cd878     decode_table.obj
 0002:00019888       ??_C@_0O@HFCOEDAE@vextracti64x2@ 710cd888     decode_table.obj
 0002:00019898       ??_C@_0O@GCEKHLCC@vextracti32x8@ 710cd898     decode_table.obj
 0002:000198a8       ??_C@_0O@CDHEOEIC@vextracti64x4@ 710cd8a8     decode_table.obj
 0002:000198b8       ??_C@_0N@CDNNLNAC@vinsertf32x4@ 710cd8b8     decode_table.obj
 0002:000198c8       ??_C@_0N@JIAMMKCI@vinsertf64x2@ 710cd8c8     decode_table.obj
 0002:000198d8       ??_C@_0N@IPGIPCAO@vinsertf32x8@ 710cd8d8     decode_table.obj
 0002:000198e8       ??_C@_0N@MOFGGNKO@vinsertf64x4@ 710cd8e8     decode_table.obj
 0002:000198f8       ??_C@_0N@NCILAPNH@vinserti32x4@ 710cd8f8     decode_table.obj
 0002:00019908       ??_C@_0N@GJFKHIPN@vinserti64x2@ 710cd908     decode_table.obj
 0002:00019918       ??_C@_0N@HODOEANL@vinserti32x8@ 710cd918     decode_table.obj
 0002:00019928       ??_C@_0N@DPAANPHL@vinserti64x4@ 710cd928     decode_table.obj
 0002:00019938       ??_C@_07JNIGKFKA@vpcmpub@  710cd938     decode_table.obj
 0002:00019940       ??_C@_07KKDDEDLE@vpcmpuw@  710cd940     decode_table.obj
 0002:00019948       ??_C@_06PCONILGH@vpcmpb@   710cd948     decode_table.obj
 0002:00019950       ??_C@_06MFFIGNHD@vpcmpw@   710cd950     decode_table.obj
 0002:00019958       ??_C@_07MLNMACCG@vpcmpud@  710cd958     decode_table.obj
 0002:00019960       ??_C@_07PMGJOEDC@vpcmpuq@  710cd960     decode_table.obj
 0002:00019968       ??_C@_06KELHCMOB@vpcmpd@   710cd968     decode_table.obj
 0002:00019970       ??_C@_06JDACMKPF@vpcmpq@   710cd970     decode_table.obj
 0002:00019978       ??_C@_07IHKIHPJM@vpminsq@  710cd978     decode_table.obj
 0002:00019980       ??_C@_07MCKKDMBO@vpmaxsq@  710cd980     decode_table.obj
 0002:00019988       ??_C@_07IDCFADCO@vpminuq@  710cd988     decode_table.obj
 0002:00019990       ??_C@_07MGCHEAKM@vpmaxuq@  710cd990     decode_table.obj
 0002:00019998       ??_C@_07GBBPNGAG@vprolvd@  710cd998     decode_table.obj
 0002:000199a0       ??_C@_07FGKKDABC@vprolvq@  710cd9a0     decode_table.obj
 0002:000199a8       ??_C@_06EGACAAEM@vprold@   710cd9a8     decode_table.obj
 0002:000199b0       ??_C@_06HBLHOGFI@vprolq@   710cd9b0     decode_table.obj
 0002:000199b8       ??_C@_07NBNJPGKK@vprorvd@  710cd9b8     decode_table.obj
 0002:000199c0       ??_C@_07OGGMBALO@vprorvq@  710cd9c0     decode_table.obj
 0002:000199c8       ??_C@_06FALKIODG@vprord@   710cd9c8     decode_table.obj
 0002:000199d0       ??_C@_06GHAPGICC@vprorq@   710cd9d0     decode_table.obj
 0002:000199d8       ??_C@_06OGHMNDPJ@vpsraq@   710cd9d8     decode_table.obj
 0002:000199e0       ??_C@_07KBLGMPNP@vpsravw@  710cd9e0     decode_table.obj
 0002:000199e8       ??_C@_07PHOMGIFJ@vpsravq@  710cd9e8     decode_table.obj
 0002:000199f0       ??_C@_07IMAMDOOB@vpsllvw@  710cd9f0     decode_table.obj
 0002:000199f8       ??_C@_08HGKNCAPP@vrcp14ps@ 710cd9f8     decode_table.obj
 0002:00019a04       ??_C@_08HDCOKEGJ@vrcp14pd@ 710cda04     decode_table.obj
 0002:00019a10       ??_C@_08HEOLJOKG@vrcp14ss@ 710cda10     decode_table.obj
 0002:00019a1c       ??_C@_08HBGIBKDA@vrcp14sd@ 710cda1c     decode_table.obj
 0002:00019a28       ??_C@_0N@CDOGLDMP@?$CImod?5ext?578?$CJ@ 710cda28     decode_table.obj
 0002:00019a38       ??_C@_0N@CCCENJPI@?$CImod?5ext?579?$CJ@ 710cda38     decode_table.obj
 0002:00019a48       ??_C@_08HJJNFLMO@vrcp28ss@ 710cda48     decode_table.obj
 0002:00019a54       ??_C@_08HMBONPFI@vrcp28sd@ 710cda54     decode_table.obj
 0002:00019a60       ??_C@_08OKCGFCFO@vpmovm2b@ 710cda60     decode_table.obj
 0002:00019a6c       ??_C@_08NNJDLEEK@vpmovm2w@ 710cda6c     decode_table.obj
 0002:00019a78       ??_C@_08LMHMPFNI@vpmovm2d@ 710cda78     decode_table.obj
 0002:00019a84       ??_C@_08ILMJBDMM@vpmovm2q@ 710cda84     decode_table.obj
 0002:00019a90       ??_C@_08DFNNFOMH@vpmovb2m@ 710cda90     decode_table.obj
 0002:00019a9c       ??_C@_08FCBKPJGK@vpmovw2m@ 710cda9c     decode_table.obj
 0002:00019aa8       ??_C@_08BALGABBL@vpmovd2m@ 710cdaa8     decode_table.obj
 0002:00019ab4       ??_C@_08HHHBKGLG@vpmovq2m@ 710cdab4     decode_table.obj
 0002:00019ac0       ??_C@_0L@PHDKPJIL@vshuff32x4@ 710cdac0     decode_table.obj
 0002:00019acc       ??_C@_0L@EMOLIOKB@vshuff64x2@ 710cdacc     decode_table.obj
 0002:00019ad8       ??_C@_0L@GGMELFO@vshufi32x4@ 710cdad8     decode_table.obj
 0002:00019ae4       ??_C@_0L@LNLNDMHE@vshufi64x2@ 710cdae4     decode_table.obj
 0002:00019af0       ??_C@_07NKIAEOP@vpinsrq@   710cdaf0     decode_table.obj
 0002:00019af8       ??_C@_07IBNJOAP@vpextrq@   710cdaf8     decode_table.obj
 0002:00019b00       ??_C@_06LDOHDHJK@vpabsq@   710cdb00     decode_table.obj
 0002:00019b08       ??_C@_0BA@JKNPBMAG@vbroadcastf32x2@ 710cdb08     decode_table.obj
 0002:00019b18       ??_C@_0BA@MMIFLLIA@vbroadcastf32x4@ 710cdb18     decode_table.obj
 0002:00019b28       ??_C@_0BA@HHFEMMKK@vbroadcastf64x2@ 710cdb28     decode_table.obj
 0002:00019b38       ??_C@_0BA@GADAPEIM@vbroadcastf32x8@ 710cdb38     decode_table.obj
 0002:00019b48       ??_C@_0BA@CBAOGLCM@vbroadcastf64x4@ 710cdb48     decode_table.obj
 0002:00019b58       ??_C@_0BA@GLIJKOND@vbroadcasti32x2@ 710cdb58     decode_table.obj
 0002:00019b68       ??_C@_0BA@DNNDAJFF@vbroadcasti32x4@ 710cdb68     decode_table.obj
 0002:00019b78       ??_C@_0BA@IGACHOHP@vbroadcasti64x2@ 710cdb78     decode_table.obj
 0002:00019b88       ??_C@_0BA@JBGGEGFJ@vbroadcasti32x8@ 710cdb88     decode_table.obj
 0002:00019b98       ??_C@_0BA@NAFINJPJ@vbroadcasti64x4@ 710cdb98     decode_table.obj
 0002:00019ba8       ??_C@_07NDBOKCPO@valignd@  710cdba8     decode_table.obj
 0002:00019bb0       ??_C@_07OEKLEEOK@valignq@  710cdbb0     decode_table.obj
 0002:00019bb8       ??_C@_09MJOMPNO@vblendmps@ 710cdbb8     decode_table.obj
 0002:00019bc4       ??_C@_09JBNELEI@vblendmpd@ 710cdbc4     decode_table.obj
 0002:00019bd0       ??_C@_0M@BDCOMNMA@vcompressps@ 710cdbd0     decode_table.obj
 0002:00019bdc       ??_C@_0M@BGKNEJFG@vcompresspd@ 710cdbdc     decode_table.obj
 0002:00019be8       ??_C@_09GDAGMLFB@vexpandps@ 710cdbe8     decode_table.obj
 0002:00019bf4       ??_C@_09GGIFEPMH@vexpandpd@ 710cdbf4     decode_table.obj
 0002:00019c00       ??_C@_0N@HFJGPCCB@?$CImod?5ext?580?$CJ@ 710cdc00     decode_table.obj
 0002:00019c10       ??_C@_0N@HEFEJIBG@?$CImod?5ext?581?$CJ@ 710cdc10     decode_table.obj
 0002:00019c20       ??_C@_0M@EMNNHONL@vfixupimmss@ 710cdc20     decode_table.obj
 0002:00019c2c       ??_C@_0M@EJFOPKEN@vfixupimmsd@ 710cdc2c     decode_table.obj
 0002:00019c38       ??_C@_0N@HGBCCGEP@?$CImod?5ext?582?$CJ@ 710cdc38     decode_table.obj
 0002:00019c48       ??_C@_0N@HHNAEMHI@?$CImod?5ext?583?$CJ@ 710cdc48     decode_table.obj
 0002:00019c58       ??_C@_09PHANLNJL@vgetexpss@ 710cdc58     decode_table.obj
 0002:00019c64       ??_C@_09PCIODJAN@vgetexpsd@ 710cdc64     decode_table.obj
 0002:00019c70       ??_C@_0N@HCJPFKPN@?$CImod?5ext?584?$CJ@ 710cdc70     decode_table.obj
 0002:00019c80       ??_C@_0N@HDFNDAMK@?$CImod?5ext?585?$CJ@ 710cdc80     decode_table.obj
 0002:00019c90       ??_C@_0L@DGAJGBCK@vgetmantss@ 710cdc90     decode_table.obj
 0002:00019c9c       ??_C@_0L@DDIKOFLM@vgetmantsd@ 710cdc9c     decode_table.obj
 0002:00019ca8       ??_C@_09BEOCEGBD@vpblendmb@ 710cdca8     decode_table.obj
 0002:00019cb4       ??_C@_09CDFHKAAH@vpblendmw@ 710cdcb4     decode_table.obj
 0002:00019cc0       ??_C@_09ECLIOBJF@vpblendmd@ 710cdcc0     decode_table.obj
 0002:00019ccc       ??_C@_09HFANAHIB@vpblendmq@ 710cdccc     decode_table.obj
 0002:00019cd8       ??_C@_0M@JGGHPIBP@vpcompressd@ 710cdcd8     decode_table.obj
 0002:00019ce4       ??_C@_0M@KBNCBOAL@vpcompressq@ 710cdce4     decode_table.obj
 0002:00019cf0       ??_C@_09GKMLIPED@vpexpandd@ 710cdcf0     decode_table.obj
 0002:00019cfc       ??_C@_09FNHOGJFH@vpexpandq@ 710cdcfc     decode_table.obj
 0002:00019d08       ??_C@_08DLOKFGMN@vptestmb@ 710cdd08     decode_table.obj
 0002:00019d14       ??_C@_08MFPLANJ@vptestmw@  710cdd14     decode_table.obj
 0002:00019d20       ??_C@_08GNLAPBEL@vptestmd@ 710cdd20     decode_table.obj
 0002:00019d2c       ??_C@_08FKAFBHFP@vptestmq@ 710cdd2c     decode_table.obj
 0002:00019d38       ??_C@_09KLMMLFKN@vptestnmb@ 710cdd38     decode_table.obj
 0002:00019d44       ??_C@_09JMHJFDLJ@vptestnmw@ 710cdd44     decode_table.obj
 0002:00019d50       ??_C@_09PNJGBCCL@vptestnmd@ 710cdd50     decode_table.obj
 0002:00019d5c       ??_C@_09MKCDPEDP@vptestnmq@ 710cdd5c     decode_table.obj
 0002:00019d68       ??_C@_0N@HBBLIOJD@?$CImod?5ext?586?$CJ@ 710cdd68     decode_table.obj
 0002:00019d78       ??_C@_0N@HANJOEKE@?$CImod?5ext?587?$CJ@ 710cdd78     decode_table.obj
 0002:00019d88       ??_C@_08BOEKLOMI@vrangess@ 710cdd88     decode_table.obj
 0002:00019d94       ??_C@_08BLMJDKFO@vrangesd@ 710cdd94     decode_table.obj
 0002:00019da0       ??_C@_0N@HLIFKDJJ@?$CImod?5ext?588?$CJ@ 710cdda0     decode_table.obj
 0002:00019db0       ??_C@_0N@HKEHMJKO@?$CImod?5ext?589?$CJ@ 710cddb0     decode_table.obj
 0002:00019dc0       ??_C@_09FKFCFMO@vreducess@ 710cddc0     decode_table.obj
 0002:00019dcc       ??_C@_09CGKBFI@vreducesd@  710cddcc     decode_table.obj
 0002:00019dd8       ??_C@_0L@IBCINPGI@vrsqrt14ps@ 710cddd8     decode_table.obj
 0002:00019de4       ??_C@_0L@IEKLFLPO@vrsqrt14pd@ 710cdde4     decode_table.obj
 0002:00019df0       ??_C@_0L@IDGOGBDB@vrsqrt14ss@ 710cddf0     decode_table.obj
 0002:00019dfc       ??_C@_0L@IGONOFKH@vrsqrt14sd@ 710cddfc     decode_table.obj
 0002:00019e08       ??_C@_0N@MNCKJFEE@?$CImod?5ext?590?$CJ@ 710cde08     decode_table.obj
 0002:00019e18       ??_C@_0N@MMOIPPHD@?$CImod?5ext?591?$CJ@ 710cde18     decode_table.obj
 0002:00019e28       ??_C@_0L@IOBIKEFJ@vrsqrt28ss@ 710cde28     decode_table.obj
 0002:00019e34       ??_C@_0L@ILJLCAMP@vrsqrt28sd@ 710cde34     decode_table.obj
 0002:00019e40       ??_C@_0N@MOKOEBCK@?$CImod?5ext?592?$CJ@ 710cde40     decode_table.obj
 0002:00019e50       ??_C@_0N@MPGMCLBN@?$CImod?5ext?593?$CJ@ 710cde50     decode_table.obj
 0002:00019e60       ??_C@_09DPKFBOLA@vscalefss@ 710cde60     decode_table.obj
 0002:00019e6c       ??_C@_09DKCGJKCG@vscalefsd@ 710cde6c     decode_table.obj
 0002:00019e78       ??_C@_0L@OIHEOLHP@vfpclassps@ 710cde78     decode_table.obj
 0002:00019e84       ??_C@_0L@ONPHGPOJ@vfpclasspd@ 710cde84     decode_table.obj
 0002:00019e90       ??_C@_0L@OKDCFFCG@vfpclassss@ 710cde90     decode_table.obj
 0002:00019e9c       ??_C@_0L@OPLBNBLA@vfpclasssd@ 710cde9c     decode_table.obj
 0002:00019ea8       ??_C@_0N@MKCDDNJI@?$CImod?5ext?594?$CJ@ 710cdea8     decode_table.obj
 0002:00019eb8       ??_C@_0N@MLOBFHKP@?$CImod?5ext?595?$CJ@ 710cdeb8     decode_table.obj
 0002:00019ec8       ??_C@_0M@LFJMJJPI@vpconflictd@ 710cdec8     decode_table.obj
 0002:00019ed4       ??_C@_0M@ICCJHPOM@vpconflictq@ 710cded4     decode_table.obj
 0002:00019ee0       ??_C@_08IHLCCLCK@vplzcntd@ 710cdee0     decode_table.obj
 0002:00019eec       ??_C@_08LAAHMNDO@vplzcntq@ 710cdeec     decode_table.obj
 0002:00019ef8       ??_C@_0L@HLGFMOAK@vpternlogd@ 710cdef8     decode_table.obj
 0002:00019f04       ??_C@_0L@EMNACIBO@vpternlogq@ 710cdf04     decode_table.obj
 0002:00019f10       ??_C@_0M@IDJBIKDC@vpscatterdd@ 710cdf10     decode_table.obj
 0002:00019f1c       ??_C@_0M@LECEGMCG@vpscatterdq@ 710cdf1c     decode_table.obj
 0002:00019f28       ??_C@_0M@JJHMOLKJ@vpscatterqd@ 710cdf28     decode_table.obj
 0002:00019f34       ??_C@_0M@KOMJANLN@vpscatterqq@ 710cdf34     decode_table.obj
 0002:00019f40       ??_C@_0M@FGOEGHMH@vscatterdps@ 710cdf40     decode_table.obj
 0002:00019f4c       ??_C@_0M@FDGHODFB@vscatterdpd@ 710cdf4c     decode_table.obj
 0002:00019f58       ??_C@_0M@DBCDMAGK@vscatterqps@ 710cdf58     decode_table.obj
 0002:00019f64       ??_C@_0M@DEKAEEPM@vscatterqpd@ 710cdf64     decode_table.obj
 0002:00019f70       ??_C@_0O@PPJHBDIC@vgatherpf0dps@ 710cdf70     decode_table.obj
 0002:00019f80       ??_C@_0O@PKBEJHBE@vgatherpf0dpd@ 710cdf80     decode_table.obj
 0002:00019f90       ??_C@_0O@JIFALECP@vgatherpf0qps@ 710cdf90     decode_table.obj
 0002:00019fa0       ??_C@_0O@JNNDDALJ@vgatherpf0qpd@ 710cdfa0     decode_table.obj
 0002:00019fb0       ??_C@_0O@MCPHDKDC@vgatherpf1dps@ 710cdfb0     decode_table.obj
 0002:00019fc0       ??_C@_0O@MHHELOKE@vgatherpf1dpd@ 710cdfc0     decode_table.obj
 0002:00019fd0       ??_C@_0O@KFDAJNJP@vgatherpf1qps@ 710cdfd0     decode_table.obj
 0002:00019fe0       ??_C@_0O@KALDBJAJ@vgatherpf1qpd@ 710cdfe0     decode_table.obj
 0002:00019ff0       ??_C@_0P@KENBACGB@vscatterpf0dps@ 710cdff0     decode_table.obj
 0002:0001a000       ??_C@_0P@KBFCIGPH@vscatterpf0dpd@ 710ce000     decode_table.obj
 0002:0001a010       ??_C@_0P@MDBGKFMM@vscatterpf0qps@ 710ce010     decode_table.obj
 0002:0001a020       ??_C@_0P@MGJFCBFK@vscatterpf0qpd@ 710ce020     decode_table.obj
 0002:0001a030       ??_C@_0P@JJLBCLNB@vscatterpf1dps@ 710ce030     decode_table.obj
 0002:0001a040       ??_C@_0P@JMDCKPEH@vscatterpf1dpd@ 710ce040     decode_table.obj
 0002:0001a050       ??_C@_0P@POHGIMHM@vscatterpf1qps@ 710ce050     decode_table.obj
 0002:0001a060       ??_C@_0P@PLPFAIOK@vscatterpf1qpd@ 710ce060     decode_table.obj
 0002:0001a070       ??_C@_0N@MJKHOJPG@?$CImod?5ext?596?$CJ@ 710ce070     decode_table.obj
 0002:0001a080       ??_C@_0N@MIGFIDMB@?$CImod?5ext?597?$CJ@ 710ce080     decode_table.obj
 0002:0001a090       ??_C@_0N@MDDJMEPM@?$CImod?5ext?598?$CJ@ 710ce090     decode_table.obj
 0002:0001a0a0       ??_C@_0N@MCPLKOML@?$CImod?5ext?599?$CJ@ 710ce0a0     decode_table.obj
 0002:0001a0b0       ??_C@_0O@BGLNODMJ@?$CImod?5ext?5100?$CJ@ 710ce0b0     decode_table.obj
 0002:0001a0c0       ??_C@_0O@BHHPIJPO@?$CImod?5ext?5101?$CJ@ 710ce0c0     decode_table.obj
 0002:0001a0d0       ??_C@_0O@BFDJDHKH@?$CImod?5ext?5102?$CJ@ 710ce0d0     decode_table.obj
 0002:0001a0e0       ??_C@_0O@BEPLFNJA@?$CImod?5ext?5103?$CJ@ 710ce0e0     decode_table.obj
 0002:0001a0f0       ??_C@_0O@BBLEELBF@?$CImod?5ext?5104?$CJ@ 710ce0f0     decode_table.obj
 0002:0001a100       ??_C@_0O@BAHGCBCC@?$CImod?5ext?5105?$CJ@ 710ce100     decode_table.obj
 0002:0001a110       ??_C@_0O@BCDAJPHL@?$CImod?5ext?5106?$CJ@ 710ce110     decode_table.obj
 0002:0001a120       ??_C@_0O@BDPCPFEM@?$CImod?5ext?5107?$CJ@ 710ce120     decode_table.obj
 0002:0001a130       ??_C@_0O@BIKOLCHB@?$CImod?5ext?5108?$CJ@ 710ce130     decode_table.obj
 0002:0001a140       ??_C@_0O@BJGMNIEG@?$CImod?5ext?5109?$CJ@ 710ce140     decode_table.obj
 0002:0001a150       ??_C@_0O@KPMDOOJL@?$CImod?5ext?5111?$CJ@ 710ce150     decode_table.obj
 0002:0001a160       ??_C@_0M@GPJOEEKI@vpmadd52luq@ 710ce160     decode_table.obj
 0002:0001a16c       ??_C@_0O@KMEHDKPF@?$CImod?5ext?5113?$CJ@ 710ce16c     decode_table.obj
 0002:0001a17c       ??_C@_0O@KNIFFAMC@?$CImod?5ext?5112?$CJ@ 710ce17c     decode_table.obj
 0002:0001a18c       ??_C@_0O@KJAICMHA@?$CImod?5ext?5114?$CJ@ 710ce18c     decode_table.obj
 0002:0001a19c       ??_C@_0O@KIMKEGEH@?$CImod?5ext?5115?$CJ@ 710ce19c     decode_table.obj
 0002:0001a1ac       ??_C@_0M@OAPMNDPP@vpmadd52huq@ 710ce1ac     decode_table.obj
 0002:0001a1b8       ??_C@_0O@KOABIEKM@?$CImod?5ext?5110?$CJ@ 710ce1b8     decode_table.obj
 0002:0001a1c8       ??_C@_0O@KKIMPIBO@?$CImod?5ext?5116?$CJ@ 710ce1c8     decode_table.obj
 0002:0001a1d8       ??_C@_0O@KLEOJCCJ@?$CImod?5ext?5117?$CJ@ 710ce1d8     decode_table.obj
 0002:0001a1e8       ??_C@_0M@HOAEGPGI@vrndscaless@ 710ce1e8     decode_table.obj
 0002:0001a1f4       ??_C@_0M@HLIHOLPO@vrndscalesd@ 710ce1f4     decode_table.obj
 0002:0001a200       ??_C@_0O@KABCNFBE@?$CImod?5ext?5118?$CJ@ 710ce200     decode_table.obj
 0002:0001a210       ??_C@_0O@KBNALPCD@?$CImod?5ext?5119?$CJ@ 710ce210     decode_table.obj
 0002:0001a220       ??_C@_09JPGCKMF@vpmacssww@ 710ce220     decode_table.obj
 0002:0001a22c       ??_C@_09GIBJGLFH@vpmacsswd@ 710ce22c     decode_table.obj
 0002:0001a238       ??_C@_0L@GEGOGAHN@vpmacssdql@ 710ce238     decode_table.obj
 0002:0001a244       ??_C@_09HGHJHGHO@vpmacssdd@ 710ce244     decode_table.obj
 0002:0001a250       ??_C@_0L@CKFHJ@vpmacssdqh@ 710ce250     decode_table.obj
 0002:0001a25c       ??_C@_08IJAOKCEP@vpmacsww@ 710ce25c     decode_table.obj
 0002:0001a268       ??_C@_08OIOBODNN@vpmacswd@ 710ce268     decode_table.obj
 0002:0001a274       ??_C@_09GJIDPCML@vpmacsdql@ 710ce274     decode_table.obj
 0002:0001a280       ??_C@_08PGIBPOPE@vpmacsdd@ 710ce280     decode_table.obj
 0002:0001a28c       ??_C@_09NOPDHMP@vpmacsdqh@ 710ce28c     decode_table.obj
 0002:0001a298       ??_C@_0P@MPAOHMGN@?$CIvex_W?5ext?550?$CJ@ 710ce298     decode_table.obj
 0002:0001a2a8       ??_C@_0P@MOMMBGFK@?$CIvex_W?5ext?551?$CJ@ 710ce2a8     decode_table.obj
 0002:0001a2b8       ??_C@_0L@KDIFMFPE@vpmadcsswd@ 710ce2b8     decode_table.obj
 0002:0001a2c4       ??_C@_09BFPMMMGN@vpmadcswd@ 710ce2c4     decode_table.obj
 0002:0001a2d0       ??_C@_06EMBKHDMP@vpcomb@   710ce2d0     decode_table.obj
 0002:0001a2d8       ??_C@_06HLKPJFNL@vpcomw@   710ce2d8     decode_table.obj
 0002:0001a2e0       ??_C@_06BKEANEEJ@vpcomd@   710ce2e0     decode_table.obj
 0002:0001a2e8       ??_C@_06CNPFDCFN@vpcomq@   710ce2e8     decode_table.obj
 0002:0001a2f0       ??_C@_07EFDFHJIC@vpcomub@  710ce2f0     decode_table.obj
 0002:0001a2f8       ??_C@_07HCIAJPJG@vpcomuw@  710ce2f8     decode_table.obj
 0002:0001a300       ??_C@_07BDGPNOAE@vpcomud@  710ce300     decode_table.obj
 0002:0001a308       ??_C@_07CENKDIBA@vpcomuq@  710ce308     decode_table.obj
 0002:0001a310       ??_C@_07NEJNGCJE@vfrczps@  710ce310     decode_table.obj
 0002:0001a318       ??_C@_07NBBOOGAC@vfrczpd@  710ce318     decode_table.obj
 0002:0001a320       ??_C@_07NGNLNMMN@vfrczss@  710ce320     decode_table.obj
 0002:0001a328       ??_C@_07NDFIFIFL@vfrczsd@  710ce328     decode_table.obj
 0002:0001a330       ??_C@_0P@MMIKKIAD@?$CIvex_W?5ext?552?$CJ@ 710ce330     decode_table.obj
 0002:0001a340       ??_C@_0P@MNEIMCDE@?$CIvex_W?5ext?553?$CJ@ 710ce340     decode_table.obj
 0002:0001a350       ??_C@_0P@MIAHNELB@?$CIvex_W?5ext?554?$CJ@ 710ce350     decode_table.obj
 0002:0001a360       ??_C@_0P@MJMFLOIG@?$CIvex_W?5ext?555?$CJ@ 710ce360     decode_table.obj
 0002:0001a370       ??_C@_0P@MLIDAANP@?$CIvex_W?5ext?556?$CJ@ 710ce370     decode_table.obj
 0002:0001a380       ??_C@_0P@MKEBGKOI@?$CIvex_W?5ext?557?$CJ@ 710ce380     decode_table.obj
 0002:0001a390       ??_C@_0P@MBBNCNNF@?$CIvex_W?5ext?558?$CJ@ 710ce390     decode_table.obj
 0002:0001a3a0       ??_C@_0P@MANPEHOC@?$CIvex_W?5ext?559?$CJ@ 710ce3a0     decode_table.obj
 0002:0001a3b0       ??_C@_0P@NNLLNDID@?$CIvex_W?5ext?560?$CJ@ 710ce3b0     decode_table.obj
 0002:0001a3c0       ??_C@_0P@NMHJLJLE@?$CIvex_W?5ext?561?$CJ@ 710ce3c0     decode_table.obj
 0002:0001a3d0       ??_C@_0P@NODPAHON@?$CIvex_W?5ext?562?$CJ@ 710ce3d0     decode_table.obj
 0002:0001a3e0       ??_C@_0P@NPPNGNNK@?$CIvex_W?5ext?563?$CJ@ 710ce3e0     decode_table.obj
 0002:0001a3f0       ??_C@_08LODFFPEF@vphaddbw@ 710ce3f0     decode_table.obj
 0002:0001a3fc       ??_C@_08NPNKBONH@vphaddbd@ 710ce3fc     decode_table.obj
 0002:0001a408       ??_C@_08OIGPPIMD@vphaddbq@ 710ce408     decode_table.obj
 0002:0001a414       ??_C@_08MFDHHPEM@vphaddwd@ 710ce414     decode_table.obj
 0002:0001a420       ??_C@_08PCICJJFI@vphaddwq@ 710ce420     decode_table.obj
 0002:0001a42c       ??_C@_08OMOCIEHB@vphadddq@ 710ce42c     decode_table.obj
 0002:0001a438       ??_C@_09LBFFGBMM@vphaddubw@ 710ce438     decode_table.obj
 0002:0001a444       ??_C@_09NALKCAFO@vphaddubd@ 710ce444     decode_table.obj
 0002:0001a450       ??_C@_09OHAPMGEK@vphaddubq@ 710ce450     decode_table.obj
 0002:0001a45c       ??_C@_09MKFHEBMF@vphadduwd@ 710ce45c     decode_table.obj
 0002:0001a468       ??_C@_09PNOCKHNB@vphadduwq@ 710ce468     decode_table.obj
 0002:0001a474       ??_C@_09ODICLKPI@vphaddudq@ 710ce474     decode_table.obj
 0002:0001a480       ??_C@_08IIMABNDL@vphsubbw@ 710ce480     decode_table.obj
 0002:0001a48c       ??_C@_08PDMCDNDC@vphsubwd@ 710ce48c     decode_table.obj
 0002:0001a498       ??_C@_08NKBHMGAP@vphsubdq@ 710ce498     decode_table.obj
 0002:0001a4a4       ??_C@_0O@DOINHHPM@?$CIXOP?5group?51?$CJ@ 710ce4a4     decode_table.obj
 0002:0001a4b4       ??_C@_0O@DMMLMJKF@?$CIXOP?5group?52?$CJ@ 710ce4b4     decode_table.obj
 0002:0001a4c4       ??_C@_0O@DNAJKDJC@?$CIXOP?5group?53?$CJ@ 710ce4c4     decode_table.obj
 0002:0001a4d4       ??_C@_0O@DIEGLFBH@?$CIXOP?5group?54?$CJ@ 710ce4d4     decode_table.obj
 0002:0001a4e4       ??_C@_03NOMOFEHF@ins@      710ce4e4     decode_table.obj
 0002:0001a4e8       ??_C@_07GHLAIDGK@rep?5ins@ 710ce4e8     decode_table.obj
 0002:0001a4f0       ??_C@_04CJLEFCGJ@outs@     710ce4f0     decode_table.obj
 0002:0001a4f8       ??_C@_08KEAFCBEL@rep?5outs@ 710ce4f8     decode_table.obj
 0002:0001a504       ??_C@_04GPFEGCJM@movs@     710ce504     decode_table.obj
 0002:0001a50c       ??_C@_08OCOFBBLO@rep?5movs@ 710ce50c     decode_table.obj
 0002:0001a518       ??_C@_04CEGLADBO@stos@     710ce518     decode_table.obj
 0002:0001a520       ??_C@_08KJNKHADM@rep?5stos@ 710ce520     decode_table.obj
 0002:0001a52c       ??_C@_04ENJGDMDC@lods@     710ce52c     decode_table.obj
 0002:0001a534       ??_C@_08MACHEPBA@rep?5lods@ 710ce534     decode_table.obj
 0002:0001a540       ??_C@_04HOOAGIME@cmps@     710ce540     decode_table.obj
 0002:0001a548       ??_C@_08PDFBBLOG@rep?5cmps@ 710ce548     decode_table.obj
 0002:0001a554       ??_C@_0L@KJCFBNBL@repne?5cmps@ 710ce554     decode_table.obj
 0002:0001a560       ??_C@_04ODDLEBDC@scas@     710ce560     decode_table.obj
 0002:0001a568       ??_C@_08GOIKDCBA@rep?5scas@ 710ce568     decode_table.obj
 0002:0001a574       ??_C@_0L@DEPODEON@repne?5scas@ 710ce574     decode_table.obj
 0002:0001a580       ??_C@_04OCHKNHDG@fadd@     710ce580     decode_table.obj
 0002:0001a588       ??_C@_04HNJBCLMB@fmul@     710ce588     decode_table.obj
 0002:0001a590       ??_C@_04JFOEELBF@fcom@     710ce590     decode_table.obj
 0002:0001a598       ??_C@_05ECHHHJFG@fcomp@    710ce598     decode_table.obj
 0002:0001a5a0       ??_C@_04FDNECGOD@fsub@     710ce5a0     decode_table.obj
 0002:0001a5a8       ??_C@_05CEFJHMJA@fsubr@    710ce5a8     decode_table.obj
 0002:0001a5b0       ??_C@_04KFIIMEIE@fdiv@     710ce5b0     decode_table.obj
 0002:0001a5b8       ??_C@_05PHHJNEIJ@fdivr@    710ce5b8     decode_table.obj
 0002:0001a5c0       ??_C@_03IAKKBENL@fld@      710ce5c0     decode_table.obj
 0002:0001a5c4       ??_C@_03NNBCOCMH@fst@      710ce5c4     decode_table.obj
 0002:0001a5c8       ??_C@_04CKOCDMAH@fstp@     710ce5c8     decode_table.obj
 0002:0001a5d0       ??_C@_06KOKFHIJJ@fldenv@   710ce5d0     decode_table.obj
 0002:0001a5d8       ??_C@_05FCPJNCEL@fldcw@    710ce5d8     decode_table.obj
 0002:0001a5e0       ??_C@_07OBOALIBJ@fnstenv@  710ce5e0     decode_table.obj
 0002:0001a5e8       ??_C@_06MIMLAAOI@fnstcw@   710ce5e8     decode_table.obj
 0002:0001a5f0       ??_C@_05MJGHPKBO@fiadd@    710ce5f0     decode_table.obj
 0002:0001a5f8       ??_C@_05FGIMAGOJ@fimul@    710ce5f8     decode_table.obj
 0002:0001a600       ??_C@_05LOPJGGDN@ficom@    710ce600     decode_table.obj
 0002:0001a608       ??_C@_06HHOJMMIB@ficomp@   710ce608     decode_table.obj
 0002:0001a610       ??_C@_05HIMJALML@fisub@    710ce610     decode_table.obj
 0002:0001a618       ??_C@_06BBMHMJEH@fisubr@   710ce618     decode_table.obj
 0002:0001a620       ??_C@_05IOJFOJKM@fidiv@    710ce620     decode_table.obj
 0002:0001a628       ??_C@_06MCOHGBFO@fidivr@   710ce628     decode_table.obj
 0002:0001a630       ??_C@_04CJNNKOGB@fild@     710ce630     decode_table.obj
 0002:0001a638       ??_C@_06IDOGBDGC@fisttp@   710ce638     decode_table.obj
 0002:0001a640       ??_C@_04HEGFFIHN@fist@     710ce640     decode_table.obj
 0002:0001a648       ??_C@_05BPPBBCP@fistp@     710ce648     decode_table.obj
 0002:0001a650       ??_C@_06MILCMPCJ@frstor@   710ce650     decode_table.obj
 0002:0001a658       ??_C@_06MNBFLGAN@fnsave@   710ce658     decode_table.obj
 0002:0001a660       ??_C@_06NEONKDJI@fnstsw@   710ce660     decode_table.obj
 0002:0001a668       ??_C@_04PONMCJGA@fbld@     710ce668     decode_table.obj
 0002:0001a670       ??_C@_05HGCPCADO@fbstp@    710ce670     decode_table.obj
 0002:0001a678       ??_C@_04GGJBJGKK@fxch@     710ce678     decode_table.obj
 0002:0001a680       ??_C@_04JIOCPPNE@fnop@     710ce680     decode_table.obj
 0002:0001a688       ??_C@_04EEOKGCEP@fchs@     710ce688     decode_table.obj
 0002:0001a690       ??_C@_04ODHECPBC@fabs@     710ce690     decode_table.obj
 0002:0001a698       ??_C@_04NGBGNHDP@ftst@     710ce698     decode_table.obj
 0002:0001a6a0       ??_C@_04BIGCLGIB@fxam@     710ce6a0     decode_table.obj
 0002:0001a6a8       ??_C@_04NHNMKGPK@fld1@     710ce6a8     decode_table.obj
 0002:0001a6b0       ??_C@_06IEDNICEF@fldl2t@   710ce6b0     decode_table.obj
 0002:0001a6b8       ??_C@_06NHOEKBFF@fldl2e@   710ce6b8     decode_table.obj
 0002:0001a6c0       ??_C@_05JINIPALN@fldpi@    710ce6c0     decode_table.obj
 0002:0001a6c8       ??_C@_06EIGJIGJN@fldlg2@   710ce6c8     decode_table.obj
 0002:0001a6d0       ??_C@_06EHLILNBC@fldln2@   710ce6d0     decode_table.obj
 0002:0001a6d8       ??_C@_04MEFBDADE@fldz@     710ce6d8     decode_table.obj
 0002:0001a6e0       ??_C@_05GDKIIOEP@f2xm1@    710ce6e0     decode_table.obj
 0002:0001a6e8       ??_C@_05NFKLLKBO@fyl2x@    710ce6e8     decode_table.obj
 0002:0001a6f0       ??_C@_05DPHEICCB@fptan@    710ce6f0     decode_table.obj
 0002:0001a6f8       ??_C@_06HDLDNKJH@fpatan@   710ce6f8     decode_table.obj
 0002:0001a700       ??_C@_07MCCHLCHD@fxtract@  710ce700     decode_table.obj
 0002:0001a708       ??_C@_06IIGPLPMA@fprem1@   710ce708     decode_table.obj
 0002:0001a710       ??_C@_07HAEGMECA@fdecstp@  710ce710     decode_table.obj
 0002:0001a718       ??_C@_07HLFGFFCD@fincstp@  710ce718     decode_table.obj
 0002:0001a720       ??_C@_05DGDLCGOC@fprem@    710ce720     decode_table.obj
 0002:0001a728       ??_C@_07GNFJNPAE@fyl2xp1@  710ce728     decode_table.obj
 0002:0001a730       ??_C@_05OBEHOPDB@fsqrt@    710ce730     decode_table.obj
 0002:0001a738       ??_C@_07DGCKCKGH@fsincos@  710ce738     decode_table.obj
 0002:0001a740       ??_C@_07OGNGBFFO@frndint@  710ce740     decode_table.obj
 0002:0001a748       ??_C@_06DAMBGGM@fscale@    710ce748     decode_table.obj
 0002:0001a750       ??_C@_04OKFNDDPL@fsin@     710ce750     decode_table.obj
 0002:0001a758       ??_C@_04EBKFHEMK@fcos@     710ce758     decode_table.obj
 0002:0001a760       ??_C@_06BMFGNME@fcmovb@    710ce760     decode_table.obj
 0002:0001a768       ??_C@_06EOIEPLAD@fcmove@   710ce768     decode_table.obj
 0002:0001a770       ??_C@_07IEICFMCG@fcmovbe@  710ce770     decode_table.obj
 0002:0001a778       ??_C@_06EEGOJFC@fcmovu@    710ce778     decode_table.obj
 0002:0001a780       ??_C@_07BFIJNFDG@fucompp@  710ce780     decode_table.obj
 0002:0001a788       ??_C@_07MCNJDDIF@fcmovnb@  710ce788     decode_table.obj
 0002:0001a790       ??_C@_07INJIKFEC@fcmovne@  710ce790     decode_table.obj
 0002:0001a798       ??_C@_08IFJKDBHO@fcmovnbe@ 710ce798     decode_table.obj
 0002:0001a7a4       ??_C@_07MHFKLHBD@fcmovnu@  710ce7a4     decode_table.obj
 0002:0001a7ac       ??_C@_06LOJDIIGH@fnclex@   710ce7ac     decode_table.obj
 0002:0001a7b4       ??_C@_06PLIFOOCF@fninit@   710ce7b4     decode_table.obj
 0002:0001a7bc       ??_C@_06JIPNKHHJ@fucomi@   710ce7bc     decode_table.obj
 0002:0001a7c4       ??_C@_05NJHHNAEO@fcomi@    710ce7c4     decode_table.obj
 0002:0001a7cc       ??_C@_05BBECMOMI@ffree@    710ce7cc     decode_table.obj
 0002:0001a7d4       ??_C@_05BLOJBMLO@fucom@    710ce7d4     decode_table.obj
 0002:0001a7dc       ??_C@_06DPNAOGB@fucomp@    710ce7dc     decode_table.obj
 0002:0001a7e4       ??_C@_05OAGHJGLI@faddp@    710ce7e4     decode_table.obj
 0002:0001a7ec       ??_C@_05MDCBBKPL@fmulp@    710ce7ec     decode_table.obj
 0002:0001a7f4       ??_C@_06KNHFPKEO@fcompp@   710ce7f4     decode_table.obj
 0002:0001a7fc       ??_C@_06NPBELDMO@fsubrp@   710ce7fc     decode_table.obj
 0002:0001a804       ??_C@_05BGGPBOBC@fsubp@    710ce804     decode_table.obj
 0002:0001a80c       ??_C@_06LLKMDLKG@fdivrp@   710ce80c     decode_table.obj
 0002:0001a814       ??_C@_05MFEPLGAL@fdivp@    710ce814     decode_table.obj
 0002:0001a81c       ??_C@_06LKJBHBLK@ffreep@   710ce81c     decode_table.obj
 0002:0001a824       ??_C@_07GHOENMJ@fucomip@   710ce824     decode_table.obj
 0002:0001a82c       ??_C@_06LOICGCLB@fcomip@   710ce82c     decode_table.obj
 0002:0001a834       ??_C@_0O@CGKOEFJK@unknown?53DNow@ 710ce834     decode_table.obj
 0002:0001a844       ??_C@_07LALIDMFE@pavgusb@  710ce844     decode_table.obj
 0002:0001a84c       ??_C@_05JOLIIMEJ@pfadd@    710ce84c     decode_table.obj
 0002:0001a854       ??_C@_05NELGAMAL@pfacc@    710ce854     decode_table.obj
 0002:0001a85c       ??_C@_07PAEOEAK@pfcmpge@   710ce85c     decode_table.obj
 0002:0001a864       ??_C@_07FMNNMHBK@pfcmpgt@  710ce864     decode_table.obj
 0002:0001a86c       ??_C@_07CCCOOHDB@pfcmpeq@  710ce86c     decode_table.obj
 0002:0001a874       ??_C@_05CGFJEICI@pfmin@    710ce874     decode_table.obj
 0002:0001a87c       ??_C@_05DENCKMEH@pfmax@    710ce87c     decode_table.obj
 0002:0001a884       ??_C@_05BFDHALO@pfmul@     710ce884     decode_table.obj
 0002:0001a88c       ??_C@_05PHPFLFOI@pfrcp@    710ce88c     decode_table.obj
 0002:0001a894       ??_C@_08CABPKCDG@pfrcpit1@ 710ce894     decode_table.obj
 0002:0001a8a0       ??_C@_08LDCPBPF@pfrcpit2@  710ce8a0     decode_table.obj
 0002:0001a8ac       ??_C@_07OJNGDJDJ@pfrsqrt@  710ce8ac     decode_table.obj
 0002:0001a8b4       ??_C@_08BOKJIJBN@pfrsqit1@ 710ce8b4     decode_table.obj
 0002:0001a8c0       ??_C@_07BCFIBGPO@pmulhrw@  710ce8c0     decode_table.obj
 0002:0001a8c8       ??_C@_05CPBGHNJM@pfsub@    710ce8c8     decode_table.obj
 0002:0001a8d0       ??_C@_06OEJPNCGG@pfsubr@   710ce8d0     decode_table.obj
 0002:0001a8d8       ??_C@_05MGNEGPLK@pi2fd@    710ce8d8     decode_table.obj
 0002:0001a8e0       ??_C@_05EPNILPFG@pf2id@    710ce8e0     decode_table.obj
 0002:0001a8e8       ??_C@_05KHDLCOCI@pi2fw@    710ce8e8     decode_table.obj
 0002:0001a8f0       ??_C@_05CODHPOME@pf2iw@    710ce8f0     decode_table.obj
 0002:0001a8f8       ??_C@_06PBIPAILK@pfnacc@   710ce8f8     decode_table.obj
 0002:0001a900       ??_C@_07HEBANBEP@pfpnacc@  710ce900     decode_table.obj
 0002:0001a908       ??_C@_06JOEFOFIP@pswapd@   710ce908     decode_table.obj
 0002:0001a910       ??_C@_0P@MHBFBNBM@?$DMpusha?5cont?8d?$DO@ 710ce910     decode_table.obj
 0002:0001a920       ??_C@_0O@CDGLDPDF@?$DMpopa?5cont?8d?$DO@ 710ce920     decode_table.obj
 0002:0001a930       ??_C@_0P@FFPMIAH@?$DMenter?5cont?8d?$DO@ 710ce930     decode_table.obj
 0002:0001a940       ??_C@_0P@IHDAGNM@?$DMcpuid?5cont?8d?$DO@ 710ce940     decode_table.obj
 0002:0001a950       ??_C@_0BD@JJFJKJHD@?$DMcmpxchg8b?5cont?8d?$DO@ 710ce950     decode_table.obj
 0002:0001a964       ??_C@_0BC@MCLPHPNC@?$DMpcmpestrm?5cont?8d@ 710ce964     decode_table.obj
 0002:0001a978       ??_C@_0BC@JPFDCONO@?$DMpcmpestri?5cont?8d@ 710ce978     decode_table.obj
 0002:0001a98c       ??_C@_0BA@MEAKKHON@?$DMrdtscp?5cont?8d?$DO@ 710ce98c     decode_table.obj
 0002:0001a99c       ??_C@_0BD@CKLJBGG@?$DMvpcmpestrm?5cont?8d@ 710ce99c     decode_table.obj
 0002:0001a9b0       ??_C@_0BD@FPEHMAGK@?$DMvpcmpestri?5cont?8d@ 710ce9b0     decode_table.obj
 0002:0001a9c4       ??_C@_0P@NFIMNCF@?$DMgetsec?5cont?8d@ 710ce9c4     decode_table.obj
 0002:0001a9d4       ??_C@_0BE@MMLNGFHE@?$DMvfmadd132ps?5cont?8d@ 710ce9d4     decode_table.obj
 0002:0001a9e8       ??_C@_0BE@EBMEKMM@?$DMvfmadd132pd?5cont?8d@ 710ce9e8     decode_table.obj
 0002:0001a9fc       ??_C@_0BE@FMMCEIOF@?$DMvfmadd213ps?5cont?8d@ 710ce9fc     decode_table.obj
 0002:0001aa10       ??_C@_0BE@JEGDGHFN@?$DMvfmadd213pd?5cont?8d@ 710cea10     decode_table.obj
 0002:0001aa24       ??_C@_0BE@OIJFGPLL@?$DMvfmadd231ps?5cont?8d@ 710cea24     decode_table.obj
 0002:0001aa38       ??_C@_0BE@CADEEAAD@?$DMvfmadd231pd?5cont?8d@ 710cea38     decode_table.obj
 0002:0001aa4c       ??_C@_0BE@CHIKNOHH@?$DMvfmadd132ss?5cont?8d@ 710cea4c     decode_table.obj
 0002:0001aa60       ??_C@_0BE@OPCLPBMP@?$DMvfmadd132sd?5cont?8d@ 710cea60     decode_table.obj
 0002:0001aa74       ??_C@_0BE@LHPFPDOG@?$DMvfmadd213ss?5cont?8d@ 710cea74     decode_table.obj
 0002:0001aa88       ??_C@_0BE@HPFENMFO@?$DMvfmadd213sd?5cont?8d@ 710cea88     decode_table.obj
 0002:0001aa9c       ??_C@_0BE@DKCNELI@?$DMvfmadd231ss?5cont?8d@ 710cea9c     decode_table.obj
 0002:0001aab0       ??_C@_0BE@MLADPLAA@?$DMvfmadd231sd?5cont?8d@ 710ceab0     decode_table.obj
 0002:0001aac4       ??_C@_0BH@FHOCAFHA@?$DMvfmaddsub132ps?5cont?8d@ 710ceac4     decode_table.obj
 0002:0001aadc       ??_C@_0BH@JPEDCKMI@?$DMvfmaddsub132pd?5cont?8d@ 710ceadc     decode_table.obj
 0002:0001aaf4       ??_C@_0BH@MHJNCIOB@?$DMvfmaddsub213ps?5cont?8d@ 710ceaf4     decode_table.obj
 0002:0001ab0c       ??_C@_0BH@PDMAHFJ@?$DMvfmaddsub213pd?5cont?8d@ 710ceb0c     decode_table.obj
 0002:0001ab24       ??_C@_0BH@HDMKAPLP@?$DMvfmaddsub231ps?5cont?8d@ 710ceb24     decode_table.obj
 0002:0001ab3c       ??_C@_0BH@LLGLCAAH@?$DMvfmaddsub231pd?5cont?8d@ 710ceb3c     decode_table.obj
 0002:0001ab54       ??_C@_0BH@DCANHBJG@?$DMvfmsubadd132ps?5cont?8d@ 710ceb54     decode_table.obj
 0002:0001ab6c       ??_C@_0BH@PKKMFOCO@?$DMvfmsubadd132pd?5cont?8d@ 710ceb6c     decode_table.obj
 0002:0001ab84       ??_C@_0BH@KCHCFMAH@?$DMvfmsubadd213ps?5cont?8d@ 710ceb84     decode_table.obj
 0002:0001ab9c       ??_C@_0BH@GKNDHDLP@?$DMvfmsubadd213pd?5cont?8d@ 710ceb9c     decode_table.obj
 0002:0001abb4       ??_C@_0BH@BGCFHLFJ@?$DMvfmsubadd231ps?5cont?8d@ 710cebb4     decode_table.obj
 0002:0001abcc       ??_C@_0BH@NOIEFEOB@?$DMvfmsubadd231pd?5cont?8d@ 710cebcc     decode_table.obj
 0002:0001abe4       ??_C@_0BE@KIGBHBJI@?$DMvfmsub132ps?5cont?8d@ 710cebe4     decode_table.obj
 0002:0001abf8       ??_C@_0BE@GAMAFOCA@?$DMvfmsub132pd?5cont?8d@ 710cebf8     decode_table.obj
 0002:0001ac0c       ??_C@_0BE@DIBOFMAJ@?$DMvfmsub213ps?5cont?8d@ 710cec0c     decode_table.obj
 0002:0001ac20       ??_C@_0BE@PALPHDLB@?$DMvfmsub213pd?5cont?8d@ 710cec20     decode_table.obj
 0002:0001ac34       ??_C@_0BE@IMEJHLFH@?$DMvfmsub231ps?5cont?8d@ 710cec34     decode_table.obj
 0002:0001ac48       ??_C@_0BE@EEOIFEOP@?$DMvfmsub231pd?5cont?8d@ 710cec48     decode_table.obj
 0002:0001ac5c       ??_C@_0BE@EDFGMKJL@?$DMvfmsub132ss?5cont?8d@ 710cec5c     decode_table.obj
 0002:0001ac70       ??_C@_0BE@ILPHOFCD@?$DMvfmsub132sd?5cont?8d@ 710cec70     decode_table.obj
 0002:0001ac84       ??_C@_0BE@NDCJOHAK@?$DMvfmsub213ss?5cont?8d@ 710cec84     decode_table.obj
 0002:0001ac98       ??_C@_0BE@BLIIMILC@?$DMvfmsub213sd?5cont?8d@ 710cec98     decode_table.obj
 0002:0001acac       ??_C@_0BE@GHHOMAFE@?$DMvfmsub231ss?5cont?8d@ 710cecac     decode_table.obj
 0002:0001acc0       ??_C@_0BE@KPNPOPOM@?$DMvfmsub231sd?5cont?8d@ 710cecc0     decode_table.obj
 0002:0001acd4       ??_C@_0BF@PLFJEKF@?$DMvfnmadd132ps?5cont?8d@ 710cecd4     decode_table.obj
 0002:0001acec       ??_C@_0BF@MHBELLBN@?$DMvfnmadd132pd?5cont?8d@ 710cecec     decode_table.obj
 0002:0001ad04       ??_C@_0BF@JPMKLJDE@?$DMvfnmadd213ps?5cont?8d@ 710ced04     decode_table.obj
 0002:0001ad1c       ??_C@_0BF@FHGLJGIM@?$DMvfnmadd213pd?5cont?8d@ 710ced1c     decode_table.obj
 0002:0001ad34       ??_C@_0BF@CLJNJOGK@?$DMvfnmadd231ps?5cont?8d@ 710ced34     decode_table.obj
 0002:0001ad4c       ??_C@_0BF@ODDMLBNC@?$DMvfnmadd231pd?5cont?8d@ 710ced4c     decode_table.obj
 0002:0001ad64       ??_C@_0BF@OEICCPKG@?$DMvfnmadd132ss?5cont?8d@ 710ced64     decode_table.obj
 0002:0001ad7c       ??_C@_0BF@CMCDAABO@?$DMvfnmadd132sd?5cont?8d@ 710ced7c     decode_table.obj
 0002:0001ad94       ??_C@_0BF@HEPNACDH@?$DMvfnmadd213ss?5cont?8d@ 710ced94     decode_table.obj
 0002:0001adac       ??_C@_0BF@LMFMCNIP@?$DMvfnmadd213sd?5cont?8d@ 710cedac     decode_table.obj
 0002:0001adc4       ??_C@_0BF@MAKKCFGJ@?$DMvfnmadd231ss?5cont?8d@ 710cedc4     decode_table.obj
 0002:0001addc       ??_C@_0BF@IALAKNB@?$DMvfnmadd231sd?5cont?8d@ 710ceddc     decode_table.obj
 0002:0001adf4       ??_C@_0BF@GLGJIAEJ@?$DMvfnmsub132ps?5cont?8d@ 710cedf4     decode_table.obj
 0002:0001ae0c       ??_C@_0BF@KDMIKPPB@?$DMvfnmsub132pd?5cont?8d@ 710cee0c     decode_table.obj
 0002:0001ae24       ??_C@_0BF@PLBGKNNI@?$DMvfnmsub213ps?5cont?8d@ 710cee24     decode_table.obj
 0002:0001ae3c       ??_C@_0BF@DDLHICGA@?$DMvfnmsub213pd?5cont?8d@ 710cee3c     decode_table.obj
 0002:0001ae54       ??_C@_0BF@EPEBIKIG@?$DMvfnmsub231ps?5cont?8d@ 710cee54     decode_table.obj
 0002:0001ae6c       ??_C@_0BF@IHOAKFDO@?$DMvfnmsub231pd?5cont?8d@ 710cee6c     decode_table.obj
 0002:0001ae84       ??_C@_0BF@IAFODLEK@?$DMvfnmsub132ss?5cont?8d@ 710cee84     decode_table.obj
 0002:0001ae9c       ??_C@_0BF@EIPPBEPC@?$DMvfnmsub132sd?5cont?8d@ 710cee9c     decode_table.obj
 0002:0001aeb4       ??_C@_0BF@BACBBGNL@?$DMvfnmsub213ss?5cont?8d@ 710ceeb4     decode_table.obj
 0002:0001aecc       ??_C@_0BF@NIIADJGD@?$DMvfnmsub213sd?5cont?8d@ 710ceecc     decode_table.obj
 0002:0001aee4       ??_C@_0BF@KEHGDBIF@?$DMvfnmsub231ss?5cont?8d@ 710ceee4     decode_table.obj
 0002:0001aefc       ??_C@_0BF@GMNHBODN@?$DMvfnmsub231sd?5cont?8d@ 710ceefc     decode_table.obj
 0002:0001af14       ??_C@_0BE@LGGPCDDK@vinsertf32x4?5cont?8d@ 710cef14     decode_table.obj
 0002:0001af28       ??_C@_0BE@LFGDOHOD@vinsertf64x2?5cont?8d@ 710cef28     decode_table.obj
 0002:0001af3c       ??_C@_0BE@FAFLNACO@vinsertf32x8?5cont?8d@ 710cef3c     decode_table.obj
 0002:0001af50       ??_C@_0BE@MGHJJOGJ@vinsertf64x4?5cont?8d@ 710cef50     decode_table.obj
 0002:0001af64       ??_C@_0BE@JBBPPGAP@vinserti32x4?5cont?8d@ 710cef64     decode_table.obj
 0002:0001af78       ??_C@_0BE@JCBDDCNG@vinserti64x2?5cont?8d@ 710cef78     decode_table.obj
 0002:0001af8c       ??_C@_0BE@HHCLAFBL@vinserti32x8?5cont?8d@ 710cef8c     decode_table.obj
 0002:0001afa0       ??_C@_0BE@OBAJELFM@vinserti64x4?5cont?8d@ 710cefa0     decode_table.obj
 0002:0001afb4       ??_C@_0P@DLLAKGPI@vpcmpub?5cont?8d@ 710cefb4     decode_table.obj
 0002:0001afc4       ??_C@_0O@ICALMCLC@vpcmpb?5cont?8d@ 710cefc4     decode_table.obj
 0002:0001afd4       ??_C@_0P@NNOHKBMG@vpcmpuw?5cont?8d@ 710cefd4     decode_table.obj
 0002:0001afe4       ??_C@_0O@GEFMMFIM@vpcmpw?5cont?8d@ 710cefe4     decode_table.obj
 0002:0001aff4       ??_C@_0P@EIKKNPHC@vpcmpud?5cont?8d@ 710ceff4     decode_table.obj
 0002:0001b004       ??_C@_0O@PBBBLLDI@vpcmpd?5cont?8d@ 710cf004     decode_table.obj
 0002:0001b014       ??_C@_0P@KOPNNIEM@vpcmpuq?5cont?8d@ 710cf014     decode_table.obj
 0002:0001b024       ??_C@_0O@BHEGLMAG@vpcmpq?5cont?8d@ 710cf024     decode_table.obj
 0002:0001b034       ??_C@_0O@LMCOAEEG@vcmpps?5cont?8d@ 710cf034     decode_table.obj
 0002:0001b044       ??_C@_0O@FHBJLPEF@vcmpss?5cont?8d@ 710cf044     decode_table.obj
 0002:0001b054       ??_C@_0O@JPLIJAPN@vcmpsd?5cont?8d@ 710cf054     decode_table.obj
 0002:0001b064       ??_C@_0O@HEIPCLPO@vcmppd?5cont?8d@ 710cf064     decode_table.obj
 0002:0001b074       ??_C@_0P@LBNNDEHM@vshufps?5cont?8d@ 710cf074     decode_table.obj
 0002:0001b084       ??_C@_0P@HJHMBLME@vshufpd?5cont?8d@ 710cf084     decode_table.obj
 0002:0001b094       ??_C@_0BC@MOKPBGA@vshuff32x4?5cont?8d@ 710cf094     decode_table.obj
 0002:0001b0a8       ??_C@_0BC@POGDFLJ@vshuff64x2?5cont?8d@ 710cf0a8     decode_table.obj
 0002:0001b0bc       ??_C@_0BC@CLJKCEFF@vshufi32x4?5cont?8d@ 710cf0bc     decode_table.obj
 0002:0001b0d0       ??_C@_0BC@CIJGOAIM@vshufi64x2?5cont?8d@ 710cf0d0     decode_table.obj
 0002:0001b0e4       ??_C@_0P@MPOCEHHF@valignd?5cont?8d@ 710cf0e4     decode_table.obj
 0002:0001b0f4       ??_C@_0P@CJLFEAEL@valignq?5cont?8d@ 710cf0f4     decode_table.obj
 0002:0001b104       ??_C@_0BD@JHDKFFOA@vfixupimmps?5cont?8d@ 710cf104     decode_table.obj
 0002:0001b118       ??_C@_0BD@FPJLHKFI@vfixupimmpd?5cont?8d@ 710cf118     decode_table.obj
 0002:0001b12c       ??_C@_0BD@HMANOOOD@vfixupimmss?5cont?8d@ 710cf12c     decode_table.obj
 0002:0001b140       ??_C@_0BD@LEKMMBFL@vfixupimmsd?5cont?8d@ 710cf140     decode_table.obj
 0002:0001b154       ??_C@_0BC@DEHDPGKB@vgetmantss?5cont?8d@ 710cf154     decode_table.obj
 0002:0001b168       ??_C@_0BC@PMNCNJBJ@vgetmantsd?5cont?8d@ 710cf168     decode_table.obj
 0002:0001b17c       ??_C@_0BA@NCMGPBCO@vrangeps?5cont?8d@ 710cf17c     decode_table.obj
 0002:0001b18c       ??_C@_0BA@BKGHNOJG@vrangepd?5cont?8d@ 710cf18c     decode_table.obj
 0002:0001b19c       ??_C@_0BA@DJPBEKCN@vrangess?5cont?8d@ 710cf19c     decode_table.obj
 0002:0001b1ac       ??_C@_0BA@PBFAGFJF@vrangesd?5cont?8d@ 710cf1ac     decode_table.obj
 0002:0001b1bc       ??_C@_0BB@BMBJAH@vreducess?5cont?8d@ 710cf1bc     decode_table.obj
 0002:0001b1d0       ??_C@_0BB@MILNDGLP@vreducesd?5cont?8d@ 710cf1d0     decode_table.obj
 0002:0001b1e4       ??_C@_0BD@HLNNEHOC@vrndscaless?5cont?8d@ 710cf1e4     decode_table.obj
 0002:0001b1f8       ??_C@_0BD@LDHMGIFK@vrndscalesd?5cont?8d@ 710cf1f8     decode_table.obj
 0002:0001b20c       ??_C@_0BA@IFFNDKDD@vpalignr?5cont?8d@ 710cf20c     decode_table.obj
 0002:0001b21c       ??_C@_0BB@EJGFNHEI@vdbpsadbw?5cont?8d@ 710cf21c     decode_table.obj
 0002:0001b230       ??_C@_0BC@CGDIHGKK@vpternlogd?5cont?8d@ 710cf230     decode_table.obj
 0002:0001b244       ??_C@_0BC@MAGPHBJE@vpternlogq?5cont?8d@ 710cf244     decode_table.obj
 0002:0001b258       ??_C@_0P@OJFAJJMP@?$DMencls?5cont?8d?$DO@ 710cf258     decode_table.obj
 0002:0001b268       ??_C@_0P@OEEOOJII@?$DMenclu?5cont?8d?$DO@ 710cf268     decode_table.obj
 0002:0001b278       ??_C@_0P@PHJFCIL@?$DMenclv?5cont?8d?$DO@ 710cf278     decode_table.obj
 0002:0001b288       _first_byte                710cf288     decode_table.obj
 0002:0001d688       _second_byte               710d1688     decode_table.obj
 0002:0001fa88       _base_extensions           710d3a88     decode_table.obj
 0002:000220c8       _prefix_extensions         710d60c8     decode_table.obj
 0002:00035fb8       _mod_extensions            710e9fb8     decode_table.obj
 0002:000381c0       _rm_extensions             710ec1c0     decode_table.obj
 0002:00038880       _x64_extensions            710ec880     decode_table.obj
 0002:00038d48       _rex_b_extensions          710ecd48     decode_table.obj
 0002:00038d90       _rex_w_extensions          710ecd90     decode_table.obj
 0002:00038f40       _vex_prefix_extensions     710ecf40     decode_table.obj
 0002:00038fd0       _e_vex_extensions          710ecfd0     decode_table.obj
 0002:0003d060       _vex_L_extensions          710f1060     decode_table.obj
 0002:0003d0d0       _vex_W_extensions          710f10d0     decode_table.obj
 0002:0003f0e0       _third_byte_38_index       710f30e0     decode_table.obj
 0002:0003f1e0       _third_byte_3a_index       710f31e0     decode_table.obj
 0002:0003f2e0       _third_byte_38             710f32e0     decode_table.obj
 0002:00040ac8       _third_byte_3a             710f4ac8     decode_table.obj
 0002:00041770       _rep_extensions            710f5770     decode_table.obj
 0002:00041d10       _repne_extensions          710f5d10     decode_table.obj
 0002:00042070       _float_low_modrm           710f6070     decode_table.obj
 0002:00042970       _float_high_modrm          710f6970     decode_table.obj
 0002:00047170       _suffix_index              710fb170     decode_table.obj
 0002:00047270       _suffix_extensions         710fb270     decode_table.obj
 0002:000475f8       _extra_operands            710fb5f8     decode_table.obj
 0002:00049a20       _xop_8_index               710fda20     decode_table.obj
 0002:00049b20       _xop_9_index               710fdb20     decode_table.obj
 0002:00049c20       _xop_a_index               710fdc20     decode_table.obj
 0002:00049d20       _xop_prefix_extensions     710fdd20     decode_table.obj
 0002:00049d68       _xop_extensions            710fdd68     decode_table.obj
 0002:0004a648       _evex_prefix_extensions    710fe648     decode_table.obj
 0002:0004a690       _evex_Wb_extensions        710fe690     decode_table.obj
 0002:00053f00       _op_instr                  71107f00     decode_table.obj
 0002:00055558       ??_C@_03BDGOHNNK@add@      71109558     decode_table.obj
 0002:0005555c       ??_C@_04GHHNIPCF@push@     7110955c     decode_table.obj
 0002:00055564       ??_C@_03NJDAHFJE@pop@      71109564     decode_table.obj
 0002:00055568       ??_C@_02FODMLBIE@or@       71109568     decode_table.obj
 0002:0005556c       ??_C@_08COADLKDG@?$CIescape?$CJ@ 7110956c     decode_table.obj
 0002:00055578       ??_C@_03FMCPOLBN@adc@      71109578     decode_table.obj
 0002:0005557c       ??_C@_03LLKJDJPK@sbb@      7110957c     decode_table.obj
 0002:00055580       ??_C@_03BOPJPIAM@and@      71109580     decode_table.obj
 0002:00055584       ??_C@_03FPAMLLEG@daa@      71109584     decode_table.obj
 0002:00055588       ??_C@_03KCMAIMAP@sub@      71109588     decode_table.obj
 0002:0005558c       ??_C@_03CHPIMLJF@das@      7110958c     decode_table.obj
 0002:00055590       ??_C@_03COLCDPPJ@xor@      71109590     decode_table.obj
 0002:00055594       ??_C@_03GINCELHE@aaa@      71109594     decode_table.obj
 0002:00055598       ??_C@_03JIBIFJIL@cmp@      71109598     decode_table.obj
 0002:0005559c       ??_C@_03BACGDLKH@aas@      7110959c     decode_table.obj
 0002:000555a0       ??_C@_0M@LGHCNKEP@?$CIx64_ext?50?$CJ@ 711095a0     decode_table.obj
 0002:000555ac       ??_C@_0M@LHLALAHI@?$CIx64_ext?51?$CJ@ 711095ac     decode_table.obj
 0002:000555b8       ??_C@_0M@LFPGAOCB@?$CIx64_ext?52?$CJ@ 711095b8     decode_table.obj
 0002:000555c4       ??_C@_0M@LEDEGEBG@?$CIx64_ext?53?$CJ@ 711095c4     decode_table.obj
 0002:000555d0       ??_C@_0M@LBHLHCJD@?$CIx64_ext?54?$CJ@ 711095d0     decode_table.obj
 0002:000555dc       ??_C@_0M@LALJBIKE@?$CIx64_ext?55?$CJ@ 711095dc     decode_table.obj
 0002:000555e8       ??_C@_0M@LCPPKGPN@?$CIx64_ext?56?$CJ@ 711095e8     decode_table.obj
 0002:000555f4       ??_C@_0M@LDDNMMMK@?$CIx64_ext?57?$CJ@ 711095f4     decode_table.obj
 0002:00055600       ??_C@_0M@LIGBILPH@?$CIx64_ext?58?$CJ@ 71109600     decode_table.obj
 0002:0005560c       ??_C@_0M@LJKDOBMA@?$CIx64_ext?59?$CJ@ 7110960c     decode_table.obj
 0002:00055618       ??_C@_0N@JNIEOKK@?$CIx64_ext?510?$CJ@ 71109618     decode_table.obj
 0002:00055628       ??_C@_0N@IBKCEJN@?$CIx64_ext?511?$CJ@ 71109628     decode_table.obj
 0002:00055638       ??_C@_0N@KFMJKME@?$CIx64_ext?512?$CJ@ 71109638     decode_table.obj
 0002:00055648       ??_C@_0N@LJOPAPD@?$CIx64_ext?513?$CJ@ 71109648     decode_table.obj
 0002:00055658       ??_C@_0N@ONBOGHG@?$CIx64_ext?514?$CJ@ 71109658     decode_table.obj
 0002:00055668       ??_C@_0N@PBDIMEB@?$CIx64_ext?515?$CJ@ 71109668     decode_table.obj
 0002:00055678       ??_C@_05DHIFPDCO@pusha@    71109678     decode_table.obj
 0002:00055680       ??_C@_04ILFNDNMO@popa@     71109680     decode_table.obj
 0002:00055688       ??_C@_0BC@MAJFBOKF@?$CIevex_prefix_ext?$CJ@ 71109688     decode_table.obj
 0002:0005569c       ??_C@_0N@NFFDCBI@?$CIx64_ext?516?$CJ@ 7110969c     decode_table.obj
 0002:000556ac       ??_C@_09DEKGCLJL@data?5size@ 711096ac     decode_table.obj
 0002:000556b8       ??_C@_09LCJFBCOI@addr?5size@ 711096b8     decode_table.obj
 0002:000556c4       ??_C@_04PPMBLMBA@imul@     711096c4     decode_table.obj
 0002:000556cc       ??_C@_0M@OOPDFPEN@?$CI?$CIrep?$CJ?5ins?$CJ@ 711096cc     decode_table.obj
 0002:000556d8       ??_C@_0N@HBFAIHMI@?$CI?$CIrep?$CJ?5outs?$CJ@ 711096d8     decode_table.obj
 0002:000556e8       ??_C@_02KHJLBPHD@jo@       711096e8     decode_table.obj
 0002:000556ec       ??_C@_03CKAMKGMG@jno@      711096ec     decode_table.obj
 0002:000556f0       ??_C@_02BCDFGBDO@jb@       711096f0     decode_table.obj
 0002:000556f4       ??_C@_03JPKCNIIL@jnb@      711096f4     decode_table.obj
 0002:000556f8       ??_C@_02JACOPJGH@jz@       711096f8     decode_table.obj
 0002:000556fc       ??_C@_03BNLJEANC@jnz@      711096fc     decode_table.obj
 0002:00055700       ??_C@_03NJPJLHCI@jbe@      71109700     decode_table.obj
 0002:00055704       ??_C@_04GCHPGHJC@jnbe@     71109704     decode_table.obj
 0002:0005570c       ??_C@_02EBOMECCO@js@       7110970c     decode_table.obj
 0002:00055710       ??_C@_03MMHLPLJL@jns@      71109710     decode_table.obj
 0002:00055714       ??_C@_02GKMBBBON@jp@       71109714     decode_table.obj
 0002:00055718       ??_C@_03OHFGKIFI@jnp@      71109718     decode_table.obj
 0002:0005571c       ??_C@_02IMLGEMLA@jl@       7110971c     decode_table.obj
 0002:00055720       ??_C@_03BCBPFAF@jnl@       71109720     decode_table.obj
 0002:00055724       ??_C@_03NDGHJKCC@jle@      71109724     decode_table.obj
 0002:00055728       ??_C@_04GIOBEKJI@jnle@     71109728     decode_table.obj
 0002:00055730       ??_C@_0L@HNPFBKLN@?$CIgroup?51a?$CJ@ 71109730     decode_table.obj
 0002:0005573c       ??_C@_0L@HPLDKEOE@?$CIgroup?51b?$CJ@ 7110973c     decode_table.obj
 0002:00055748       ??_C@_0M@FJKENDBC@?$CIgroup?51c?$CK?$CJ@ 71109748     decode_table.obj
 0002:00055754       ??_C@_0L@HOHBMOND@?$CIgroup?51c?$CJ@ 71109754     decode_table.obj
 0002:00055760       ??_C@_04CEJDCDCH@test@     71109760     decode_table.obj
 0002:00055768       ??_C@_04LFJEJMPJ@xchg@     71109768     decode_table.obj
 0002:00055770       ??_C@_03CNBJFNFA@mov@      71109770     decode_table.obj
 0002:00055774       ??_C@_03JNLBDLHF@lea@      71109774     decode_table.obj
 0002:00055778       ??_C@_0BD@EEJBHKHI@?$CIxop_prefix_ext?50?$CJ@ 71109778     decode_table.obj
 0002:0005578c       ??_C@_0BB@OPPLLLEP@?$CIprefix?5ext?5103?$CJ@ 7110978c     decode_table.obj
 0002:000557a0       ??_C@_04EGPDGBEE@cwde@     711097a0     decode_table.obj
 0002:000557a8       ??_C@_03IONCFDEF@cdq@      711097a8     decode_table.obj
 0002:000557ac       ??_C@_05OEIGBKGJ@lcall@    711097ac     decode_table.obj
 0002:000557b4       ??_C@_05FEKNFCPP@fwait@    711097b4     decode_table.obj
 0002:000557bc       ??_C@_05HIMEGFOJ@pushf@    711097bc     decode_table.obj
 0002:000557c4       ??_C@_04MEBMKLAJ@popf@     711097c4     decode_table.obj
 0002:000557cc       ??_C@_04HBFGFECC@sahf@     711097cc     decode_table.obj
 0002:000557d4       ??_C@_04JDOGFEHB@lahf@     711097d4     decode_table.obj
 0002:000557dc       ??_C@_0N@LMMBGBGL@?$CI?$CIrep?$CJ?5movs?$CJ@ 711097dc     decode_table.obj
 0002:000557ec       ??_C@_0BA@HPIFNBHO@?$CI?$CIrep?1ne?$CJ?5cmps?$CJ@ 711097ec     decode_table.obj
 0002:000557fc       ??_C@_0N@LPDMLMAG@?$CI?$CIrep?$CJ?5stos?$CJ@ 711097fc     decode_table.obj
 0002:0005580c       ??_C@_0N@ININCNNK@?$CI?$CIrep?$CJ?5lods?$CJ@ 7110980c     decode_table.obj
 0002:0005581c       ??_C@_0BA@CLMGFNHO@?$CI?$CIrep?1ne?$CJ?5scas?$CJ@ 7110981c     decode_table.obj
 0002:0005582c       ??_C@_0L@GPEALFFD@?$CIgroup?52a?$CJ@ 7110982c     decode_table.obj
 0002:00055838       ??_C@_0L@GNAGALAK@?$CIgroup?52b?$CJ@ 71109838     decode_table.obj
 0002:00055844       ??_C@_0BD@BMIDCIOH@?$CIvex_prefix_ext?50?$CJ@ 71109844     decode_table.obj
 0002:00055858       ??_C@_0BD@BNEBECNA@?$CIvex_prefix_ext?51?$CJ@ 71109858     decode_table.obj
 0002:0005586c       ??_C@_0M@EEGPHGBK@?$CIgroup?511a?$CJ@ 7110986c     decode_table.obj
 0002:00055878       ??_C@_0M@EGCJMIED@?$CIgroup?511b?$CJ@ 71109878     decode_table.obj
 0002:00055884       ??_C@_05IHEOCMON@enter@    71109884     decode_table.obj
 0002:0005588c       ??_C@_05KLLFHCCG@leave@    7110988c     decode_table.obj
 0002:00055894       ??_C@_04KBGGEPIA@lret@     71109894     decode_table.obj
 0002:0005589c       ??_C@_04NBJFDIFC@int3@     7110989c     decode_table.obj
 0002:000558a4       ??_C@_03JBIPMCLC@int@      711098a4     decode_table.obj
 0002:000558a8       ??_C@_04MHJLCKAK@into@     711098a8     decode_table.obj
 0002:000558b0       ??_C@_04GJIGMAPA@iret@     711098b0     decode_table.obj
 0002:000558b8       ??_C@_0L@GMMEGBDN@?$CIgroup?52c?$CJ@ 711098b8     decode_table.obj
 0002:000558c4       ??_C@_0L@GJILHHLI@?$CIgroup?52d?$CJ@ 711098c4     decode_table.obj
 0002:000558d0       ??_C@_0L@GIEJBNIP@?$CIgroup?52e?$CJ@ 711098d0     decode_table.obj
 0002:000558dc       ??_C@_0L@GKAPKDNG@?$CIgroup?52f?$CJ@ 711098dc     decode_table.obj
 0002:000558e8       ??_C@_03MEGHAEHI@aam@      711098e8     decode_table.obj
 0002:000558ec       ??_C@_03BFKFLPDB@aad@      711098ec     decode_table.obj
 0002:000558f0       ??_C@_04LCIAILL@salc@      711098f0     decode_table.obj
 0002:000558f8       ??_C@_04IDMJPGLC@xlat@     711098f8     decode_table.obj
 0002:00055900       ??_C@_07KIFIMABG@?$CIfloat?$CJ@ 71109900     decode_table.obj
 0002:00055908       ??_C@_06PNLJICFH@loopne@   71109908     decode_table.obj
 0002:00055910       ??_C@_05FFHGBAG@loope@     71109910     decode_table.obj
 0002:00055918       ??_C@_04GKOOIABA@loop@     71109918     decode_table.obj
 0002:00055920       ??_C@_05BACBHKCE@jecxz@    71109920     decode_table.obj
 0002:00055928       ??_C@_02LMMGJAGL@in@       71109928     decode_table.obj
 0002:0005592c       ??_C@_03KEJHNBPP@out@      7110992c     decode_table.obj
 0002:00055930       ??_C@_04FOLEKEEM@ljmp@     71109930     decode_table.obj
 0002:00055938       ??_C@_04MKMCLCOO@lock@     71109938     decode_table.obj
 0002:00055940       ??_C@_04ODKDFKNA@int1@     71109940     decode_table.obj
 0002:00055948       ??_C@_05GIPJNDPP@repne@    71109948     decode_table.obj
 0002:00055950       ??_C@_03HOKODIMJ@rep@      71109950     decode_table.obj
 0002:00055954       ??_C@_03CKLHHBLJ@hlt@      71109954     decode_table.obj
 0002:00055958       ??_C@_03PJPHBIBJ@cmc@      71109958     decode_table.obj
 0002:0005595c       ??_C@_0L@NHPMNCDG@?$CIgroup?53a?$CJ@ 7110995c     decode_table.obj
 0002:00055968       ??_C@_0L@NFLKGMGP@?$CIgroup?53b?$CJ@ 71109968     decode_table.obj
 0002:00055974       ??_C@_03PIDFHCCO@clc@      71109974     decode_table.obj
 0002:00055978       ??_C@_03LKBJNHHJ@stc@      71109978     decode_table.obj
 0002:0005597c       ??_C@_03CNKJKKE@cli@       7110997c     decode_table.obj
 0002:00055980       ??_C@_03EAPGDPPD@sti@      71109980     decode_table.obj
 0002:00055984       ??_C@_03LHHEOEOJ@cld@      71109984     decode_table.obj
 0002:00055988       ??_C@_03PFFIEBLO@std@      71109988     decode_table.obj
 0002:0005598c       ??_C@_09IOFNJDAF@?$CIgroup?54?$CJ@ 7110998c     decode_table.obj
 0002:00055998       ??_C@_09IPJPPJDC@?$CIgroup?55?$CJ@ 71109998     decode_table.obj
 0002:000559a4       ??_C@_09INNJEHGL@?$CIgroup?56?$CJ@ 711099a4     decode_table.obj
 0002:000559b0       ??_C@_09IMBLCNFM@?$CIgroup?57?$CJ@ 711099b0     decode_table.obj
 0002:000559bc       ??_C@_03PLFHNCDL@lar@      711099bc     decode_table.obj
 0002:000559c0       ??_C@_03DALEJKPK@lsl@      711099c0     decode_table.obj
 0002:000559c4       ??_C@_07JJMJNHGG@syscall@  711099c4     decode_table.obj
 0002:000559cc       ??_C@_04MBFFKHHN@clts@     711099cc     decode_table.obj
 0002:000559d4       ??_C@_06OJDFPBAP@sysret@   711099d4     decode_table.obj
 0002:000559dc       ??_C@_04CHOLCHKP@invd@     711099dc     decode_table.obj
 0002:000559e4       ??_C@_06BAFGEPDI@wbinvd@   711099e4     decode_table.obj
 0002:000559ec       ??_C@_04OHKCGMBB@ud2a@     711099ec     decode_table.obj
 0002:000559f4       ??_C@_0M@PLGMMLCA@?$CIgroup?5amd?$CJ@ 711099f4     decode_table.obj
 0002:00055a00       ??_C@_05EMBDBHLO@femms@    71109a00     decode_table.obj
 0002:00055a08       ??_C@_0P@ODMEENLJ@?$CIgroup?53DNow?$CB?$CJ@ 71109a08     decode_table.obj
 0002:00055a18       ??_C@_0P@DKHKGAGN@?$CIprefix?5ext?50?$CJ@ 71109a18     decode_table.obj
 0002:00055a28       ??_C@_0P@DLLIAKFK@?$CIprefix?5ext?51?$CJ@ 71109a28     decode_table.obj
 0002:00055a38       ??_C@_0P@DJPOLEAD@?$CIprefix?5ext?52?$CJ@ 71109a38     decode_table.obj
 0002:00055a48       ??_C@_0P@DIDMNODE@?$CIprefix?5ext?53?$CJ@ 71109a48     decode_table.obj
 0002:00055a58       ??_C@_0P@DNHDMILB@?$CIprefix?5ext?54?$CJ@ 71109a58     decode_table.obj
 0002:00055a68       ??_C@_0P@DMLBKCIG@?$CIprefix?5ext?55?$CJ@ 71109a68     decode_table.obj
 0002:00055a78       ??_C@_0P@DOPHBMNP@?$CIprefix?5ext?56?$CJ@ 71109a78     decode_table.obj
 0002:00055a88       ??_C@_0P@DPDFHGOI@?$CIprefix?5ext?57?$CJ@ 71109a88     decode_table.obj
 0002:00055a98       ??_C@_0L@BEAGCCII@?$CIgroup?516?$CJ@ 71109a98     decode_table.obj
 0002:00055aa4       ??_C@_03GJPGFFDI@nop@      71109aa4     decode_table.obj
 0002:00055aa8       ??_C@_0BB@CMIEFBEL@?$CIprefix?5ext?5186?$CJ@ 71109aa8     decode_table.obj
 0002:00055abc       ??_C@_0BB@CNEGDLHM@?$CIprefix?5ext?5187?$CJ@ 71109abc     decode_table.obj
 0002:00055ad0       ??_C@_0P@DEGJDBNF@?$CIprefix?5ext?58?$CJ@ 71109ad0     decode_table.obj
 0002:00055ae0       ??_C@_0P@DFKLFLOC@?$CIprefix?5ext?59?$CJ@ 71109ae0     decode_table.obj
 0002:00055af0       ??_C@_0BA@NMDEAHPE@?$CIprefix?5ext?510?$CJ@ 71109af0     decode_table.obj
 0002:00055b00       ??_C@_0BA@NNPGGNMD@?$CIprefix?5ext?511?$CJ@ 71109b00     decode_table.obj
 0002:00055b10       ??_C@_0BA@NPLANDJK@?$CIprefix?5ext?512?$CJ@ 71109b10     decode_table.obj
 0002:00055b20       ??_C@_0BA@NOHCLJKN@?$CIprefix?5ext?513?$CJ@ 71109b20     decode_table.obj
 0002:00055b30       ??_C@_0BA@NLDNKPCI@?$CIprefix?5ext?514?$CJ@ 71109b30     decode_table.obj
 0002:00055b40       ??_C@_0BA@NKPPMFBP@?$CIprefix?5ext?515?$CJ@ 71109b40     decode_table.obj
 0002:00055b50       ??_C@_05FJPKDCCJ@wrmsr@    71109b50     decode_table.obj
 0002:00055b58       ??_C@_05JIFPPKLN@rdtsc@    71109b58     decode_table.obj
 0002:00055b60       ??_C@_05OGJHMBLI@rdmsr@    71109b60     decode_table.obj
 0002:00055b68       ??_C@_05BIFODJA@rdpmc@     71109b68     decode_table.obj
 0002:00055b70       ??_C@_08HHDECGPN@sysenter@ 71109b70     decode_table.obj
 0002:00055b7c       ??_C@_07LPEIGAGB@sysexit@  71109b7c     decode_table.obj
 0002:00055b84       ??_C@_06BKPLENB@getsec@    71109b84     decode_table.obj
 0002:00055b8c       ??_C@_0L@OHBGADHK@?$CI3byte?538?$CJ@ 71109b8c     decode_table.obj
 0002:00055b98       ??_C@_0L@IEHLBGEF@?$CI3byte?53a?$CJ@ 71109b98     decode_table.obj
 0002:00055ba4       ??_C@_05HAKDBEIL@cmovo@    71109ba4     decode_table.obj
 0002:00055bac       ??_C@_0P@IFHFBAIM@?$CIe_vex?5ext?583?$CJ@ 71109bac     decode_table.obj
 0002:00055bbc       ??_C@_0P@IADKAGAJ@?$CIe_vex?5ext?584?$CJ@ 71109bbc     decode_table.obj
 0002:00055bcc       ??_C@_06CMBDJKKO@cmovnb@   71109bcc     decode_table.obj
 0002:00055bd4       ??_C@_0P@IDLONCGH@?$CIe_vex?5ext?586?$CJ@ 71109bd4     decode_table.obj
 0002:00055be4       ??_C@_0P@ICHMLIFA@?$CIe_vex?5ext?587?$CJ@ 71109be4     decode_table.obj
 0002:00055bf4       ??_C@_0P@IJCAPPGN@?$CIe_vex?5ext?588?$CJ@ 71109bf4     decode_table.obj
 0002:00055c04       ??_C@_0P@IIOCJFFK@?$CIe_vex?5ext?589?$CJ@ 71109c04     decode_table.obj
 0002:00055c14       ??_C@_05JGNEEJNG@cmovs@    71109c14     decode_table.obj
 0002:00055c1c       ??_C@_06HPMKLJLO@cmovns@   71109c1c     decode_table.obj
 0002:00055c24       ??_C@_0P@DPIPMJLA@?$CIe_vex?5ext?590?$CJ@ 71109c24     decode_table.obj
 0002:00055c34       ??_C@_0P@IBPIGMDO@?$CIe_vex?5ext?585?$CJ@ 71109c34     decode_table.obj
 0002:00055c44       ??_C@_05FLIOEHEI@cmovl@    71109c44     decode_table.obj
 0002:00055c4c       ??_C@_06LCJALHCA@cmovnl@   71109c4c     decode_table.obj
 0002:00055c54       ??_C@_06GANGNIAH@cmovle@   71109c54     decode_table.obj
 0002:00055c5c       ??_C@_07CDFGCPJN@cmovnle@  71109c5c     decode_table.obj
 0002:00055c64       ??_C@_0BA@NILJHLEG@?$CIprefix?5ext?516?$CJ@ 71109c64     decode_table.obj
 0002:00055c74       ??_C@_0BA@NJHLBBHB@?$CIprefix?5ext?517?$CJ@ 71109c74     decode_table.obj
 0002:00055c84       ??_C@_0BA@NCCHFGEM@?$CIprefix?5ext?518?$CJ@ 71109c84     decode_table.obj
 0002:00055c94       ??_C@_0BA@NDOFDMHL@?$CIprefix?5ext?519?$CJ@ 71109c94     decode_table.obj
 0002:00055ca4       ??_C@_0BA@MOIBKIBK@?$CIprefix?5ext?520?$CJ@ 71109ca4     decode_table.obj
 0002:00055cb4       ??_C@_0BA@MPEDMCCN@?$CIprefix?5ext?521?$CJ@ 71109cb4     decode_table.obj
 0002:00055cc4       ??_C@_0BA@MNAFHMHE@?$CIprefix?5ext?522?$CJ@ 71109cc4     decode_table.obj
 0002:00055cd4       ??_C@_0BA@MMMHBGED@?$CIprefix?5ext?523?$CJ@ 71109cd4     decode_table.obj
 0002:00055ce4       ??_C@_0BA@MJIIAAMG@?$CIprefix?5ext?524?$CJ@ 71109ce4     decode_table.obj
 0002:00055cf4       ??_C@_0BA@MIEKGKPB@?$CIprefix?5ext?525?$CJ@ 71109cf4     decode_table.obj
 0002:00055d04       ??_C@_0BA@MKAMNEKI@?$CIprefix?5ext?526?$CJ@ 71109d04     decode_table.obj
 0002:00055d14       ??_C@_0BA@MLMOLOJP@?$CIprefix?5ext?527?$CJ@ 71109d14     decode_table.obj
 0002:00055d24       ??_C@_0BA@MAJCPJKC@?$CIprefix?5ext?528?$CJ@ 71109d24     decode_table.obj
 0002:00055d34       ??_C@_0BA@MBFAJDJF@?$CIprefix?5ext?529?$CJ@ 71109d34     decode_table.obj
 0002:00055d44       ??_C@_0BA@HGDNMPHP@?$CIprefix?5ext?530?$CJ@ 71109d44     decode_table.obj
 0002:00055d54       ??_C@_0BA@HHPPKFEI@?$CIprefix?5ext?531?$CJ@ 71109d54     decode_table.obj
 0002:00055d64       ??_C@_0BA@HFLJBLBB@?$CIprefix?5ext?532?$CJ@ 71109d64     decode_table.obj
 0002:00055d74       ??_C@_0BA@HEHLHBCG@?$CIprefix?5ext?533?$CJ@ 71109d74     decode_table.obj
 0002:00055d84       ??_C@_0BA@HBDEGHKD@?$CIprefix?5ext?534?$CJ@ 71109d84     decode_table.obj
 0002:00055d94       ??_C@_0BA@HAPGANJE@?$CIprefix?5ext?535?$CJ@ 71109d94     decode_table.obj
 0002:00055da4       ??_C@_0BA@HCLALDMN@?$CIprefix?5ext?536?$CJ@ 71109da4     decode_table.obj
 0002:00055db4       ??_C@_0BA@HDHCNJPK@?$CIprefix?5ext?537?$CJ@ 71109db4     decode_table.obj
 0002:00055dc4       ??_C@_0BA@HICOJOMH@?$CIprefix?5ext?538?$CJ@ 71109dc4     decode_table.obj
 0002:00055dd4       ??_C@_0BA@HJOMPEPA@?$CIprefix?5ext?539?$CJ@ 71109dd4     decode_table.obj
 0002:00055de4       ??_C@_0BA@OLOKPHMG@?$CIprefix?5ext?540?$CJ@ 71109de4     decode_table.obj
 0002:00055df4       ??_C@_0BA@OKCIJNPB@?$CIprefix?5ext?541?$CJ@ 71109df4     decode_table.obj
 0002:00055e04       ??_C@_0BA@OIGOCDKI@?$CIprefix?5ext?542?$CJ@ 71109e04     decode_table.obj
 0002:00055e14       ??_C@_0BA@OJKMEJJP@?$CIprefix?5ext?543?$CJ@ 71109e14     decode_table.obj
 0002:00055e24       ??_C@_0BA@OMODFPBK@?$CIprefix?5ext?544?$CJ@ 71109e24     decode_table.obj
 0002:00055e34       ??_C@_0BA@ONCBDFCN@?$CIprefix?5ext?545?$CJ@ 71109e34     decode_table.obj
 0002:00055e44       ??_C@_0BA@OPGHILHE@?$CIprefix?5ext?546?$CJ@ 71109e44     decode_table.obj
 0002:00055e54       ??_C@_0BB@FGIFLGBN@?$CIprefix?5ext?5112?$CJ@ 71109e54     decode_table.obj
 0002:00055e68       ??_C@_0BA@OOKFOBED@?$CIprefix?5ext?547?$CJ@ 71109e68     decode_table.obj
 0002:00055e78       ??_C@_0L@BDAPIKFE@?$CIgroup?512?$CJ@ 71109e78     decode_table.obj
 0002:00055e84       ??_C@_0L@BCMNOAGD@?$CIgroup?513?$CJ@ 71109e84     decode_table.obj
 0002:00055e90       ??_C@_0L@BHICPGOG@?$CIgroup?514?$CJ@ 71109e90     decode_table.obj
 0002:00055e9c       ??_C@_0BA@OFPJKGHO@?$CIprefix?5ext?548?$CJ@ 71109e9c     decode_table.obj
 0002:00055eac       ??_C@_0BA@OEDLMMEJ@?$CIprefix?5ext?549?$CJ@ 71109eac     decode_table.obj
 0002:00055ebc       ??_C@_0BA@FDFGJAKD@?$CIprefix?5ext?550?$CJ@ 71109ebc     decode_table.obj
 0002:00055ecc       ??_C@_0O@ECEHAFBA@?$CIvex?5L?5ext?50?$CJ@ 71109ecc     decode_table.obj
 0002:00055edc       ??_C@_0BB@PIABACCE@?$CIprefix?5ext?5134?$CJ@ 71109edc     decode_table.obj
 0002:00055ef0       ??_C@_0BB@PJMDGIBD@?$CIprefix?5ext?5135?$CJ@ 71109ef0     decode_table.obj
 0002:00055f04       ??_C@_0BB@NFLCMOKL@?$CIprefix?5ext?5159?$CJ@ 71109f04     decode_table.obj
 0002:00055f18       ??_C@_0BB@NEHAKEJM@?$CIprefix?5ext?5158?$CJ@ 71109f18     decode_table.obj
 0002:00055f2c       ??_C@_0BB@FCAIMKKP@?$CIprefix?5ext?5114?$CJ@ 71109f2c     decode_table.obj
 0002:00055f40       ??_C@_0BB@FDMKKAJI@?$CIprefix?5ext?5115?$CJ@ 71109f40     decode_table.obj
 0002:00055f54       ??_C@_0BA@FCJEPKJE@?$CIprefix?5ext?551?$CJ@ 71109f54     decode_table.obj
 0002:00055f64       ??_C@_0BB@FHEHNMCK@?$CIprefix?5ext?5113?$CJ@ 71109f64     decode_table.obj
 0002:00055f78       ??_C@_0P@NAIBIFAM@?$CIe_vex?5ext?579?$CJ@ 71109f78     decode_table.obj
 0002:00055f88       ??_C@_0P@IHDDKONF@?$CIe_vex?5ext?580?$CJ@ 71109f88     decode_table.obj
 0002:00055f98       ??_C@_0P@IGPBMEOC@?$CIe_vex?5ext?581?$CJ@ 71109f98     decode_table.obj
 0002:00055fa8       ??_C@_0P@IELHHKLL@?$CIe_vex?5ext?582?$CJ@ 71109fa8     decode_table.obj
 0002:00055fb8       ??_C@_04NHPMEDM@setz@      71109fb8     decode_table.obj
 0002:00055fc0       ??_C@_05OBJNJJJD@setnz@    71109fc0     decode_table.obj
 0002:00055fc8       ??_C@_05CFNNGOGJ@setbe@    71109fc8     decode_table.obj
 0002:00055fd0       ??_C@_06GDFIDCEN@setnbe@   71109fd0     decode_table.obj
 0002:00055fd8       ??_C@_0P@DOENKDIH@?$CIe_vex?5ext?591?$CJ@ 71109fd8     decode_table.obj
 0002:00055fe8       ??_C@_0P@DMALBNNO@?$CIe_vex?5ext?592?$CJ@ 71109fe8     decode_table.obj
 0002:00055ff8       ??_C@_04PHJACMLG@setp@     71109ff8     decode_table.obj
 0002:00056000       ??_C@_05BLHCHBBJ@setnp@    7110a000     decode_table.obj
 0002:00056008       ??_C@_04BBOHHBOL@setl@     7110a008     decode_table.obj
 0002:00056010       ??_C@_05PNAFCMEE@setnl@    7110a010     decode_table.obj
 0002:00056018       ??_C@_05CPEDEDGD@setle@    7110a018     decode_table.obj
 0002:00056020       ??_C@_06GJMGBPEH@setnle@   7110a020     decode_table.obj
 0002:00056028       ??_C@_05CDPJMNMF@cpuid@    7110a028     decode_table.obj
 0002:00056030       ??_C@_02LOIFFB@bt@         7110a030     decode_table.obj
 0002:00056034       ??_C@_04DJGBNBPG@shld@     7110a034     decode_table.obj
 0002:0005603c       ??_C@_03JJGJILBH@rsm@      7110a03c     decode_table.obj
 0002:00056040       ??_C@_03BIHOPFNC@bts@      7110a040     decode_table.obj
 0002:00056044       ??_C@_04CPNJFPIM@shrd@     7110a044     decode_table.obj
 0002:0005604c       ??_C@_0L@BGEAJMNB@?$CIgroup?515?$CJ@ 7110a04c     decode_table.obj
 0002:00056058       ??_C@_07KJLDDDDB@cmpxchg@  7110a058     decode_table.obj
 0002:00056060       ??_C@_03PNOOJEGE@lss@      7110a060     decode_table.obj
 0002:00056064       ??_C@_03BGFMEJD@btr@       7110a064     decode_table.obj
 0002:00056068       ??_C@_03OHADPFPP@lfs@      7110a068     decode_table.obj
 0002:0005606c       ??_C@_03OGMBJPMI@lgs@      7110a06c     decode_table.obj
 0002:00056070       ??_C@_05BBOBEDHM@movzx@    7110a070     decode_table.obj
 0002:00056078       ??_C@_06KOACKPNP@popcnt@   7110a078     decode_table.obj
 0002:00056080       ??_C@_04MMIPDPNC@ud2b@     7110a080     decode_table.obj
 0002:00056088       ??_C@_09IHEHGKGB@?$CIgroup?58?$CJ@ 7110a088     decode_table.obj
 0002:00056094       ??_C@_03FCLMOHID@btc@      7110a094     decode_table.obj
 0002:00056098       ??_C@_0BB@GCNPJCEB@?$CIprefix?5ext?5140?$CJ@ 7110a098     decode_table.obj
 0002:000560ac       ??_C@_0BB@PLIFNGEK@?$CIprefix?5ext?5136?$CJ@ 7110a0ac     decode_table.obj
 0002:000560c0       ??_C@_05BODAHIPD@movsx@    7110a0c0     decode_table.obj
 0002:000560c8       ??_C@_04DNKKPONF@xadd@     7110a0c8     decode_table.obj
 0002:000560d0       ??_C@_0BA@FANCEEMN@?$CIprefix?5ext?552?$CJ@ 7110a0d0     decode_table.obj
 0002:000560e0       ??_C@_06DLPMDFBG@movnti@   7110a0e0     decode_table.obj
 0002:000560e8       ??_C@_0BA@FBBACOPK@?$CIprefix?5ext?553?$CJ@ 7110a0e8     decode_table.obj
 0002:000560f8       ??_C@_0BA@FEFPDIHP@?$CIprefix?5ext?554?$CJ@ 7110a0f8     decode_table.obj
 0002:00056108       ??_C@_0BA@FFJNFCEI@?$CIprefix?5ext?555?$CJ@ 7110a108     decode_table.obj
 0002:00056118       ??_C@_09IGIFAAFG@?$CIgroup?59?$CJ@ 7110a118     decode_table.obj
 0002:00056124       ??_C@_05CFLBCKNG@bswap@    7110a124     decode_table.obj
 0002:0005612c       ??_C@_0BB@FBIMBOMB@?$CIprefix?5ext?5116?$CJ@ 7110a12c     decode_table.obj
 0002:00056140       ??_C@_0BA@FHNLOMBB@?$CIprefix?5ext?556?$CJ@ 7110a140     decode_table.obj
 0002:00056150       ??_C@_0BA@FGBJIGCG@?$CIprefix?5ext?557?$CJ@ 7110a150     decode_table.obj
 0002:00056160       ??_C@_0BA@FNEFMBBL@?$CIprefix?5ext?558?$CJ@ 7110a160     decode_table.obj
 0002:00056170       ??_C@_0BA@FMIHKLCM@?$CIprefix?5ext?559?$CJ@ 7110a170     decode_table.obj
 0002:00056180       ??_C@_0BA@EBODDPEN@?$CIprefix?5ext?560?$CJ@ 7110a180     decode_table.obj
 0002:00056190       ??_C@_0BA@EACBFFHK@?$CIprefix?5ext?561?$CJ@ 7110a190     decode_table.obj
 0002:000561a0       ??_C@_0BA@ECGHOLCD@?$CIprefix?5ext?562?$CJ@ 7110a1a0     decode_table.obj
 0002:000561b0       ??_C@_0BA@EDKFIBBE@?$CIprefix?5ext?563?$CJ@ 7110a1b0     decode_table.obj
 0002:000561c0       ??_C@_0BA@EGOKJHJB@?$CIprefix?5ext?564?$CJ@ 7110a1c0     decode_table.obj
 0002:000561d0       ??_C@_0BA@EHCIPNKG@?$CIprefix?5ext?565?$CJ@ 7110a1d0     decode_table.obj
 0002:000561e0       ??_C@_0BA@EFGOEDPP@?$CIprefix?5ext?566?$CJ@ 7110a1e0     decode_table.obj
 0002:000561f0       ??_C@_0BA@EEKMCJMI@?$CIprefix?5ext?567?$CJ@ 7110a1f0     decode_table.obj
 0002:00056200       ??_C@_0BA@EPPAGOPF@?$CIprefix?5ext?568?$CJ@ 7110a200     decode_table.obj
 0002:00056210       ??_C@_0BA@EODCAEMC@?$CIprefix?5ext?569?$CJ@ 7110a210     decode_table.obj
 0002:00056220       ??_C@_0BA@PJFPFICI@?$CIprefix?5ext?570?$CJ@ 7110a220     decode_table.obj
 0002:00056230       ??_C@_0BA@PIJNDCBP@?$CIprefix?5ext?571?$CJ@ 7110a230     decode_table.obj
 0002:00056240       ??_C@_0BA@PKNLIMEG@?$CIprefix?5ext?572?$CJ@ 7110a240     decode_table.obj
 0002:00056250       ??_C@_0BA@PLBJOGHB@?$CIprefix?5ext?573?$CJ@ 7110a250     decode_table.obj
 0002:00056260       ??_C@_0BA@POFGPAPE@?$CIprefix?5ext?574?$CJ@ 7110a260     decode_table.obj
 0002:00056270       ??_C@_0BA@PPJEJKMD@?$CIprefix?5ext?575?$CJ@ 7110a270     decode_table.obj
 0002:00056280       ??_C@_0BA@PNNCCEJK@?$CIprefix?5ext?576?$CJ@ 7110a280     decode_table.obj
 0002:00056290       ??_C@_0BA@PMBAEOKN@?$CIprefix?5ext?577?$CJ@ 7110a290     decode_table.obj
 0002:000562a0       ??_C@_0BA@PHEMAJJA@?$CIprefix?5ext?578?$CJ@ 7110a2a0     decode_table.obj
 0002:000562b0       ??_C@_0BA@PGIOGDKH@?$CIprefix?5ext?579?$CJ@ 7110a2b0     decode_table.obj
 0002:000562c0       ??_C@_0BA@KBDMEIHO@?$CIprefix?5ext?580?$CJ@ 7110a2c0     decode_table.obj
 0002:000562d0       ??_C@_0BA@KAPOCCEJ@?$CIprefix?5ext?581?$CJ@ 7110a2d0     decode_table.obj
 0002:000562e0       ??_C@_0BA@KCLIJMBA@?$CIprefix?5ext?582?$CJ@ 7110a2e0     decode_table.obj
 0002:000562f0       ??_C@_0BA@KDHKPGCH@?$CIprefix?5ext?583?$CJ@ 7110a2f0     decode_table.obj
 0002:00056300       ??_C@_0BA@KGDFOAKC@?$CIprefix?5ext?584?$CJ@ 7110a300     decode_table.obj
 0002:00056310       ??_C@_0BA@KHPHIKJF@?$CIprefix?5ext?585?$CJ@ 7110a310     decode_table.obj
 0002:00056320       ??_C@_0BA@KFLBDEMM@?$CIprefix?5ext?586?$CJ@ 7110a320     decode_table.obj
 0002:00056330       ??_C@_0BB@FAEOHEPG@?$CIprefix?5ext?5117?$CJ@ 7110a330     decode_table.obj
 0002:00056344       ??_C@_0BA@KEHDFOPL@?$CIprefix?5ext?587?$CJ@ 7110a344     decode_table.obj
 0002:00056354       ??_C@_0BA@KPCPBJMG@?$CIprefix?5ext?588?$CJ@ 7110a354     decode_table.obj
 0002:00056364       ??_C@_0BA@KOONHDPB@?$CIprefix?5ext?589?$CJ@ 7110a364     decode_table.obj
 0002:00056374       ??_C@_0BA@BJIACPBL@?$CIprefix?5ext?590?$CJ@ 7110a374     decode_table.obj
 0002:00056384       ??_C@_0BA@BIECEFCM@?$CIprefix?5ext?591?$CJ@ 7110a384     decode_table.obj
 0002:00056394       ??_C@_0BA@BKAEPLHF@?$CIprefix?5ext?592?$CJ@ 7110a394     decode_table.obj
 0002:000563a4       ??_C@_0BA@BLMGJBEC@?$CIprefix?5ext?593?$CJ@ 7110a3a4     decode_table.obj
 0002:000563b4       ??_C@_0BA@BOIJIHMH@?$CIprefix?5ext?594?$CJ@ 7110a3b4     decode_table.obj
 0002:000563c4       ??_C@_0BA@BPELONPA@?$CIprefix?5ext?595?$CJ@ 7110a3c4     decode_table.obj
 0002:000563d4       ??_C@_0BA@BNANFDKJ@?$CIprefix?5ext?596?$CJ@ 7110a3d4     decode_table.obj
 0002:000563e4       ??_C@_0BA@BMMPDJJO@?$CIprefix?5ext?597?$CJ@ 7110a3e4     decode_table.obj
 0002:000563f4       ??_C@_0BA@BHJDHOKD@?$CIprefix?5ext?598?$CJ@ 7110a3f4     decode_table.obj
 0002:00056404       ??_C@_0BA@BGFBBEJE@?$CIprefix?5ext?599?$CJ@ 7110a404     decode_table.obj
 0002:00056414       ??_C@_0BB@ONLNAFBG@?$CIprefix?5ext?5100?$CJ@ 7110a414     decode_table.obj
 0002:00056428       ??_C@_03JFEOOAEC@rol@      7110a428     decode_table.obj
 0002:0005642c       ??_C@_03EBAPNPJN@ror@      7110a42c     decode_table.obj
 0002:00056430       ??_C@_03JMFEBJCG@rcl@      7110a430     decode_table.obj
 0002:00056434       ??_C@_03EIBFCGPJ@rcr@      7110a434     decode_table.obj
 0002:00056438       ??_C@_03CILNJBKC@shl@      7110a438     decode_table.obj
 0002:0005643c       ??_C@_03PMPMKOHN@shr@      7110a43c     decode_table.obj
 0002:00056440       ??_C@_03PDCNJFPC@sar@      7110a440     decode_table.obj
 0002:00056444       ??_C@_03NJKJADM@not@       7110a444     decode_table.obj
 0002:00056448       ??_C@_03GBOCFEHI@neg@      7110a448     decode_table.obj
 0002:0005644c       ??_C@_03IMIFIBCN@mul@      7110a44c     decode_table.obj
 0002:00056450       ??_C@_03FEJMGOGI@div@      7110a450     decode_table.obj
 0002:00056454       ??_C@_04CHNIFDFF@idiv@     7110a454     decode_table.obj
 0002:0005645c       ??_C@_03JEAMEGCE@inc@      7110a45c     decode_table.obj
 0002:00056460       ??_C@_03GKDDHBBI@dec@      7110a460     decode_table.obj
 0002:00056464       ??_C@_04PCNCAFEI@sldt@     7110a464     decode_table.obj
 0002:0005646c       ??_C@_03OJMAPEGJ@str@      7110a46c     decode_table.obj
 0002:00056470       ??_C@_04BAGCAFBL@lldt@     7110a470     decode_table.obj
 0002:00056478       ??_C@_03OBLKLDKA@ltr@      7110a478     decode_table.obj
 0002:0005647c       ??_C@_04JMLLNPG@verr@      7110a47c     decode_table.obj
 0002:00056484       ??_C@_04HELMEJLD@verw@     7110a484     decode_table.obj
 0002:0005648c       ??_C@_0BE@JCLPNNMA@?$CIgroup?57?5mod?5ext?50?$CJ@ 7110a48c     decode_table.obj
 0002:000564a0       ??_C@_0BE@JDHNLHPH@?$CIgroup?57?5mod?5ext?51?$CJ@ 7110a4a0     decode_table.obj
 0002:000564b4       ??_C@_0BE@JEHEBPCL@?$CIgroup?57?5mod?5ext?55?$CJ@ 7110a4b4     decode_table.obj
 0002:000564c8       ??_C@_0BE@JFLGHFBM@?$CIgroup?57?5mod?5ext?54?$CJ@ 7110a4c8     decode_table.obj
 0002:000564dc       ??_C@_04HICKIEBL@smsw@     7110a4dc     decode_table.obj
 0002:000564e4       ??_C@_0BG@OJMNGIMN@?$CIgroup?57?5mod?5ext?5120?$CJ@ 7110a4e4     decode_table.obj
 0002:000564fc       ??_C@_04JKJKIEEI@lmsw@     7110a4fc     decode_table.obj
 0002:00056504       ??_C@_0BE@JBDLAJKO@?$CIgroup?57?5mod?5ext?52?$CJ@ 7110a504     decode_table.obj
 0002:00056518       ??_C@_09EDOHCBK@cmpxchg8b@ 7110a518     decode_table.obj
 0002:00056524       ??_C@_0O@DGJIMDNB@?$CIrex?4w?5ext?55?$CJ@ 7110a524     decode_table.obj
 0002:00056534       ??_C@_0BF@LMOEJMPC@?$CIgroup?59?5mod?5ext?512?$CJ@ 7110a534     decode_table.obj
 0002:0005654c       ??_C@_0N@KNIADPC@?$CImod?5ext?513?$CJ@ 7110a54c     decode_table.obj
 0002:0005655c       ??_C@_06OCCNKBIG@xabort@   7110a55c     decode_table.obj
 0002:00056564       ??_C@_06LDHDJBJN@xbegin@   7110a564     decode_table.obj
 0002:0005656c       ??_C@_0BB@OKLEKNMK@?$CIprefix?5ext?5104?$CJ@ 7110a56c     decode_table.obj
 0002:00056580       ??_C@_0BB@OLHGMHPN@?$CIprefix?5ext?5105?$CJ@ 7110a580     decode_table.obj
 0002:00056594       ??_C@_0BB@OJDAHJKE@?$CIprefix?5ext?5106?$CJ@ 7110a594     decode_table.obj
 0002:000565a8       ??_C@_0BC@IALIAIKD@?$CIevex_Wb?5ext?5120?$CJ@ 7110a5a8     decode_table.obj
 0002:000565bc       ??_C@_0BC@JMBOPGPF@?$CIevex_Wb?5ext?5118?$CJ@ 7110a5bc     decode_table.obj
 0002:000565d0       ??_C@_0BB@OIPCBDJD@?$CIprefix?5ext?5107?$CJ@ 7110a5d0     decode_table.obj
 0002:000565e4       ??_C@_0BB@ODKOFEKO@?$CIprefix?5ext?5108?$CJ@ 7110a5e4     decode_table.obj
 0002:000565f8       ??_C@_0BB@OCGMDOJJ@?$CIprefix?5ext?5109?$CJ@ 7110a5f8     decode_table.obj
 0002:0005660c       ??_C@_0BB@FFABGCHD@?$CIprefix?5ext?5110?$CJ@ 7110a60c     decode_table.obj
 0002:00056620       ??_C@_0BB@OMHPGPCB@?$CIprefix?5ext?5101?$CJ@ 7110a620     decode_table.obj
 0002:00056634       ??_C@_0BB@FEMDAIEE@?$CIprefix?5ext?5111?$CJ@ 7110a634     decode_table.obj
 0002:00056648       ??_C@_0BB@OODJNBHI@?$CIprefix?5ext?5102?$CJ@ 7110a648     decode_table.obj
 0002:0005665c       ??_C@_0BG@OAPEFKMN@?$CIgroup?515?5mod?5ext?514?$CJ@ 7110a65c     decode_table.obj
 0002:00056674       ??_C@_0BG@OBDGDAPK@?$CIgroup?515?5mod?5ext?515?$CJ@ 7110a674     decode_table.obj
 0002:0005668c       ??_C@_0BG@ODHAIOKD@?$CIgroup?515?5mod?5ext?516?$CJ@ 7110a68c     decode_table.obj
 0002:000566a4       ??_C@_0BG@OCLCOEJE@?$CIgroup?515?5mod?5ext?517?$CJ@ 7110a6a4     decode_table.obj
 0002:000566bc       ??_C@_0BB@CGBKHMEB@?$CIprefix?5ext?5188?$CJ@ 7110a6bc     decode_table.obj
 0002:000566d0       ??_C@_0BF@JJCCDBPP@?$CIgroup?515?5mod?5ext?56?$CJ@ 7110a6d0     decode_table.obj
 0002:000566e8       ??_C@_0BF@JIOAFLMI@?$CIgroup?515?5mod?5ext?57?$CJ@ 7110a6e8     decode_table.obj
 0002:00056700       ??_C@_0BF@JPOJPDBE@?$CIgroup?515?5mod?5ext?53?$CJ@ 7110a700     decode_table.obj
 0002:00056718       ??_C@_0M@ENHAGFIJ@prefetchnta@ 7110a718     decode_table.obj
 0002:00056724       ??_C@_0L@HNBFCMAJ@prefetcht0@ 7110a724     decode_table.obj
 0002:00056730       ??_C@_0L@GEAOBNEI@prefetcht1@ 7110a730     decode_table.obj
 0002:0005673c       ??_C@_0L@EPCDEOIL@prefetcht2@ 7110a73c     decode_table.obj
 0002:00056748       ??_C@_09BPEGNLOA@prefetchw@ 7110a748     decode_table.obj
 0002:00056754       ??_C@_07BCLMPALO@blcfill@  7110a754     decode_table.obj
 0002:0005675c       ??_C@_07BBGKPCCF@blsfill@  7110a75c     decode_table.obj
 0002:00056764       ??_C@_04OFFMDLDI@blcs@     7110a764     decode_table.obj
 0002:0005676c       ??_C@_05HEBOKCFO@tzmsk@    7110a76c     decode_table.obj
 0002:00056774       ??_C@_05HHIGPKGH@blcic@    7110a774     decode_table.obj
 0002:0005677c       ??_C@_05CHJPKNPI@blsic@    7110a77c     decode_table.obj
 0002:00056784       ??_C@_06KHOIKAJK@t1mskc@   7110a784     decode_table.obj
 0002:0005678c       ??_C@_06MGOMPEEK@blcmsk@   7110a78c     decode_table.obj
 0002:00056794       ??_C@_04FFHBMBOD@blci@     7110a794     decode_table.obj
 0002:0005679c       ??_C@_06GMCECJCO@llwpcb@   7110a79c     decode_table.obj
 0002:000567a4       ??_C@_06PNLCMFAJ@slwpcb@   7110a7a4     decode_table.obj
 0002:000567ac       ??_C@_06MBAFKPDA@lwpins@   7110a7ac     decode_table.obj
 0002:000567b4       ??_C@_06PHJKBFK@lwpval@    7110a7b4     decode_table.obj
 0002:000567bc       ??_C@_04OAGBKJAJ@blsr@     7110a7bc     decode_table.obj
 0002:000567c4       ??_C@_06KGAMGDMI@blsmsk@   7110a7c4     decode_table.obj
 0002:000567cc       ??_C@_04EJFHGCJD@blsi@     7110a7cc     decode_table.obj
 0002:000567d4       ??_C@_0BC@FCPGJJCH@?$CIevex_Wb?5ext?5197?$CJ@ 7110a7d4     decode_table.obj
 0002:000567e8       ??_C@_0BC@FIGILECN@?$CIevex_Wb?5ext?5199?$CJ@ 7110a7e8     decode_table.obj
 0002:000567fc       ??_C@_0BC@GMNDNAMP@?$CIevex_Wb?5ext?5201?$CJ@ 7110a7fc     decode_table.obj
 0002:00056810       ??_C@_0BC@GPFHAEKB@?$CIevex_Wb?5ext?5203?$CJ@ 7110a810     decode_table.obj
 0002:00056824       ??_C@_0BC@FJKKNOBK@?$CIevex_Wb?5ext?5198?$CJ@ 7110a824     decode_table.obj
 0002:00056838       ??_C@_0BC@GNBBLKPI@?$CIevex_Wb?5ext?5200?$CJ@ 7110a838     decode_table.obj
 0002:0005684c       ??_C@_0BC@GOJFGOJG@?$CIevex_Wb?5ext?5202?$CJ@ 7110a84c     decode_table.obj
 0002:00056860       ??_C@_0BC@GKBIBCCE@?$CIevex_Wb?5ext?5204?$CJ@ 7110a860     decode_table.obj
 0002:00056874       ??_C@_06LMALHIP@movups@    7110a874     decode_table.obj
 0002:0005687c       ??_C@_0N@GINOMBD@?$CImod?5ext?518?$CJ@ 7110a87c     decode_table.obj
 0002:0005688c       ??_C@_06OEDDDBJ@movupd@    7110a88c     decode_table.obj
 0002:00056894       ??_C@_0N@HEPIGCE@?$CImod?5ext?519?$CJ@ 7110a894     decode_table.obj
 0002:000568a4       ??_C@_07JJLBCPIP@vmovups@  7110a8a4     decode_table.obj
 0002:000568ac       ??_C@_0M@CFODIMLG@?$CImod?5ext?58?$CJ@ 7110a8ac     decode_table.obj
 0002:000568b8       ??_C@_07JMDCKLBJ@vmovupd@  7110a8b8     decode_table.obj
 0002:000568c0       ??_C@_0M@CECBOGIB@?$CImod?5ext?59?$CJ@ 7110a8c0     decode_table.obj
 0002:000568cc       ??_C@_0BA@OMDJMNEH@?$CIevex_Wb?5ext?50?$CJ@ 7110a8cc     decode_table.obj
 0002:000568dc       ??_C@_0N@BKCLBCEF@?$CImod?5ext?520?$CJ@ 7110a8dc     decode_table.obj
 0002:000568ec       ??_C@_0BA@OPLNBJCJ@?$CIevex_Wb?5ext?52?$CJ@ 7110a8ec     decode_table.obj
 0002:000568fc       ??_C@_0N@BLOJHIHC@?$CImod?5ext?521?$CJ@ 7110a8fc     decode_table.obj
 0002:0005690c       ??_C@_05PNMEKBDI@movss@    7110a90c     decode_table.obj
 0002:00056914       ??_C@_05PIEHCFKO@movsd@    7110a914     decode_table.obj
 0002:0005691c       ??_C@_0N@IJOLNKL@?$CImod?5ext?510?$CJ@ 7110a91c     decode_table.obj
 0002:0005692c       ??_C@_0N@JFMNHJM@?$CImod?5ext?511?$CJ@ 7110a92c     decode_table.obj
 0002:0005693c       ??_C@_0BA@ONPLKHHA@?$CIevex_Wb?5ext?51?$CJ@ 7110a93c     decode_table.obj
 0002:0005694c       ??_C@_0N@BJKPMGCL@?$CImod?5ext?522?$CJ@ 7110a94c     decode_table.obj
 0002:0005695c       ??_C@_0BA@OOHPHDBO@?$CIevex_Wb?5ext?53?$CJ@ 7110a95c     decode_table.obj
 0002:0005696c       ??_C@_0N@BIGNKMBM@?$CImod?5ext?523?$CJ@ 7110a96c     decode_table.obj
 0002:0005697c       ??_C@_06CGNBKPJK@movlps@   7110a97c     decode_table.obj
 0002:00056984       ??_C@_08CKJMIMJO@movsldup@ 7110a984     decode_table.obj
 0002:00056990       ??_C@_06CDFCCLAM@movlpd@   7110a990     decode_table.obj
 0002:00056998       ??_C@_07NEEFCFLI@movddup@  7110a998     decode_table.obj
 0002:000569a0       ??_C@_07LEKADHJK@vmovlps@  7110a9a0     decode_table.obj
 0002:000569a8       ??_C@_09NEEIAFJJ@vmovsldup@ 7110a9a8     decode_table.obj
 0002:000569b4       ??_C@_07LBCDLDAM@vmovlpd@  7110a9b4     decode_table.obj
 0002:000569bc       ??_C@_08NENHFECA@vmovddup@ 7110a9bc     decode_table.obj
 0002:000569c8       ??_C@_0BB@FACFFD@?$CIevex_Wb?5ext?514?$CJ@ 7110a9c8     decode_table.obj
 0002:000569dc       ??_C@_0BB@JEKNMDH@?$CIevex_Wb?5ext?518?$CJ@ 7110a9dc     decode_table.obj
 0002:000569f0       ??_C@_0BB@DNEPBDN@?$CIevex_Wb?5ext?516?$CJ@ 7110a9f0     decode_table.obj
 0002:00056a04       ??_C@_0BB@IIILGAA@?$CIevex_Wb?5ext?519?$CJ@ 7110aa04     decode_table.obj
 0002:00056a18       ??_C@_0BB@BJCEPGE@?$CIevex_Wb?5ext?515?$CJ@ 7110aa18     decode_table.obj
 0002:00056a2c       ??_C@_0BB@CBGJLAK@?$CIevex_Wb?5ext?517?$CJ@ 7110aa2c     decode_table.obj
 0002:00056a40       ??_C@_08MLFKDOBP@unpcklps@ 7110aa40     decode_table.obj
 0002:00056a4c       ??_C@_08MONJLKIJ@unpcklpd@ 7110aa4c     decode_table.obj
 0002:00056a58       ??_C@_09DFIOLHBI@vunpcklps@ 7110aa58     decode_table.obj
 0002:00056a64       ??_C@_09DAANDDIO@vunpcklpd@ 7110aa64     decode_table.obj
 0002:00056a70       ??_C@_0BB@BDCHOAIK@?$CIevex_Wb?5ext?525?$CJ@ 7110aa70     decode_table.obj
 0002:00056a84       ??_C@_0BB@BBGBFOND@?$CIevex_Wb?5ext?526?$CJ@ 7110aa84     decode_table.obj
 0002:00056a98       ??_C@_08EEDIKJEI@unpckhps@ 7110aa98     decode_table.obj
 0002:00056aa4       ??_C@_08EBLLCNNO@unpckhpd@ 7110aaa4     decode_table.obj
 0002:00056ab0       ??_C@_09LKOMCAEP@vunpckhps@ 7110aab0     decode_table.obj
 0002:00056abc       ??_C@_09LPGPKENJ@vunpckhpd@ 7110aabc     decode_table.obj
 0002:00056ac8       ??_C@_0BB@BAKDDEOE@?$CIevex_Wb?5ext?527?$CJ@ 7110aac8     decode_table.obj
 0002:00056adc       ??_C@_0BB@BLPPHDNJ@?$CIevex_Wb?5ext?528?$CJ@ 7110aadc     decode_table.obj
 0002:00056af0       ??_C@_06KJLDDIMN@movhps@   7110aaf0     decode_table.obj
 0002:00056af8       ??_C@_08NPBMCKFO@movshdup@ 7110aaf8     decode_table.obj
 0002:00056b04       ??_C@_06KMDALMFL@movhpd@   7110ab04     decode_table.obj
 0002:00056b0c       ??_C@_07DLMCKAMN@vmovhps@  7110ab0c     decode_table.obj
 0002:00056b14       ??_C@_09CBMIKDFJ@vmovshdup@ 7110ab14     decode_table.obj
 0002:00056b20       ??_C@_07DOEBCEFL@vmovhpd@  7110ab20     decode_table.obj
 0002:00056b28       ??_C@_0BB@BFOMCCGB@?$CIevex_Wb?5ext?520?$CJ@ 7110ab28     decode_table.obj
 0002:00056b3c       ??_C@_0BB@BCOFIKLN@?$CIevex_Wb?5ext?524?$CJ@ 7110ab3c     decode_table.obj
 0002:00056b50       ??_C@_0BB@BGGIPGAP@?$CIevex_Wb?5ext?522?$CJ@ 7110ab50     decode_table.obj
 0002:00056b64       ??_C@_0BB@BECOEIFG@?$CIevex_Wb?5ext?521?$CJ@ 7110ab64     decode_table.obj
 0002:00056b78       ??_C@_0BB@BHKKJMDI@?$CIevex_Wb?5ext?523?$CJ@ 7110ab78     decode_table.obj
 0002:00056b8c       ??_C@_06NELLHHEH@movaps@   7110ab8c     decode_table.obj
 0002:00056b94       ??_C@_06NBDIPDNB@movapd@   7110ab94     decode_table.obj
 0002:00056b9c       ??_C@_07EGMKOPEH@vmovaps@  7110ab9c     decode_table.obj
 0002:00056ba4       ??_C@_07EDEJGLNB@vmovapd@  7110aba4     decode_table.obj
 0002:00056bac       ??_C@_0BA@OLDAGFJL@?$CIevex_Wb?5ext?54?$CJ@ 7110abac     decode_table.obj
 0002:00056bbc       ??_C@_0BA@OILELBPF@?$CIevex_Wb?5ext?56?$CJ@ 7110abbc     decode_table.obj
 0002:00056bcc       ??_C@_0BA@OKPCAPKM@?$CIevex_Wb?5ext?55?$CJ@ 7110abcc     decode_table.obj
 0002:00056bdc       ??_C@_0BA@OJHGNLMC@?$CIevex_Wb?5ext?57?$CJ@ 7110abdc     decode_table.obj
 0002:00056bec       ??_C@_08JLMBFAKN@cvtpi2ps@ 7110abec     decode_table.obj
 0002:00056bf8       ??_C@_08BPBDJMFK@cvtsi2ss@ 7110abf8     decode_table.obj
 0002:00056c04       ??_C@_08JOECNEDL@cvtpi2pd@ 7110ac04     decode_table.obj
 0002:00056c10       ??_C@_08BKJABIMM@cvtsi2sd@ 7110ac10     decode_table.obj
 0002:00056c1c       ??_C@_09OBMHBFFN@vcvtsi2ss@ 7110ac1c     decode_table.obj
 0002:00056c28       ??_C@_09OEEEJBML@vcvtsi2sd@ 7110ac28     decode_table.obj
 0002:00056c34       ??_C@_0BB@KMJCCPDD@?$CIevex_Wb?5ext?531?$CJ@ 7110ac34     decode_table.obj
 0002:00056c48       ??_C@_0BB@KONEJBGK@?$CIevex_Wb?5ext?532?$CJ@ 7110ac48     decode_table.obj
 0002:00056c5c       ??_C@_07ODAKPLKO@movntps@  7110ac5c     decode_table.obj
 0002:00056c64       ??_C@_07OBEMEFPH@movntss@  7110ac64     decode_table.obj
 0002:00056c6c       ??_C@_07OGIJHPDI@movntpd@  7110ac6c     decode_table.obj
 0002:00056c74       ??_C@_07OEMPMBGB@movntsd@  7110ac74     decode_table.obj
 0002:00056c7c       ??_C@_08ODJIIKDG@vmovntps@ 7110ac7c     decode_table.obj
 0002:00056c88       ??_C@_08OGBLAOKA@vmovntpd@ 7110ac88     decode_table.obj
 0002:00056c94       ??_C@_0BB@KPBGPLFN@?$CIevex_Wb?5ext?533?$CJ@ 7110ac94     decode_table.obj
 0002:00056ca8       ??_C@_0BB@KKFJONNI@?$CIevex_Wb?5ext?534?$CJ@ 7110aca8     decode_table.obj
 0002:00056cbc       ??_C@_09JKJNOGLN@cvttps2pi@ 7110acbc     decode_table.obj
 0002:00056cc8       ??_C@_09BOEPCKEK@cvttss2si@ 7110acc8     decode_table.obj
 0002:00056cd4       ??_C@_09EIFNKNCP@cvttpd2pi@ 7110acd4     decode_table.obj
 0002:00056ce0       ??_C@_09MMIPGBNI@cvttsd2si@ 7110ace0     decode_table.obj
 0002:00056cec       ??_C@_0L@IANFGLGA@vcvttss2si@ 7110acec     decode_table.obj
 0002:00056cf8       ??_C@_0L@FCBFCAPC@vcvttsd2si@ 7110acf8     decode_table.obj
 0002:00056d04       ??_C@_0BB@KLJLIHOP@?$CIevex_Wb?5ext?535?$CJ@ 7110ad04     decode_table.obj
 0002:00056d18       ??_C@_0BB@KJNNDJLG@?$CIevex_Wb?5ext?536?$CJ@ 7110ad18     decode_table.obj
 0002:00056d2c       ??_C@_08BLMCFFF@cvtps2pi@  7110ad2c     decode_table.obj
 0002:00056d38       ??_C@_08IFGOOJKC@cvtss2si@ 7110ad38     decode_table.obj
 0002:00056d44       ??_C@_08NDHMGOMH@cvtpd2pi@ 7110ad44     decode_table.obj
 0002:00056d50       ??_C@_08FHKOKCDA@cvtsd2si@ 7110ad50     decode_table.obj
 0002:00056d5c       ??_C@_09HLLKGAKF@vcvtss2si@ 7110ad5c     decode_table.obj
 0002:00056d68       ??_C@_09KJHKCLDH@vcvtsd2si@ 7110ad68     decode_table.obj
 0002:00056d74       ??_C@_0BB@BKDNBJOO@?$CIevex_Wb?5ext?529?$CJ@ 7110ad74     decode_table.obj
 0002:00056d88       ??_C@_0BB@KNFAEFAE@?$CIevex_Wb?5ext?530?$CJ@ 7110ad88     decode_table.obj
 0002:00056d9c       ??_C@_07EILIKDNM@ucomiss@  7110ad9c     decode_table.obj
 0002:00056da4       ??_C@_07ENDLCHEK@ucomisd@  7110ada4     decode_table.obj
 0002:00056dac       ??_C@_08EICKNCEE@vucomiss@ 7110adac     decode_table.obj
 0002:00056db8       ??_C@_08ENKJFGNC@vucomisd@ 7110adb8     decode_table.obj
 0002:00056dc4       ??_C@_0BB@KIBPFDIB@?$CIevex_Wb?5ext?537?$CJ@ 7110adc4     decode_table.obj
 0002:00056dd8       ??_C@_0BB@KDEDBELM@?$CIevex_Wb?5ext?538?$CJ@ 7110add8     decode_table.obj
 0002:00056dec       ??_C@_06FEEGDMDP@comiss@   7110adec     decode_table.obj
 0002:00056df4       ??_C@_06FBMFLIKJ@comisd@   7110adf4     decode_table.obj
 0002:00056dfc       ??_C@_07MGDHKEDP@vcomiss@  7110adfc     decode_table.obj
 0002:00056e04       ??_C@_07MDLECAKJ@vcomisd@  7110ae04     decode_table.obj
 0002:00056e0c       ??_C@_0BB@KCIBHOIL@?$CIevex_Wb?5ext?539?$CJ@ 7110ae0c     decode_table.obj
 0002:00056e20       ??_C@_0BB@DAIHHNLN@?$CIevex_Wb?5ext?540?$CJ@ 7110ae20     decode_table.obj
 0002:00056e34       ??_C@_08IEHFGOFI@movmskps@ 7110ae34     decode_table.obj
 0002:00056e40       ??_C@_08IBPGOKMO@movmskpd@ 7110ae40     decode_table.obj
 0002:00056e4c       ??_C@_09HKKBOHFP@vmovmskps@ 7110ae4c     decode_table.obj
 0002:00056e58       ??_C@_09HPCCGDMJ@vmovmskpd@ 7110ae58     decode_table.obj
 0002:00056e64       ??_C@_06EIMBPCFC@sqrtps@   7110ae64     decode_table.obj
 0002:00056e6c       ??_C@_06EKIHEMAL@sqrtss@   7110ae6c     decode_table.obj
 0002:00056e74       ??_C@_06ENECHGME@sqrtpd@   7110ae74     decode_table.obj
 0002:00056e7c       ??_C@_06EPAEMIJN@sqrtsd@   7110ae7c     decode_table.obj
 0002:00056e84       ??_C@_07NKLAGKFC@vsqrtps@  7110ae84     decode_table.obj
 0002:00056e8c       ??_C@_07NIPGNEAL@vsqrtss@  7110ae8c     decode_table.obj
 0002:00056e94       ??_C@_07NPDDOOME@vsqrtpd@  7110ae94     decode_table.obj
 0002:00056e9c       ??_C@_07NNHFFAJN@vsqrtsd@  7110ae9c     decode_table.obj
 0002:00056ea4       ??_C@_0BC@EOLBCHMP@?$CIevex_Wb?5ext?5265?$CJ@ 7110aea4     decode_table.obj
 0002:00056eb8       ??_C@_0BC@EMPHJJJG@?$CIevex_Wb?5ext?5266?$CJ@ 7110aeb8     decode_table.obj
 0002:00056ecc       ??_C@_07FOPKGEKI@rsqrtps@  7110aecc     decode_table.obj
 0002:00056ed4       ??_C@_07FMLMNKPB@rsqrtss@  7110aed4     decode_table.obj
 0002:00056edc       ??_C@_08FOGIBFDA@vrsqrtps@ 7110aedc     decode_table.obj
 0002:00056ee8       ??_C@_08FMCOKLGJ@vrsqrtss@ 7110aee8     decode_table.obj
 0002:00056ef4       ??_C@_05ONJJBNPC@rcpps@    7110aef4     decode_table.obj
 0002:00056efc       ??_C@_05OPNPKDKL@rcpss@    7110aefc     decode_table.obj
 0002:00056f04       ??_C@_06EOIPIGDO@vrcpps@   7110af04     decode_table.obj
 0002:00056f0c       ??_C@_06EMMJDIGH@vrcpss@   7110af0c     decode_table.obj
 0002:00056f14       ??_C@_05EPDAGJLO@andps@    7110af14     decode_table.obj
 0002:00056f1c       ??_C@_05EKLDONCI@andpd@    7110af1c     decode_table.obj
 0002:00056f24       ??_C@_06OMCGPCHC@vandps@   7110af24     decode_table.obj
 0002:00056f2c       ??_C@_06OJKFHGOE@vandpd@   7110af2c     decode_table.obj
 0002:00056f34       ??_C@_0BC@GLNKHIBD@?$CIevex_Wb?5ext?5205?$CJ@ 7110af34     decode_table.obj
 0002:00056f48       ??_C@_06JKAEBKCC@andnps@   7110af48     decode_table.obj
 0002:00056f50       ??_C@_06JPIHJOLE@andnpd@   7110af50     decode_table.obj
 0002:00056f58       ??_C@_07IHFICCC@vandnps@   7110af58     decode_table.obj
 0002:00056f60       ??_C@_07NPGAGLE@vandnpd@   7110af60     decode_table.obj
 0002:00056f68       ??_C@_0BC@GJJMMGEK@?$CIevex_Wb?5ext?5206?$CJ@ 7110af68     decode_table.obj
 0002:00056f7c       ??_C@_04LDGKMCAM@orps@     7110af7c     decode_table.obj
 0002:00056f84       ??_C@_04LGOJEGJK@orpd@     7110af84     decode_table.obj
 0002:00056f8c       ??_C@_05BJPBHKGO@vorps@    7110af8c     decode_table.obj
 0002:00056f94       ??_C@_05BMHCPOPI@vorpd@    7110af94     decode_table.obj
 0002:00056f9c       ??_C@_0BC@GIFOKMHN@?$CIevex_Wb?5ext?5207?$CJ@ 7110af9c     decode_table.obj
 0002:00056fb0       ??_C@_05CDPLBLBO@xorps@    7110afb0     decode_table.obj
 0002:00056fb8       ??_C@_05CGHIJPII@xorpd@    7110afb8     decode_table.obj
 0002:00056fc0       ??_C@_06IAONIANC@vxorps@   7110afc0     decode_table.obj
 0002:00056fc8       ??_C@_06IFGOAEEE@vxorpd@   7110afc8     decode_table.obj
 0002:00056fd0       ??_C@_0BC@GDACOLEA@?$CIevex_Wb?5ext?5208?$CJ@ 7110afd0     decode_table.obj
 0002:00056fe4       ??_C@_05FIAHBBP@addps@     7110afe4     decode_table.obj
 0002:00056fec       ??_C@_05HMGMPEG@addss@     7110afec     decode_table.obj
 0002:00056ff4       ??_C@_05DPFIJ@addpd@       7110aff4     decode_table.obj
 0002:00056ffc       ??_C@_05CEFELNA@addsd@     7110affc     decode_table.obj
 0002:00057004       ??_C@_06KGJGOKND@vaddps@   7110b004     decode_table.obj
 0002:0005700c       ??_C@_06KENAFEIK@vaddss@   7110b00c     decode_table.obj
 0002:00057014       ??_C@_06KDBFGOEF@vaddpd@   7110b014     decode_table.obj
 0002:0005701c       ??_C@_06KBFDNABM@vaddsd@   7110b01c     decode_table.obj
 0002:00057024       ??_C@_0BC@GCMAIBHH@?$CIevex_Wb?5ext?5209?$CJ@ 7110b024     decode_table.obj
 0002:00057038       ??_C@_0BC@FMAEIICB@?$CIevex_Wb?5ext?5255?$CJ@ 7110b038     decode_table.obj
 0002:0005704c       ??_C@_05OKHGCHLJ@mulps@    7110b04c     decode_table.obj
 0002:00057054       ??_C@_05OIDAJJOA@mulss@    7110b054     decode_table.obj
 0002:0005705c       ??_C@_05OPPFKDCP@mulpd@    7110b05c     decode_table.obj
 0002:00057064       ??_C@_05ONLDBNHG@mulsd@    7110b064     decode_table.obj
 0002:0005706c       ??_C@_06EJGALMHF@vmulps@   7110b06c     decode_table.obj
 0002:00057074       ??_C@_06ELCGACCM@vmulss@   7110b074     decode_table.obj
 0002:0005707c       ??_C@_06EMODDIOD@vmulpd@   7110b07c     decode_table.obj
 0002:00057084       ??_C@_06EOKFIGLK@vmulsd@   7110b084     decode_table.obj
 0002:0005708c       ??_C@_0BC@NFKNNNJN@?$CIevex_Wb?5ext?5210?$CJ@ 7110b08c     decode_table.obj
 0002:000570a0       ??_C@_0BC@FOECDGHI@?$CIevex_Wb?5ext?5256?$CJ@ 7110b0a0     decode_table.obj
 0002:000570b4       ??_C@_08LEBCFLBI@cvtps2pd@ 7110b0b4     decode_table.obj
 0002:000570c0       ??_C@_08DAMAJHOP@cvtss2sd@ 7110b0c0     decode_table.obj
 0002:000570cc       ??_C@_08GDFBJEBM@cvtpd2ps@ 7110b0cc     decode_table.obj
 0002:000570d8       ??_C@_08OHIDFIOL@cvtsd2ss@ 7110b0d8     decode_table.obj
 0002:000570e4       ??_C@_09EKMGNCBP@vcvtps2pd@ 7110b0e4     decode_table.obj
 0002:000570f0       ??_C@_09MOBEBOOI@vcvtss2sd@ 7110b0f0     decode_table.obj
 0002:000570fc       ??_C@_09JNIFBNBL@vcvtpd2ps@ 7110b0fc     decode_table.obj
 0002:00057108       ??_C@_09BJFHNBOM@vcvtsd2ss@ 7110b108     decode_table.obj
 0002:00057114       ??_C@_0BC@NEGPLHKK@?$CIevex_Wb?5ext?5211?$CJ@ 7110b114     decode_table.obj
 0002:00057128       ??_C@_0BC@FPIAFMEP@?$CIevex_Wb?5ext?5257?$CJ@ 7110b128     decode_table.obj
 0002:0005713c       ??_C@_08FDBGMMGD@cvtdq2ps@ 7110b13c     decode_table.obj
 0002:00057148       ??_C@_09DKJHFEI@cvttps2dq@ 7110b148     decode_table.obj
 0002:00057154       ??_C@_08JIIILGKA@cvtps2dq@ 7110b154     decode_table.obj
 0002:00057160       ??_C@_09KNMCEFGE@vcvtdq2ps@ 7110b160     decode_table.obj
 0002:0005716c       ??_C@_0L@JNDDDEGC@vcvttps2dq@ 7110b16c     decode_table.obj
 0002:00057178       ??_C@_09GGFMDPKH@vcvtps2dq@ 7110b178     decode_table.obj
 0002:00057184       ??_C@_0BB@IMLGGGGK@?$CIevex_Wb?5ext?556?$CJ@ 7110b184     decode_table.obj
 0002:00057198       ??_C@_0BC@FKMPEKMK@?$CIevex_Wb?5ext?5250?$CJ@ 7110b198     decode_table.obj
 0002:000571ac       ??_C@_0BC@ONKCBGCA@?$CIevex_Wb?5ext?5249?$CJ@ 7110b1ac     decode_table.obj
 0002:000571c0       ??_C@_05DDHFDDGB@subps@    7110b1c0     decode_table.obj
 0002:000571c8       ??_C@_05DBDDINDI@subss@    7110b1c8     decode_table.obj
 0002:000571d0       ??_C@_05DGPGLHPH@subpd@    7110b1d0     decode_table.obj
 0002:000571d8       ??_C@_05DELAAJKO@subsd@    7110b1d8     decode_table.obj
 0002:000571e0       ??_C@_06JAGDKIKN@vsubps@   7110b1e0     decode_table.obj
 0002:000571e8       ??_C@_06JCCFBGPE@vsubss@   7110b1e8     decode_table.obj
 0002:000571f0       ??_C@_06JFOACMDL@vsubpd@   7110b1f0     decode_table.obj
 0002:000571f8       ??_C@_06JHKGJCGC@vsubsd@   7110b1f8     decode_table.obj
 0002:00057200       ??_C@_0BC@NGCJAJPD@?$CIevex_Wb?5ext?5212?$CJ@ 7110b200     decode_table.obj
 0002:00057214       ??_C@_0BC@FENMBLHC@?$CIevex_Wb?5ext?5258?$CJ@ 7110b214     decode_table.obj
 0002:00057228       ??_C@_05OFGPJFLB@minps@    7110b228     decode_table.obj
 0002:00057230       ??_C@_05OHCJCLOI@minss@    7110b230     decode_table.obj
 0002:00057238       ??_C@_05OAOMBBCH@minpd@    7110b238     decode_table.obj
 0002:00057240       ??_C@_05OCKKKPHO@minsd@    7110b240     decode_table.obj
 0002:00057248       ??_C@_06EGHJAOHN@vminps@   7110b248     decode_table.obj
 0002:00057250       ??_C@_06EEDPLACE@vminss@   7110b250     decode_table.obj
 0002:00057258       ??_C@_06EDPKIKOL@vminpd@   7110b258     decode_table.obj
 0002:00057260       ??_C@_06EBLMDELC@vminsd@   7110b260     decode_table.obj
 0002:00057268       ??_C@_0BC@NHOLGDME@?$CIevex_Wb?5ext?5213?$CJ@ 7110b268     decode_table.obj
 0002:0005727c       ??_C@_0BC@FFBOHBEF@?$CIevex_Wb?5ext?5259?$CJ@ 7110b27c     decode_table.obj
 0002:00057290       ??_C@_05FHMNLLAJ@divps@    7110b290     decode_table.obj
 0002:00057298       ??_C@_05FFILAFFA@divss@    7110b298     decode_table.obj
 0002:000572a0       ??_C@_05FCEODPJP@divpd@    7110b2a0     decode_table.obj
 0002:000572a8       ??_C@_05FAAIIBMG@divsd@    7110b2a8     decode_table.obj
 0002:000572b0       ??_C@_06PENLCAMF@vdivps@   7110b2b0     decode_table.obj
 0002:000572b8       ??_C@_06PGJNJOJM@vdivss@   7110b2b8     decode_table.obj
 0002:000572c0       ??_C@_06PBFIKEFD@vdivpd@   7110b2c0     decode_table.obj
 0002:000572c8       ??_C@_06PDBOBKAK@vdivsd@   7110b2c8     decode_table.obj
 0002:000572d0       ??_C@_0BC@NCKEHFEB@?$CIevex_Wb?5ext?5214?$CJ@ 7110b2d0     decode_table.obj
 0002:000572e4       ??_C@_0BC@EIHKOFCE@?$CIevex_Wb?5ext?5260?$CJ@ 7110b2e4     decode_table.obj
 0002:000572f8       ??_C@_05KAGNNGDD@maxps@    7110b2f8     decode_table.obj
 0002:00057300       ??_C@_05KCCLGIGK@maxss@    7110b300     decode_table.obj
 0002:00057308       ??_C@_05KFOOFCKF@maxpd@    7110b308     decode_table.obj
 0002:00057310       ??_C@_05KHKIOMPM@maxsd@    7110b310     decode_table.obj
 0002:00057318       ??_C@_06DHLENPP@vmaxps@    7110b318     decode_table.obj
 0002:00057320       ??_C@_06BDNPDKG@vmaxss@    7110b320     decode_table.obj
 0002:00057328       ??_C@_06GPIMJGJ@vmaxpd@    7110b328     decode_table.obj
 0002:00057330       ??_C@_06ELOHHDA@vmaxsd@    7110b330     decode_table.obj
 0002:00058538       ??_C@_03NFCKBA@bbs@        7110c538     interp.obj
 0002:0005853c       ??_C@_0CJ@NKCEECEL@Warning?3?5Encountered?5Illegal?5In@ 7110c53c     interp.obj
 0002:00058568       ??_C@_09EPECJPIA@?7deleting@ 7110c568     interp.obj
 0002:00058574       ??_C@_04LGDOBLDN@8?5KB@    7110c574     proc_shared.obj
 0002:0005857c       ??_C@_05LBMICHOK@16?5KB@   7110c57c     proc_shared.obj
 0002:00058584       ??_C@_05JIACACB@32?5KB@    7110c584     proc_shared.obj
 0002:0005858c       ??_C@_05NGANEEDC@64?5KB@   7110c58c     proc_shared.obj
 0002:00058594       ??_C@_06KKNGDLBO@128?5KB@  7110c594     proc_shared.obj
 0002:0005859c       ??_C@_06DJALKPFK@256?5KB@  7110c59c     proc_shared.obj
 0002:000585a4       ??_C@_06JCLNHFAC@512?5KB@  7110c5a4     proc_shared.obj
 0002:000585ac       ??_C@_04LPKDAFPO@1?5MB@    7110c5ac     proc_shared.obj
 0002:000585b4       ??_C@_04PIADHPCO@2?5MB@    7110c5b4     proc_shared.obj
 0002:000585bc       ??_C@_07CIFAGBMG@unknown@  7110c5bc     proc_shared.obj
 0002:000585c8       ??_C@_1KC@CDCPBKAC@?$AA?2?$AAR?$AAe?$AAg?$AAi?$AAs?$AAt?$AAr?$AAy?$AA?2?$AAM?$AAa?$AAc?$AAh?$AAi@ 7110c5c8     eventlog.obj
 0002:0005866c       ??_C@_1BO@CHOLPGLN@?$AAT?$AAy?$AAp?$AAe?$AAs?$AAS?$AAu?$AAp?$AAp?$AAo?$AAr?$AAt?$AAe?$AAd@ 7110c66c     eventlog.obj
 0002:0005868c       ??_C@_1BM@ONAKAGDM@?$AAC?$AAa?$AAt?$AAe?$AAg?$AAo?$AAr?$AAy?$AAC?$AAo?$AAu?$AAn?$AAt@ 7110c68c     eventlog.obj
 0002:000586a8       ??_C@_1CC@JONFAEOP@?$AAE?$AAv?$AAe?$AAn?$AAt?$AAM?$AAe?$AAs?$AAs?$AAa?$AAg?$AAe?$AAF?$AAi?$AAl@ 7110c6a8     eventlog.obj
 0002:000586cc       ??_C@_1CI@GDJEBBOF@?$AAC?$AAa?$AAt?$AAe?$AAg?$AAo?$AAr?$AAy?$AAM?$AAe?$AAs?$AAs?$AAa?$AAg?$AAe@ 7110c6cc     eventlog.obj
 0002:000586f8       ??_C@_1IO@FOJHJLID@?$AA?2?$AAR?$AAe?$AAg?$AAi?$AAs?$AAt?$AAr?$AAy?$AA?2?$AAM?$AAa?$AAc?$AAh?$AAi@ 7110c6f8     eventlog.obj
 0002:00058788       ??_C@_1HK@PIJOMPJE@?$AA?2?$AAR?$AAe?$AAg?$AAi?$AAs?$AAt?$AAr?$AAy?$AA?2?$AAM?$AAa?$AAc?$AAh?$AAi@ 7110c788     eventlog.obj
 0002:00058804       ??_C@_1BE@NIHHGDIE@?$AAD?$AAy?$AAn?$AAa?$AAm?$AAo?$AAR?$AAI?$AAO@ 7110c804     eventlog.obj
 0002:00058818       ??_C@_1CE@INNKOFCM@?$AA?2?$AA?$DP?$AA?$DP?$AA?2?$AAP?$AAI?$AAP?$AAE?$AA?2?$AAE?$AAV?$AAE?$AAN?$AAT?$AAL@ 7110c818     eventlog.obj
 0002:0005883c       ??_C@_0M@NJALGCHB@Application@ 7110c83c     eventlog.obj
 0002:00058848       ??_C@_08LFBFELDC@?$AF?$AA?$AA?$AD?$BA?$AA?$AA?$AA@ 7110c848     eventlog.obj
 0002:00058854       ??_C@_1BK@OADCIHHB@?$AAC?$AAo?$AAm?$AAp?$AAu?$AAt?$AAe?$AAr?$AAN?$AAa?$AAm?$AAe@ 7110c854     eventlog.obj
 0002:00058870       ??_C@_1KG@EOFJGAPB@?$AA?2?$AAR?$AAe?$AAg?$AAi?$AAs?$AAt?$AAr?$AAy?$AA?2?$AAM?$AAa?$AAc?$AAh?$AAi@ 7110c870     eventlog.obj
 0002:00058918       ??_C@_04LKKMPPLN@?$CF?$CKls@ 7110c918     eventlog.obj
 0002:0005899c       ??_C@_08HENLMILP@?4profile@ 7110c99c     os.obj
 0002:000589a8       ??_C@_0O@FPJCBJJC@Interval?5?$CFd?6?6@ 7110c9a8     os.obj
 0002:000589b8       ??_C@_1BM@DNKLLFPM@?$AAd?$AAy?$AAn?$AAa?$AAm?$AAo?$AAr?$AAi?$AAo?$AA?4?$AAd?$AAl?$AAl@ 7110c9b8     os.obj
 0002:000589d4       ??_C@_1BE@GJOFHIHD@?$AAn?$AAt?$AAd?$AAl?$AAl?$AA?4?$AAd?$AAl?$AAl@ 7110c9d4     os.obj
 0002:000589e8       ??_C@_0DC@FHBEOACG@?6Dumping?5?$CFs?5profile?6?$CFd?5hits?5out@ 7110c9e8     os.obj
 0002:00058a1c       ??_C@_09FLKFJBLM@ntdll?4dll@ 7110ca1c     os.obj
 0002:00058a28       ??_C@_0CB@KBOCGOAE@?6Dumping?5global?5profile?6?$CFd?5hits@ 7110ca28     os.obj
 0002:00058a50       ??_C@_1HO@HGEJKIOJ@?$AA?2?$AAR?$AAe?$AAg?$AAi?$AAs?$AAt?$AAr?$AAy?$AA?2?$AAM?$AAa?$AAc?$AAh?$AAi@ 7110ca50     os.obj
 0002:00058ad0       ??_C@_1BK@MIHJMJHO@?$AAC?$AAu?$AAr?$AAr?$AAe?$AAn?$AAt?$AAB?$AAu?$AAi?$AAl?$AAd@ 7110cad0     os.obj
 0002:00058aec       ??_C@_02GMHACPFF@?$CFu@    7110caec     os.obj
 0002:00058af0       ??_C@_1BE@NJKHDEDH@?$AAE?$AAd?$AAi?$AAt?$AAi?$AAo?$AAn?$AAI?$AAd@ 7110caf0     os.obj
 0002:00058b04       ??_C@_1BE@NAGHIEKC@?$AAR?$AAe?$AAl?$AAe?$AAa?$AAs?$AAe?$AAI?$AAd@ 7110cb04     os.obj
 0002:00058b18       ??_C@_0BK@JPMEEJPN@NtAllocateVirtualMemoryEx@ 7110cb18     os.obj
 0002:00058b34       ??_C@_0BO@DGKAMBEC@Microsoft?5Windows?510?91803?5x64@ 7110cb34     os.obj
 0002:00058b54       ??_C@_0BK@NIFNBAOE@Microsoft?5Windows?510?91803@ 7110cb54     os.obj
 0002:00058b70       ??_C@_0O@NKDKIPAC@NtCallEnclave@ 7110cb70     os.obj
 0002:00058b80       ??_C@_0BO@EOBLPAII@Microsoft?5Windows?510?91709?5x64@ 7110cb80     os.obj
 0002:00058ba0       ??_C@_0BK@HKNBOIDI@Microsoft?5Windows?510?91709@ 7110cba0     os.obj
 0002:00058bbc       ??_C@_0P@BHFCIHLC@NtLoadHotPatch@ 7110cbbc     os.obj
 0002:00058bcc       ??_C@_0BO@OPIANDOO@Microsoft?5Windows?510?91703?5x64@ 7110cbcc     os.obj
 0002:00058bec       ??_C@_0BK@IADOAALC@Microsoft?5Windows?510?91703@ 7110cbec     os.obj
 0002:00058c08       ??_C@_0BM@GJHFCIDD@NtCreateRegistryTransaction@ 7110cc08     os.obj
 0002:00058c24       ??_C@_0BO@LILLJBGG@Microsoft?5Windows?510?91607?5x64@ 7110cc24     os.obj
 0002:00058c44       ??_C@_0BK@FMOOKCND@Microsoft?5Windows?510?91607@ 7110cc44     os.obj
 0002:00058c60       ??_C@_0BA@BNCPKENH@NtCreateEnclave@ 7110cc60     os.obj
 0002:00058c70       ??_C@_0BO@EGBKHOCM@Microsoft?5Windows?510?91511?5x64@ 7110cc70     os.obj
 0002:00058c90       ??_C@_0BK@BJMDMAIM@Microsoft?5Windows?510?91511@ 7110cc90     os.obj
 0002:00058cac       ??_C@_0BJ@JPJFGELG@Microsoft?5Windows?510?5x64@ 7110ccac     os.obj
 0002:00058cc8       ??_C@_0BF@EBAIHFDA@Microsoft?5Windows?510@ 7110ccc8     os.obj
 0002:00058ce0       ??_C@_0BK@JLPCCMG@Microsoft?5Windows?58?41?5x64@ 7110cce0     os.obj
 0002:00058cfc       ??_C@_0BG@ILHFPOJL@Microsoft?5Windows?58?41@ 7110ccfc     os.obj
 0002:00058d14       ??_C@_0BI@KFAMELM@Microsoft?5Windows?58?5x64@ 7110cd14     os.obj
 0002:00058d2c       ??_C@_0BE@PLBENLEO@Microsoft?5Windows?58@ 7110cd2c     os.obj
 0002:00058d40       ??_C@_0BM@NIPPIGDD@Microsoft?5Windows?57?5x64?5SP1@ 7110cd40     os.obj
 0002:00058d5c       ??_C@_0BI@LNBIBNIB@Microsoft?5Windows?57?5SP1@ 7110cd5c     os.obj
 0002:00058d74       ??_C@_0BM@MBOELHHC@Microsoft?5Windows?57?5x64?5SP0@ 7110cd74     os.obj
 0002:00058d90       ??_C@_0BI@KEADCMMA@Microsoft?5Windows?57?5SP0@ 7110cd90     os.obj
 0002:00058da8       ??_C@_0CA@DJGEBLPP@Microsoft?5Windows?5Vista?5x64?5SP1@ 7110cda8     os.obj
 0002:00058dc8       ??_C@_0BM@EGFGLNGD@Microsoft?5Windows?5Vista?5SP1@ 7110cdc8     os.obj
 0002:00058de4       ??_C@_0CA@CAHPCKLO@Microsoft?5Windows?5Vista?5x64?5SP0@ 7110cde4     os.obj
 0002:00058e04       ??_C@_0BM@FPENIMCC@Microsoft?5Windows?5Vista?5SP0@ 7110ce04     os.obj
 0002:00058e20       ??_C@_0BO@DDNKAKIL@Microsoft?5Windows?5x64?5XP?12003@ 7110ce20     os.obj
 0002:00058e40       ??_C@_0BH@GIIJAIDI@Microsoft?5Windows?52003@ 7110ce40     os.obj
 0002:00058e58       ??_C@_0BF@GDPDOODI@Microsoft?5Windows?5XP@ 7110ce58     os.obj
 0002:00058e70       ??_C@_0BH@EDKEFLPL@Microsoft?5Windows?52000@ 7110ce70     os.obj
 0002:00058e88       ??_C@_09KKNPHFOF@NtW32Call@ 7110ce88     os.obj
 0002:00058e94       ??_C@_0BC@PNINPEHO@NtReadFileScatter@ 7110ce94     os.obj
 0002:00058ea8       ??_C@_0BJ@GCPIIAFC@Microsoft?5Windows?5NT?5SP3@ 7110cea8     os.obj
 0002:00058ec4       ??_C@_0BJ@EJNFNDJB@Microsoft?5Windows?5NT?5SP0@ 7110cec4     os.obj
 0002:00058ee0       ??_C@_0CG@NFHBNIHH@Microsoft?5Windows?5NT?5SP4?0?55?0?56?0@ 7110cee0     os.obj
 0002:00058f08       ??_C@_04MNFLMFEA@?5x64@    7110cf08     os.obj
 0002:00058f10       ??_C@_0BK@OLLMNAAE@Microsoft?5Windows?510?9?$CFs?$CFs@ 7110cf10     os.obj
 0002:00058f2c       ??_C@_0BM@MMMOKGBI@Unknown?5Windows?510?$CL?5version@ 7110cf2c     os.obj
 0002:00058f48       ??_C@_0CC@NFEBOGOP@Unknown?5Windows?5NT?9family?5versi@ 7110cf48     os.obj
 0002:00058f6c       ??_C@_0CK@FBBHEJDH@Application?5?$CFs?5?$CI?$CFs?$CJ?5?$CFs?5does?5not@ 7110cf6c     os.obj
 0002:00058f98       ??_C@_0L@KINKMMPO@Windows?5ME@ 7110cf98     os.obj
 0002:00058fa4       ??_C@_0L@GBLDALMJ@Windows?598@ 7110cfa4     os.obj
 0002:00058fb0       ??_C@_0BD@LOKJBKDO@Windows?53?41?5?1?5WfWg@ 7110cfb0     os.obj
 0002:00058fc4       ??_C@_0CA@HHANDPOC@this?5unknown?5version?5of?5Windows@ 7110cfc4     os.obj
 0002:00058fe4       ??_C@_06EMHLCMIC@Win32s@   7110cfe4     os.obj
 0002:00058ff0       ??_C@_0EH@OMNHLLDP@Application?5?$CFs?5?$CI?$CFs?$CJ?5is?5running?5@ 7110cff0     os.obj
 0002:00059038       ??_C@_0BE@FEPJFGML@KiFastSystemCallRet@ 7110d038     os.obj
 0002:0005904c       ??_C@_0BB@JANLDJDP@KiFastSystemCall@ 7110d04c     os.obj
 0002:00059060       ??_C@_0CG@ODNDPMFL@Unrecoverable?5error?5on?5TLS?5allo@ 7110d060     os.obj
 0002:00059088       ??_C@_0CE@DNMLDGGD@?6Finished?5dumping?5all?5profile?5i@ 7110d088     os.obj
 0002:000590ac       ??_C@_04CGFJFPFD@none@     7110d0ac     os.obj
 0002:000590b4       ??_C@_06IBPPMFNL@COMMIT@   7110d0b4     os.obj
 0002:000590bc       ??_C@_04HEDFJGEJ@FREE@     7110d0bc     os.obj
 0002:000590c4       ??_C@_07FNPANPI@RESERVE@   7110d0c4     os.obj
 0002:000590cc       ??_C@_07NMEOOBNC@?$CIerror?$CJ@ 7110d0cc     os.obj
 0002:000590d4       ??_C@_05BNHKIGFN@IMAGE@    7110d0d4     os.obj
 0002:000590dc       ??_C@_06JCBBOILC@MAPPED@   7110d0dc     os.obj
 0002:000590e4       ??_C@_07CBKGEIHF@PRIVATE@  7110d0e4     os.obj
 0002:000590ec       ??_C@_04ECGLBLOI@?9?9?9?9@ 7110d0ec     os.obj
 0002:000590f4       ??_C@_04PICIEDPC@r?9?9?9@  7110d0f4     os.obj
 0002:000590fc       ??_C@_04FMJIKMDE@rw?9?9@   7110d0fc     os.obj
 0002:00059104       ??_C@_04DCGCMOLP@rw?9c@    7110d104     os.obj
 0002:0005910c       ??_C@_04CIBMPHLD@?9?9x?9@  7110d10c     os.obj
 0002:00059114       ??_C@_04JCFPKPKJ@r?9x?9@   7110d114     os.obj
 0002:0005911c       ??_C@_04DGOPEAGP@rwx?9@    7110d11c     os.obj
 0002:00059124       ??_C@_04FIBFCCOE@rwxc@     7110d124     os.obj
 0002:00059130       ??_C@_0OF@HPINMAP@?7?7BaseAddress?$DN?5?5?5?5?5?5?5?5?5?$CC?$CFp?$CC?6?7?7A@ 7110d130     os.obj
 0002:00059218       ??_C@_0LL@GANGALNO@BaseAddress?3?5?5?5?5?5?5?5?$CFp?6Allocatio@ 7110d218     os.obj
 0002:000592d4       ??_C@_0CI@LPJMLLDB@?$DM?9?9?5Unable?5to?5dump?5mbi?5for?5addr@ 7110d2d4     os.obj
 0002:000592fc       ??_C@_0CA@EJHHKEDF@Unable?5to?5dump?5mbi?5for?5addr?5?$CFp?6@ 7110d2fc     os.obj
 0002:0005931c       ??_C@_05KPMKNBBM@lib64@    7110d31c     os.obj
 0002:00059324       ??_C@_0CO@ONCIMOFO@?$DMfailed?5to?5determine?5alternate?5@ 7110d324     os.obj
 0002:00059358       ??_C@_0EM@EFKJBNJB@Application?5?$CFs?5?$CI?$CFs?$CJ?4?5The?5librar@ 7110d358     os.obj
 0002:000593a4       ??_C@_05MENJHLOO@?4pexe@   7110d3a4     os.obj
 0002:000593ac       ??_C@_0CK@CBNBABKO@Profile?5Dump?6Range?5?$CFp?9?$CFp?6Step?5?$CF@ 7110d3ac     os.obj
 0002:000593d8       ??_C@_08DMEHPCNF@?$CFp?5?$CF10d?6@ 7110d3d8     os.obj
 0002:000593e4       ??_C@_0BH@DKPJNAEC@Finished?5Profile?5Dump?6@ 7110d3e4     os.obj
 0002:000593fc       ??_C@_1CK@JPHGDDHM@?$AA?$CF?$AAh?$AAs?$AA?5?$AAN?$AAo?$AAt?$AAi?$AAc?$AAe?$AA?3?$AA?5?$AA?$CF?$AAh?$AAs@ 7110d3fc     os.obj
 0002:00059428       ??_C@_17LGGGMOOB@?$AA?$CF?$AAh?$AAs@ 7110d428     os.obj
 0002:00059430       ??_C@_1DE@DIPAKJOG@?$AA?2?$AAD?$AAe?$AAv?$AAi?$AAc?$AAe?$AA?2?$AAL?$AAa?$AAn?$AAm?$AAa?$AAn?$AAR@ 7110d430     os.obj
 0002:00059464       ??_C@_19JDDPIMDB@?$AA?2?$AA?2?$AA?$CF?$AAs@ 7110d464     os.obj
 0002:00059470       ??_C@_17MFDAJLJA@?$AA?2?$AA?$DP?$AA?$DP@ 7110d470     os.obj
 0002:00059478       ??_C@_19LJDFFCJJ@?$AA?$CF?$AAs?$AA?$CF?$AAs@ 7110d478     os.obj
 0002:00059484       ??_C@_13FPGAJAPJ@?$AA?2@   7110d484     os.obj
 0002:00059488       ??_C@_11LOCGONAA@@         7110d488     os.obj
 0002:0005948c       ??_C@_17DLOIEBPL@?$AAU?$AAN?$AAC@ 7110d48c     os.obj
 0002:00059494       ??_C@_1CA@COGOPDFM@?$AA?2?$AA?$DP?$AA?$DP?$AA?2?$AA?$CF?$AAs?$AA?$CF?$AA?4?$AA?$CK?$AAh?$AAs?$AA?$CF?$AAs?$AA?$CF?$AAs@ 7110d494     os.obj
 0002:000594b4       ??_C@_1CG@OBNNJPJN@?$AA?2?$AA?$DP?$AA?$DP?$AA?2?$AA?$CF?$AAl?$AAs?$AA?$CF?$AA?4?$AA?$CK?$AAh?$AAs?$AA?$CF?$AAl?$AAs@ 7110d4b4     os.obj
 0002:000594dc       ??_C@_1BA@GIFDHOIA@?$AA?2?$AA?$DP?$AA?$DP?$AA?2?$AA?$CF?$AAh?$AAs@ 7110d4dc     os.obj
 0002:000594ec       ??_C@_0BL@ECLJENFM@?$CFs?$DN0x?$CF04x?5?$CI0x?$CF08x?50x?$CF08x?$CJ?6@ 7110d4ec     os.obj
 0002:00059508       ??_C@_0L@NCPNCLDO@?$CFs?$DN0x?$CF04x?6@ 7110d508     os.obj
 0002:00059518       ??_C@_0HG@JEPAJNF@Thread?$DN?$CFp?6TEB?$DN?$CFp?6HandleRights?$DN0@ 7110d518     os.obj
 0002:00059590       ??_C@_02HGHADPEB@Cs@       7110d590     os.obj
 0002:00059594       ??_C@_02GKFGJMDB@Ss@       7110d594     os.obj
 0002:00059598       ??_C@_02HDDPCJME@Ds@       7110d598     os.obj
 0002:0005959c       ??_C@_02HCPNEDPD@Es@       7110d59c     os.obj
 0002:000595a0       ??_C@_02HALLPNKK@Fs@       7110d5a0     os.obj
 0002:000595a4       ??_C@_02HBHJJHJN@Gs@       7110d5a4     os.obj
 0002:000595a8       ??_C@_0BD@KPFPDMLG@Win32StartAddr?$DN?$CFp?6@ 7110d5a8     os.obj
 0002:000595bc       ??_C@_05PECNOBIH@?4ldmp@   7110d5bc     os.obj
 0002:000595c4       ??_C@_03OHEJPPDF@?$CFp?6@  7110d5c4     os.obj
 0002:000595c8       ??_C@_07PLBLIBAI@PEB?$DN?$CFp?6@ 7110d5c8     os.obj
 0002:000595d0       ??_C@_0BC@PNCCFHO@dynamorio?4dll?$DN?$CFp?6@ 7110d5d0     os.obj
 0002:000595e8       ??_C@_0EH@MKGFOIJF@Thread?$DN0x?$CF08x?6TEB?$DN?$CFp?6HandleRigh@ 7110d5e8     os.obj
 0002:00059630       ??_C@_0CK@JHPKKIDE@?$DMerror?5all?5threads?5list?5is?5alre@ 7110d630     os.obj
 0002:00059660       ??_C@_0IC@IMEEENAO@?6BaseAddress?$DN?$CFp?6AllocationBase?$DN@ 7110d660     os.obj
 0002:000596e4       ??_C@_0DF@JLHBIDGP@Core?5dump?5file?5for?5application?5@ 7110d6e4     os.obj
 0002:00059720       ??_C@_0EG@LKABOGBD@Timeout?5expired?5?9?51st?5wait?0?5pos@ 7110d720     os.obj
 0002:00059768       ??_C@_0EG@IIOJODCC@Timeout?5expired?5?9?52nd?5wait?0?5pos@ 7110d768     os.obj
 0002:000597b0       ??_C@_04CDPLFOEF@?$CFc?$CFs@ 7110d7b0     os.obj
 0002:000597b8       ??_C@_0L@EPGBAMPH@NtContinue@ 7110d7b8     syscall.obj
 0002:000597c4       ??_C@_0BB@JMFJJKDD@NtCallbackReturn@ 7110d7c4     syscall.obj
 0002:000597d8       ??_C@_0BD@NDMIEODP@NtSetContextThread@ 7110d7d8     syscall.obj
 0002:000597ec       ??_C@_0BD@LHJBPAIN@NtGetContextThread@ 7110d7ec     syscall.obj
 0002:00059800       ??_C@_0BA@OJKJNKOD@NtCreateProcess@ 7110d800     syscall.obj
 0002:00059810       ??_C@_0BC@ICOCMOJJ@NtCreateProcessEx@ 7110d810     syscall.obj
 0002:00059824       ??_C@_0BE@IIPCAPLK@NtCreateUserProcess@ 7110d824     syscall.obj
 0002:00059838       ??_C@_0BD@LGANCOHC@NtTerminateProcess@ 7110d838     syscall.obj
 0002:0005984c       ??_C@_0P@OKOANDML@NtCreateThread@ 7110d84c     syscall.obj
 0002:0005985c       ??_C@_0BB@KGGDNLNO@NtCreateThreadEx@ 7110d85c     syscall.obj
 0002:00059870       ??_C@_0BG@MEDPHOGD@NtCreateWorkerFactory@ 7110d870     syscall.obj
 0002:00059888       ??_C@_0BC@ELJMEKPC@NtTerminateThread@ 7110d888     syscall.obj
 0002:0005989c       ??_C@_0BA@MDECOLOI@NtSuspendThread@ 7110d89c     syscall.obj
 0002:000598ac       ??_C@_0P@JDJEHDNH@NtResumeThread@ 7110d8ac     syscall.obj
 0002:000598bc       ??_C@_0BJ@HKKELGGC@NtQueryInformationThread@ 7110d8bc     syscall.obj
 0002:000598d8       ??_C@_0BI@BKMFFNKN@NtAllocateVirtualMemory@ 7110d8d8     syscall.obj
 0002:000598f0       ??_C@_0BE@KBMHLKEP@NtFreeVirtualMemory@ 7110d8f0     syscall.obj
 0002:00059904       ??_C@_0BH@EDMKDLIP@NtProtectVirtualMemory@ 7110d904     syscall.obj
 0002:0005991c       ??_C@_0BF@MJPACJIK@NtQueryVirtualMemory@ 7110d91c     syscall.obj
 0002:00059934       ??_C@_0BF@HCBMBPOD@NtWriteVirtualMemory@ 7110d934     syscall.obj
 0002:0005994c       ??_C@_0BD@OPIOPJOL@NtMapViewOfSection@ 7110d94c     syscall.obj
 0002:00059960       ??_C@_0BF@OIFMDDME@NtMapViewOfSectionEx@ 7110d960     syscall.obj
 0002:00059978       ??_C@_0BF@HJLDAPGE@NtUnmapViewOfSection@ 7110d978     syscall.obj
 0002:00059990       ??_C@_0BH@JJHGFE@NtUnmapViewOfSectionEx@ 7110d990     syscall.obj
 0002:000599a8       ??_C@_0BI@NEMBHADC@NtFlushInstructionCache@ 7110d9a8     syscall.obj
 0002:000599c0       ??_C@_0BI@GAGFKGFE@NtFreeUserPhysicalPages@ 7110d9c0     syscall.obj
 0002:000599d8       ??_C@_0BH@OHHEDCIB@NtMapUserPhysicalPages@ 7110d9d8     syscall.obj
 0002:000599f0       ??_C@_0BO@IOKEIEFP@NtSetInformationVirtualMemory@ 7110d9f0     syscall.obj
 0002:00059a10       ??_C@_0BP@LIJANAEL@NtWow64AllocateVirtualMemory64@ 7110da10     syscall.obj
 0002:00059a30       ??_C@_0O@LPFPADAK@NtOpenSection@ 7110da30     syscall.obj
 0002:00059a40       ??_C@_0BA@MANLHNBJ@NtCreateSection@ 7110da40     syscall.obj
 0002:00059a50       ??_C@_07EGJLEIEB@NtClose@  7110da50     syscall.obj
 0002:00059a58       ??_C@_0BC@MDCBEKCC@NtDuplicateObject@ 7110da58     syscall.obj
 0002:00059a6c       ??_C@_0BE@IPFMANGC@NtAlertResumeThread@ 7110da6c     syscall.obj
 0002:00059a80       ??_C@_0L@GBDFLBPA@NtOpenFile@ 7110da80     syscall.obj
 0002:00059a8c       ??_C@_0M@HGILIOF@NtTestAlert@ 7110da8c     syscall.obj
 0002:00059a98       ??_C@_0BB@KAHALOMK@NtRaiseException@ 7110da98     syscall.obj
 0002:00059aac       ??_C@_0N@KPMLACHP@NtCreateFile@ 7110daac     syscall.obj
 0002:00059abc       ??_C@_0M@DAAEGBND@NtCreateKey@ 7110dabc     syscall.obj
 0002:00059ac8       ??_C@_09KPFDHBKE@NtOpenKey@ 7110dac8     syscall.obj
 0002:00059ad4       ??_C@_0M@HMNOCLMB@NtOpenKeyEx@ 7110dad4     syscall.obj
 0002:00059ae0       ??_C@_0O@JGCNKEPA@NtOpenProcess@ 7110dae0     syscall.obj
 0002:00059af0       ??_C@_0BD@EIILLDLN@NtOpenProcessToken@ 7110daf0     syscall.obj
 0002:00059b04       ??_C@_0BF@JCLEMGJN@NtOpenProcessTokenEx@ 7110db04     syscall.obj
 0002:00059b1c       ??_C@_0N@EJDHLIH@NtOpenThread@ 7110db1c     syscall.obj
 0002:00059b2c       ??_C@_0BC@PBPJBNCP@NtOpenThreadToken@ 7110db2c     syscall.obj
 0002:00059b40       ??_C@_0BE@OAKNBJJI@NtOpenThreadTokenEx@ 7110db40     syscall.obj
 0002:00059b54       ??_C@_0BG@OJBPGNEC@NtQueryAttributesFile@ 7110db54     syscall.obj
 0002:00059b6c       ??_C@_0BK@KGDIPKDC@NtQueryFullAttributesFile@ 7110db6c     syscall.obj
 0002:00059b88       ??_C@_0BF@HIJKNMCB@NtSetInformationFile@ 7110db88     syscall.obj
 0002:00059ba0       ??_C@_0BH@KPLDILJD@NtSetInformationThread@ 7110dba0     syscall.obj
 0002:00059bb8       ??_C@_0BI@IMFMFAHN@NtSetInformationProcess@ 7110dbb8     syscall.obj
 0002:00059bd0       ??_C@_0O@OMDJGLHA@NtSetValueKey@ 7110dbd0     syscall.obj
 0002:00059be0       ??_C@_0BG@LHJPPGIC@NtWaitForSingleObject@ 7110dbe0     syscall.obj
 0002:00059c20       ??_C@_0BE@NAKDEJCI@DYNAMORIO_CONFIGDIR@ 7110dc20     syscall.obj
 0002:00059c34       ??_C@_1M@IJNHNJIG@?$AA?$CF?$AAs?$AA?$DN?$AA?$CF?$AAS@ 7110dc34     syscall.obj
 0002:00059c40       ??_C@_0DB@LKMHGBGB@32?9bit?5parent?8s?564?9bit?5child?5no@ 7110dc40     syscall.obj
 0002:00059c74       ??_C@_0DO@LHBDJKDK@Application?5?$CFs?5?$CI?$CFs?$CJ?4?5Failed?5to?5@ 7110dc74     syscall.obj
 0002:00059cb4       ??_C@_0DC@ICKDFPFP@Option?5propagation?5failed?5to?5ac@ 7110dcb4     syscall.obj
 0002:00059ce8       ??_C@_0CG@JJHCIOKF@Option?5propagation?5failed?5to?5fi@ 7110dce8     syscall.obj
 0002:00059d10       ??_C@_0DE@JHMLPONH@Option?5propagation?5failed?5to?5fi@ 7110dd10     syscall.obj
 0002:00059d44       ??_C@_0CN@JFPLLAHL@Option?5propagation?5failed?5to?5ad@ 7110dd44     syscall.obj
 0002:00059d74       ??_C@_0CM@HPGNGJHK@Option?5propagation?5failed?5to?5ac@ 7110dd74     syscall.obj
 0002:00059da0       ??_C@_0CD@NDFCOBAA@Child?5thread?5not?5created?5suspen@ 7110dda0     syscall.obj
 0002:00059dc4       ??_C@_0CG@KADJKEAG@Failed?5to?5get?5context?5of?5child?5@ 7110ddc4     syscall.obj
 0002:00059dec       ??_C@_0CG@LNLBIBKC@Failed?5to?5set?5context?5of?5child?5@ 7110ddec     syscall.obj
 0002:00059e18       ??_C@_0FK@IBFKGGBK@Application?5?$CFs?5?$CI?$CFs?$CJ?4?5System?5lib@ 7110de18     callback.obj
 0002:00059e74       ??_C@_1BI@FIGCNADM@?$AAc?$AAy?$AAg?$AAw?$AAi?$AAn?$AA1?$AA?4?$AAd?$AAl?$AAl@ 7110de74     callback.obj
 0002:00059e8c       ??_C@_0DC@LGMIDBBB@?6?$CFs?6Code?$DN0x?$CF08x?5Flags?$DN0x?$CF08x?5Pa@ 7110de8c     callback.obj
 0002:00059ec0       ??_C@_0IB@KBAOJLBM@?$CFs?5?$CFs?5at?5PC?5?$CFp?60x?$CF08x?50x?$CF08x?5?$CFp@ 7110dec0     callback.obj
 0002:00059f44       ??_C@_0DA@NJAIEDAH@Warning?3?5Racy?5app?5execution?5?$CIde@ 7110df44     callback.obj
 0002:00059f74       ??_C@_0BB@GGFCNIKC@try?1except?5fault@ 7110df74     callback.obj
 0002:00059f88       ??_C@_0CP@NEIKPOBI@Exception?5occurred?5in?5native?5ap@ 7110df88     callback.obj
 0002:00059fb8       ??_C@_0CI@EICHMBBG@Exception?5occurred?5in?5applicati@ 7110dfb8     callback.obj
 0002:00059fe0       ??_C@_0BE@HFKDFCBF@svchost?4exe?9netsvcs@ 7110dfe0     callback.obj
 0002:00059ff4       ??_C@_1BG@PMIPDOHG@?$AAw?$AAz?$AAc?$AAs?$AAv?$AAc?$AA?4?$AAd?$AAl?$AAl@ 7110dff4     callback.obj
 0002:0005a00c       ??_C@_0BD@INALBIAL@LdrInitializeThunk@ 7110e00c     callback.obj
 0002:0005a020       ??_C@_0BD@BHKNPFBB@RtlUserThreadStart@ 7110e020     callback.obj
 0002:0005a034       ??_C@_0BL@NJDHCDMK@NtWow64ReadVirtualMemory64@ 7110e034     ntdll_shared.obj
 0002:0005a050       ??_C@_0BM@NAJEDIDA@NtWow64WriteVirtualMemory64@ 7110e050     ntdll_shared.obj
 0002:0005a06c       ??_C@_0CB@GDPHBMJN@NtWow64QueryInformationProcess6@ 7110e06c     ntdll_shared.obj
 0002:0005a090       ??_C@_0BM@BLANBBMM@RtlGetExtendedContextLength@ 7110e090     ntdll.obj
 0002:0005a0ac       ??_C@_0BN@BINLFFKD@RtlInitializeExtendedContext@ 7110e0ac     ntdll.obj
 0002:0005a0cc       ??_C@_0BH@OADANMBG@RtlLocateLegacyContext@ 7110e0cc     ntdll.obj
 0002:0005a0e4       ??_C@_0BA@KFLOHNAA@NtGetNextThread@ 7110e0e4     ntdll.obj
 0002:0005a0f4       ??_C@_1BG@PJNAJFGP@?$AA?2?$AAD?$AAy?$AAn?$AAa?$AAm?$AAo?$AAR?$AAI?$AAO@ 7110e0f4     ntdll.obj
 0002:0005a10c       ??_C@_1CO@FCIPMKBE@?$AA?2?$AAD?$AAy?$AAn?$AAa?$AAm?$AAo?$AAR?$AAI?$AAO?$AA?2?$AAS?$AAh?$AAa?$AAr@ 7110e10c     ntdll.obj
 0002:0005a13c       ??_C@_1BK@DBDEIDLH@?$AAK?$AAE?$AAR?$AAN?$AAE?$AAL?$AA3?$AA2?$AA?4?$AAD?$AAL?$AAL@ 7110e13c     inject.obj
 0002:0005a158       ??_C@_0P@DGIDOA@GetProcAddress@ 7110e158     inject.obj
 0002:0005a168       ??_C@_0N@LOMLCOFC@LoadLibraryA@ 7110e168     inject.obj
 0002:0005a178       ??_C@_0BC@CBLDKCHH@dynamo_auto_start@ 7110e178     inject.obj
 0002:0005a18c       ??_C@_0CG@GHJEJPJH@dynamorio_app_init_and_early_ta@ 7110e18c     inject.obj
 0002:0005a1b4       ??_C@_0CB@MOLHABDE@dynamorio_earliest_init_takeove@ 7110e1b4     inject.obj
 0002:0005a1d8       ??_C@_05ONPNAMJH@?$CF?4?$CKls@ 7110e1d8     inject_shared.obj
 0002:0005a1e0       ??_C@_09EKPEPMND@?$CFls?5?9?5?$CFls@ 7110e1e0     inject_shared.obj
 0002:0005a1f0       ??_C@_0FM@PJJDLLJA@Application?5?$CFs?5?$CI?$CFs?$CJ?4?5Error?5read@ 7110e1f0     inject_shared.obj
 0002:0005a250       ??_C@_1GA@KDFBDFLB@?$AA?2?$AAR?$AAe?$AAg?$AAi?$AAs?$AAt?$AAr?$AAy?$AA?2?$AAM?$AAa?$AAc?$AAh?$AAi@ 7110e250     inject_shared.obj
 0002:0005a2b0       ??_C@_1FO@JLEIFANI@?$AA?2?$AAR?$AAe?$AAg?$AAi?$AAs?$AAt?$AAr?$AAy?$AA?2?$AAM?$AAa?$AAc?$AAh?$AAi@ 7110e2b0     inject_shared.obj
 0002:0005a310       ??_C@_1GG@KMAKALDL@?$AA?2?$AAR?$AAe?$AAg?$AAi?$AAs?$AAt?$AAr?$AAy?$AA?2?$AAM?$AAa?$AAc?$AAh?$AAi@ 7110e310     inject_shared.obj
 0002:0005a378       ??_C@_1BK@LNFEFIJC@?$AAA?$AAp?$AAp?$AAI?$AAn?$AAi?$AAt?$AA_?$AAD?$AAL?$AAL?$AAs@ 7110e378     inject_shared.obj
 0002:0005a398       ??_C@_1IO@KEAHEJON@?$AA?2?$AAR?$AAe?$AAg?$AAi?$AAs?$AAt?$AAr?$AAy?$AA?2?$AAM?$AAa?$AAc?$AAh?$AAi@ 7110e398     inject_shared.obj
 0002:0005a428       ??_C@_0BA@NPELIOP@drpreinject?4dll@ 7110e428     inject_shared.obj
 0002:0005a438       ??_C@_0N@GMNMHNA@DRPREI?$HO1?4DLL@ 7110e438     inject_shared.obj
 0002:0005a448       ??_C@_0BP@LBNFODLA@LdrDisableThreadCalloutsForDll@ 7110e448     module.obj
 0002:0005a468       ??_C@_0BA@GMKCHBGF@RtlRbRemoveNode@ 7110e468     module.obj
 0002:0005a478       ??_C@_0BC@HDNMJCKH@?$DMloaded?9modules?$DO?6@ 7110e478     module.obj
 0002:0005a48c       ??_C@_0BC@OMHLBNCL@?6Loaded?5modules?3?6@ 7110e48c     module.obj
 0002:0005a4a0       ??_C@_02KAJCLHKP@no@       7110e4a0     module.obj
 0002:0005a4a4       ??_C@_03ICICOMAL@yes@      7110e4a4     module.obj
 0002:0005a4a8       ??_C@_06OJHGLDPL@?$CInull?$CJ@ 7110e4a8     module.obj
 0002:0005a4b0       ??_C@_0LN@NOHKCGFJ@?7?$DMdll?5range?$DN?$CC?$CFp?9?$CFp?$CC?5name?$DN?$CC?$CFls?$CC?5@ 7110e4b0     module.obj
 0002:0005a570       ??_C@_0IJ@GDJPJDAP@?5?5?$CFp?9?$CFp?5?$CF?913ls?5entry?$DN?$CFp?5count?$DN?$CF@ 7110e570     module.obj
 0002:0005a5fc       ??_C@_19OEJGHIEG@?$AAn?$AAo?$AAn?$AAe@ 7110e5fc     module.obj
 0002:0005a608       ??_C@_0IB@KKIMFPEI@file_version?$DN?$CC?$CFd?4?$CFd?4?$CFd?4?$CFd?$CC?5prod@ 7110e608     module.obj
 0002:0005a690       ??_C@_0GN@POCPIOPA@?7file_version?$DN?$CFd?4?$CFd?4?$CFd?4?$CFd?5produ@ 7110e690     module.obj
 0002:0005a700       ??_C@_0BP@LINJCCGN@no_version_information?$DN?$CCtrue?$CC?5@ 7110e700     module.obj
 0002:0005a720       ??_C@_0CE@EOGINGED@?7module_has_no_version_informat@ 7110e720     module.obj
 0002:0005a744       ??_C@_04KIBKJBMP@?1?$DO?5?6@ 7110e744     module.obj
 0002:0005a74c       ??_C@_0BD@NPOFEIIG@?$DM?1loaded?9modules?$DO?6@ 7110e74c     module.obj
 0002:0005a760       ??_C@_0BH@MLGNFJJM@?$DMprint_modules_safe?1?$DO?6@ 7110e760     module.obj
 0002:0005a778       ??_C@_19JIFMCCAP@?$AAp?$AAa?$AAt?$AAh@ 7110e778     module.obj
 0002:0005a784       ??_C@_19HHIIBINK@?$AAn?$AAa?$AAm?$AAe@ 7110e784     module.obj
 0002:0005a790       ??_C@_0KH@JKBLFGLC@?7?$DMdll?5range?$DN?$CC?$CFp?9?$CFp?$CC?5name?$DN?$CC?$CFls?$CC?5@ 7110e790     module.obj
 0002:0005a838       ??_C@_0HH@LAKDJDDO@?5?5?$CFp?9?$CFp?5?$CF?913ls?5entry?$DN?$CFp?5count?$DN?$CF@ 7110e838     module.obj
 0002:0005a8b0       ??_C@_0EG@GIFBPALH@Application?5?$CFs?5?$CI?$CFs?$CJ?5is?5not?5supp@ 7110e8b0     module.obj
 0002:0005a8f8       ??_C@_0ND@KDMJJFGE@?7?7mod_base?$DN?5?5?5?5?5?5?5?5?5?5?5?5?$CC?$CFp?$CC?6?7?7s@ 7110e8f8     module.obj
 0002:0005a9cc       ??_C@_1CA@FOECMPGO@?$AAV?$AAS?$AA_?$AAV?$AAE?$AAR?$AAS?$AAI?$AAO?$AAN?$AA_?$AAI?$AAN?$AAF?$AAO@ 7110e9cc     module.obj
 0002:0005a9ec       ??_C@_1BO@PBBNDBNF@?$AAS?$AAt?$AAr?$AAi?$AAn?$AAg?$AAF?$AAi?$AAl?$AAe?$AAI?$AAn?$AAf?$AAo@ 7110e9ec     module.obj
 0002:0005aa0c       ??_C@_1BI@LJHFMFCG@?$AAV?$AAa?$AAr?$AAF?$AAi?$AAl?$AAe?$AAI?$AAn?$AAf?$AAo@ 7110ea0c     module.obj
 0002:0005aa24       ??_C@_1BI@KBKGFMKH@?$AAC?$AAo?$AAm?$AAp?$AAa?$AAn?$AAy?$AAN?$AAa?$AAm?$AAe@ 7110ea24     module.obj
 0002:0005aa3c       ??_C@_1BI@CJGIOPAN@?$AAP?$AAr?$AAo?$AAd?$AAu?$AAc?$AAt?$AAN?$AAa?$AAm?$AAe@ 7110ea3c     module.obj
 0002:0005aa54       ??_C@_1CC@CHBCEHAO@?$AAO?$AAr?$AAi?$AAg?$AAi?$AAn?$AAa?$AAl?$AAF?$AAi?$AAl?$AAe?$AAn?$AAa?$AAm@ 7110ea54     module.obj
 0002:0005aa78       ??_C@_03PCCJIL@?$CD?$CFu@  7110ea78     module_shared.obj
 0002:0005aa7c       ??_C@_03OCHKFGFI@dll@      7110ea7c     module_shared.obj
 0002:0005aa80       ??_C@_0L@HOFGLFDL@LdrLoadDll@ 7110ea80     module_shared.obj
 0002:0005aa8c       ??_C@_0N@FIGJGHFN@LdrUnloadDll@ 7110ea8c     module_shared.obj
 0002:0005aa9c       ??_C@_03BBKEAIF@?$DP?$DP?$DP@ 7110ea9c     diagnost.obj
 0002:0005aaa0       ??_C@_03JIHJHPIE@Jan@      7110eaa0     diagnost.obj
 0002:0005aaa4       ??_C@_03HJBDCHOM@Feb@      7110eaa4     diagnost.obj
 0002:0005aaa8       ??_C@_03ODNJBKGA@Mar@      7110eaa8     diagnost.obj
 0002:0005aaac       ??_C@_03LEOLGMJP@Apr@      7110eaac     diagnost.obj
 0002:0005aab0       ??_C@_03CNMDKL@May@        7110eab0     diagnost.obj
 0002:0005aab4       ??_C@_03IDFGHECI@Jun@      7110eab4     diagnost.obj
 0002:0005aab8       ??_C@_03LBGABGKK@Jul@      7110eab8     diagnost.obj
 0002:0005aabc       ??_C@_03IFJFEIGA@Aug@      7110eabc     diagnost.obj
 0002:0005aac0       ??_C@_03GGCAPAJC@Sep@      7110eac0     diagnost.obj
 0002:0005aac4       ??_C@_03BMAOKBAD@Oct@      7110eac4     diagnost.obj
 0002:0005aac8       ??_C@_03JPJOFNIA@Nov@      7110eac8     diagnost.obj
 0002:0005aacc       ??_C@_03MKABNOCG@Dec@      7110eacc     diagnost.obj
 0002:0005aad0       ??_C@_0EJ@CLIFBJG@?9?9?9?9?9?9?9?9?9?9?9?9?9?9?9?9?9?9?9?9?9?9?9?9?9?9?9?9?9?9?9@ 7110ead0     diagnost.obj
 0002:0005abb0       ??_C@_1IC@GPDCCPFE@?$AA?2?$AAR?$AAe?$AAg?$AAi?$AAs?$AAt?$AAr?$AAy?$AA?2?$AAM?$AAa?$AAc?$AAh?$AAi@ 7110ebb0     diagnost.obj
 0002:0005ac38       ??_C@_1GI@MPEPBHHO@?$AA?2?$AAR?$AAe?$AAg?$AAi?$AAs?$AAt?$AAr?$AAy?$AA?2?$AAM?$AAa?$AAc?$AAh?$AAi@ 7110ec38     diagnost.obj
 0002:0005aca0       ??_C@_1GK@CKILKIAF@?$AA?2?$AAR?$AAe?$AAg?$AAi?$AAs?$AAt?$AAr?$AAy?$AA?2?$AAM?$AAa?$AAc?$AAh?$AAi@ 7110eca0     diagnost.obj
 0002:0005ad10       ??_C@_1IO@FGLPJEKK@?$AA?2?$AAR?$AAe?$AAg?$AAi?$AAs?$AAt?$AAr?$AAy?$AA?2?$AAM?$AAa?$AAc?$AAh?$AAi@ 7110ed10     diagnost.obj
 0002:0005ada0       ??_C@_1IE@NILLBPIH@?$AA?2?$AAR?$AAe?$AAg?$AAi?$AAs?$AAt?$AAr?$AAy?$AA?2?$AAM?$AAa?$AAc?$AAh?$AAi@ 7110eda0     diagnost.obj
 0002:0005ae28       ??_C@_1HO@MKNPGEMK@?$AA?2?$AAR?$AAe?$AAg?$AAi?$AAs?$AAt?$AAr?$AAy?$AA?2?$AAM?$AAa?$AAc?$AAh?$AAi@ 7110ee28     diagnost.obj
 0002:0005aea8       ??_C@_1KI@PPMLJGAE@?$AA?2?$AAR?$AAe?$AAg?$AAi?$AAs?$AAt?$AAr?$AAy?$AA?2?$AAM?$AAa?$AAc?$AAh?$AAi@ 7110eea8     diagnost.obj
 0002:0005af50       ??_C@_1JA@DBIKNFJH@?$AA?2?$AAR?$AAe?$AAg?$AAi?$AAs?$AAt?$AAr?$AAy?$AA?2?$AAM?$AAa?$AAc?$AAh?$AAi@ 7110ef50     diagnost.obj
 0002:0005afe0       ??_C@_1LI@DEPBONDM@?$AA?2?$AAR?$AAe?$AAg?$AAi?$AAs?$AAt?$AAr?$AAy?$AA?2?$AAM?$AAa?$AAc?$AAh?$AAi@ 7110efe0     diagnost.obj
 0002:0005b098       ??_C@_1LC@KDJEBCAM@?$AA?2?$AAR?$AAe?$AAg?$AAi?$AAs?$AAt?$AAr?$AAy?$AA?2?$AAM?$AAa?$AAc?$AAh?$AAi@ 7110f098     diagnost.obj
 0002:0005b150       ??_C@_1KO@CPFDJIJK@?$AA?2?$AAR?$AAe?$AAg?$AAi?$AAs?$AAt?$AAr?$AAy?$AA?2?$AAM?$AAa?$AAc?$AAh?$AAi@ 7110f150     diagnost.obj
 0002:0005b200       ??_C@_1KE@FCCGMIAN@?$AA?2?$AAR?$AAe?$AAg?$AAi?$AAs?$AAt?$AAr?$AAy?$AA?2?$AAM?$AAa?$AAc?$AAh?$AAi@ 7110f200     diagnost.obj
 0002:0005b2a8       ??_C@_1JI@NPCBHOFD@?$AA?2?$AAR?$AAe?$AAg?$AAi?$AAs?$AAt?$AAr?$AAy?$AA?2?$AAM?$AAa?$AAc?$AAh?$AAi@ 7110f2a8     diagnost.obj
 0002:0005b340       ??_C@_1IA@PHLJBDGJ@?$AA?2?$AAR?$AAe?$AAg?$AAi?$AAs?$AAt?$AAr?$AAy?$AA?2?$AAM?$AAa?$AAc?$AAh?$AAi@ 7110f340     diagnost.obj
 0002:0005b3c0       ??_C@_1II@HGALGHFC@?$AA?2?$AAR?$AAe?$AAg?$AAi?$AAs?$AAt?$AAr?$AAy?$AA?2?$AAM?$AAa?$AAc?$AAh?$AAi@ 7110f3c0     diagnost.obj
 0002:0005b448       ??_C@_1IM@IHBAAEOC@?$AA?2?$AAR?$AAe?$AAg?$AAi?$AAs?$AAt?$AAr?$AAy?$AA?2?$AAM?$AAa?$AAc?$AAh?$AAi@ 7110f448     diagnost.obj
 0002:0005b4d8       ??_C@_1KM@IIFPPCD@?$AA?2?$AAR?$AAe?$AAg?$AAi?$AAs?$AAt?$AAr?$AAy?$AA?2?$AAM?$AAa?$AAc?$AAh?$AAi@ 7110f4d8     diagnost.obj
 0002:0005b588       ??_C@_1LA@JOFDBICA@?$AA?2?$AAR?$AAe?$AAg?$AAi?$AAs?$AAt?$AAr?$AAy?$AA?2?$AAM?$AAa?$AAc?$AAh?$AAi@ 7110f588     diagnost.obj
 0002:0005b638       ??_C@_1JG@CDHFCFDJ@?$AA?2?$AAR?$AAe?$AAg?$AAi?$AAs?$AAt?$AAr?$AAy?$AA?2?$AAM?$AAa?$AAc?$AAh?$AAi@ 7110f638     diagnost.obj
 0002:0005b6d0       ??_C@_1GO@IMPKFJCD@?$AA?2?$AAR?$AAe?$AAg?$AAi?$AAs?$AAt?$AAr?$AAy?$AA?2?$AAM?$AAa?$AAc?$AAh?$AAi@ 7110f6d0     diagnost.obj
 0002:0005b740       ??_C@_1IE@BODNDOBO@?$AA?2?$AAR?$AAe?$AAg?$AAi?$AAs?$AAt?$AAr?$AAy?$AA?2?$AAM?$AAa?$AAc?$AAh?$AAi@ 7110f740     diagnost.obj
 0002:0005b7c8       ??_C@_1IG@EPMAHCPK@?$AA?2?$AAR?$AAe?$AAg?$AAi?$AAs?$AAt?$AAr?$AAy?$AA?2?$AAM?$AAa?$AAc?$AAh?$AAi@ 7110f7c8     diagnost.obj
 0002:0005b850       ??_C@_1JK@JAKLGEBP@?$AA?2?$AAR?$AAe?$AAg?$AAi?$AAs?$AAt?$AAr?$AAy?$AA?2?$AAM?$AAa?$AAc?$AAh?$AAi@ 7110f850     diagnost.obj
 0002:0005b8f0       ??_C@_1GI@BMOGCKOI@?$AA?2?$AAR?$AAe?$AAg?$AAi?$AAs?$AAt?$AAr?$AAy?$AA?2?$AAM?$AAa?$AAc?$AAh?$AAi@ 7110f8f0     diagnost.obj
 0002:0005b958       ??_C@_1CM@FDDKAFMM@?$AAC?$AAo?$AAn?$AAt?$AAr?$AAo?$AAl?$AA?5?$AAP?$AAa?$AAn?$AAe?$AAl?$AA?2?$AAD@ 7110f958     diagnost.obj
 0002:0005b988       ??_C@_1HA@IDBMHCOA@?$AAS?$AAO?$AAF?$AAT?$AAW?$AAA?$AAR?$AAE?$AA?2?$AAM?$AAi?$AAc?$AAr?$AAo?$AAs@ 7110f988     diagnost.obj
 0002:0005b9f8       ??_C@_1GI@PFFEDHKH@?$AAS?$AAO?$AAF?$AAT?$AAW?$AAA?$AAR?$AAE?$AA?2?$AAM?$AAi?$AAc?$AAr?$AAo?$AAs@ 7110f9f8     diagnost.obj
 0002:0005ba60       ??_C@_1GM@GIBHDOLK@?$AAS?$AAO?$AAF?$AAT?$AAW?$AAA?$AAR?$AAE?$AA?2?$AAM?$AAi?$AAc?$AAr?$AAo?$AAs@ 7110fa60     diagnost.obj
 0002:0005bad0       ??_C@_1HE@DNPDBOKL@?$AAS?$AAO?$AAF?$AAT?$AAW?$AAA?$AAR?$AAE?$AA?2?$AAM?$AAi?$AAc?$AAr?$AAo?$AAs@ 7110fad0     diagnost.obj
 0002:0005bb48       ??_C@_1HC@KNKIELKL@?$AAS?$AAO?$AAF?$AAT?$AAW?$AAA?$AAR?$AAE?$AA?2?$AAM?$AAi?$AAc?$AAr?$AAo?$AAs@ 7110fb48     diagnost.obj
 0002:0005bbc0       ??_C@_1IA@PNCDEKMN@?$AAS?$AAO?$AAF?$AAT?$AAW?$AAA?$AAR?$AAE?$AA?2?$AAM?$AAi?$AAc?$AAr?$AAo?$AAs@ 7110fbc0     diagnost.obj
 0002:0005bc40       ??_C@_1IA@DBHDCKEC@?$AAS?$AAO?$AAF?$AAT?$AAW?$AAA?$AAR?$AAE?$AA?2?$AAM?$AAi?$AAc?$AAr?$AAo?$AAs@ 7110fc40     diagnost.obj
 0002:0005bcc0       ??_C@_1FM@KNABEEEB@?$AAS?$AAO?$AAF?$AAT?$AAW?$AAA?$AAR?$AAE?$AA?2?$AAM?$AAi?$AAc?$AAr?$AAo?$AAs@ 7110fcc0     diagnost.obj
 0002:0005bd20       ??_C@_1GE@DONAIPPK@?$AAS?$AAO?$AAF?$AAT?$AAW?$AAA?$AAR?$AAE?$AA?2?$AAM?$AAi?$AAc?$AAr?$AAo?$AAs@ 7110fd20     diagnost.obj
 0002:0005bd88       ??_C@_1HC@OLAEOJFJ@?$AAS?$AAO?$AAF?$AAT?$AAW?$AAA?$AAR?$AAE?$AA?2?$AAP?$AAo?$AAl?$AAi?$AAc?$AAi@ 7110fd88     diagnost.obj
 0002:0005bdfc       ??_C@_05DMDHGMIF@?$CF?4?$CKS?6@ 7110fdfc     diagnost.obj
 0002:0005be04       ??_C@_03NNECAHIM@?$CFS?6@  7110fe04     diagnost.obj
 0002:0005be08       ??_C@_07HMJFOJGL@0x?$CF?48x?6@ 7110fe08     diagnost.obj
 0002:0005be10       ??_C@_05PCOJHGNM@?$CF?42x?5@ 7110fe10     diagnost.obj
 0002:0005be18       ??_C@_04GAOAGNCM@?4xml@    7110fe18     diagnost.obj
 0002:0005be20       ??_C@_0M@HIBAPICF@?$CFs?3?50x?$CF?48x?6@ 7110fe20     diagnost.obj
 0002:0005be2c       ??_C@_0L@EBPPBCKI@?$DM?$CB?$FLCDATA?$FL?6@ 7110fe2c     diagnost.obj
 0002:0005be38       ??_C@_0CI@KFCNHACH@Can?8t?5print?50x?$CF?48x?90x?$CF?48x?5?$CIunre@ 7110fe38     diagnost.obj
 0002:0005be60       ??_C@_04BECDPEPH@?$FN?$FN?$DO?6@ 7110fe60     diagnost.obj
 0002:0005be68       ??_C@_06GGPOMPNM@?$CInone?$CJ@ 7110fe68     diagnost.obj
 0002:0005be70       ??_C@_0HF@JODHHNPN@?7?7address?$DN?5?5?5?5?5?5?5?5?5?5?5?5?5?$CC0x?$CF?48x?$CC@ 7110fe70     diagnost.obj
 0002:0005bee8       ??_C@_0O@PCNPLIPI@?7?7?$DO?$DMcontent?$DO?6@ 7110fee8     diagnost.obj
 0002:0005bef8       ??_C@_0O@CJPAIEKN@?7?7?$DM?1content?$DO?6@ 7110fef8     diagnost.obj
 0002:0005bf08       ??_C@_06OEKOLKIL@source@   7110ff08     diagnost.obj
 0002:0005bf10       ??_C@_0BC@KOJDNALE@?7?$DM?$CFs?9properties?5?6@ 7110ff10     diagnost.obj
 0002:0005bf24       ??_C@_0CD@BMKBOOMF@?7?7?$DMcache?9content?6?7?7?7flags?$DN?5?$CC0x?$CF@ 7110ff24     diagnost.obj
 0002:0005bf48       ??_C@_0N@MEPABMLE@?6?7?7?7tags?$DN?5?5?$CC@ 7110ff48     diagnost.obj
 0002:0005bf58       ??_C@_02NEKEAGPN@?$DO?6@   7110ff58     diagnost.obj
 0002:0005bf5c       ??_C@_02BKJPHGNJ@pc@       7110ff5c     diagnost.obj
 0002:0005bf60       ??_C@_0CG@JPCIODIK@?7?7?$DM?1cache?9content?$DO?6?7?$DM?1?$CFs?9proper@ 7110ff60     diagnost.obj
 0002:0005bf88       ??_C@_06JJLAMBGK@target@   7110ff88     diagnost.obj
 0002:0005bf90       ??_C@_0BD@IKPICAH@?7?$DM?1?$CFs?9properties?$DO?6@ 7110ff90     diagnost.obj
 0002:0005bfa4       ??_C@_0BB@NNDGHNFI@preferred?9target@ 7110ffa4     diagnost.obj
 0002:0005bfb8       ??_C@_0GA@EHNIDNLL@?$DMvm?9counters?$DO?6?$CF?410d?5?$CF?410d?5?$CF?410d@ 7110ffb8     diagnost.obj
 0002:0005c018       ??_C@_0CE@BPMOKGPG@?7No?5thread?5specific?5data?5availa@ 71110018     diagnost.obj
 0002:0005c03c       ??_C@_0BM@PBNLGAAK@?7?$DMwhereami?$DO?5?$CFd?5?$DM?1whereami?$DO?6@ 7111003c     diagnost.obj
 0002:0005c058       ??_C@_0BG@EJLECFDF@?7?$DMstack?$DO?6?7?7?$DMcontent?$DO?6@ 71110058     diagnost.obj
 0002:0005c070       ??_C@_0O@FHPKDHAN@Current?5Stack@ 71110070     diagnost.obj
 0002:0005c080       ??_C@_0BI@IJGEEKFN@?7?7?$DM?1content?$DO?6?7?$DM?1stack?$DO?6@ 71110080     diagnost.obj
 0002:0005c098       ??_C@_05IHHHDFHJ@Stack@    71110098     diagnost.obj
 0002:0005c0a0       ??_C@_0KM@KKPLOOOI@?$DMinternal?9data?9structures?$DO?6auto@ 711100a0     diagnost.obj
 0002:0005c14c       ??_C@_0N@NKIJENOI@Exec?5areas?3?6@ 7111014c     diagnost.obj
 0002:0005c15c       ??_C@_0BB@MEGCGFBK@current?5dcontext@ 7111015c     diagnost.obj
 0002:0005c170       ??_C@_0BF@ECGMCMNK@?6Call?5stack?5for?5DR?3?6@ 71110170     diagnost.obj
 0002:0005c188       ??_C@_0P@KJMNOJHN@ebp?$DN?$CFp?5esp?$DN?$CFp?6@ 71110188     diagnost.obj
 0002:0005c198       ??_C@_08ILHMBPFI@DR?5Stack@ 71110198     diagnost.obj
 0002:0005c1a4       ??_C@_0BG@PDLPKPIF@option?5string?5?$DN?5?$CC?$CFs?$CC?6@ 711101a4     diagnost.obj
 0002:0005c1bc       ??_C@_0BN@FHKOOKMA@?$DM?1internal?9data?9structures?$DO?6@ 711101bc     diagnost.obj
 0002:0005c1dc       ??_C@_0CD@GPDLPDJH@?$DMntdll?9file?9information?$DO?$DM?$CB?$FLCDAT@ 711101dc     diagnost.obj
 0002:0005c200       ??_C@_1BG@FIGGICF@?$AAS?$AAy?$AAs?$AAt?$AAe?$AAm?$AAR?$AAo?$AAo?$AAt@ 71110200     diagnost.obj
 0002:0005c218       ??_C@_1HO@PKFMCJEM@?$AA?2?$AAR?$AAe?$AAg?$AAi?$AAs?$AAt?$AAr?$AAy?$AA?2?$AAM?$AAa?$AAc?$AAh?$AAi@ 71110218     diagnost.obj
 0002:0005c298       ??_C@_1CG@JCAMCKJJ@?$AAS?$AAy?$AAs?$AAt?$AAe?$AAm?$AA3?$AA2?$AA?2?$AAN?$AAT?$AAD?$AAL?$AAL?$AA?4@ 71110298     diagnost.obj
 0002:0005c2c0       ??_C@_1BE@LADKIFIO@?$AA?2?$AA?$DP?$AA?$DP?$AA?2?$AA?$CF?$AAs?$AA?2?$AA?$CF?$AAs@ 711102c0     diagnost.obj
 0002:0005c2d8       ??_C@_0FA@HFLMECDD@0x?$CF?411x?$CF?48x?50x?$CF?411x?$CF?48x?50x?$CF?411x@ 711102d8     diagnost.obj
 0002:0005c328       ??_C@_0BP@NGAIPHNO@?$FN?$FN?$DO?$DM?1ntdll?9file?9information?$DO?6?6@ 71110328     diagnost.obj
 0002:0005c348       ??_C@_0DA@MGOAFPAE@?6?$DMthread?5id?$DN?$CC?$CFd?$CC?5current?9thread@ 71110348     diagnost.obj
 0002:0005c378       ??_C@_0L@EBNNKHBA@?$DM?1thread?$DO?6@ 71110378     diagnost.obj
 0002:0005c384       ??_C@_0BC@JIMMHBIG@?$DMcurrent?9process?6@ 71110384     diagnost.obj
 0002:0005c398       ??_C@_0BP@KPCBFKNC@name?$DN?5?5?5?5?5?5?5?5?5?5?5?5?5?5?5?5?5?5?5?5?$CC?$CFs?$CC?6@ 71110398     diagnost.obj
 0002:0005c3b8       ??_C@_0BP@PBDPFOM@name?$DN?5?5?5?5?5?5?5?5?5?5?5?5?5?5?5?5?5?5?5?5?$CC?$CFS?$CC?6@ 711103b8     diagnost.obj
 0002:0005c3d8       ??_C@_0BP@GCGCOPBO@image?9path?$DN?5?5?5?5?5?5?5?5?5?5?5?5?5?5?$CC?$CFS?$CC?6@ 711103d8     diagnost.obj
 0002:0005c3f8       ??_C@_0BP@DMFJLLLF@full?9qualified?9name?$DN?5?5?5?5?5?$CC?$CFs?$CC?6@ 711103f8     diagnost.obj
 0002:0005c418       ??_C@_0BP@HHEPADPO@short?9qualified?9name?$DN?5?5?5?5?$CC?$CFS?$CC?6@ 71110418     diagnost.obj
 0002:0005c438       ??_C@_0BP@MPPDIFCM@current?9directory?9path?$DN?5?5?$CC?$CFS?$CC?6@ 71110438     diagnost.obj
 0002:0005c458       ??_C@_0BP@ECGHBAGB@process?9id?$DN?5?5?5?5?5?5?5?5?5?5?5?5?5?5?$CC?$CFs?$CC?6@ 71110458     diagnost.obj
 0002:0005c478       ??_C@_0BP@IPKJHPEH@process?9id?$DN?5?5?5?5?5?5?5?5?5?5?5?5?5?5?$CC?$CFd?$CC?6@ 71110478     diagnost.obj
 0002:0005c498       ??_C@_0EB@LHEKEDKD@being?9debugged?$DN?5?5?5?5?5?5?5?5?5?5?$CC?$CFs?$CC?6i@ 71110498     diagnost.obj
 0002:0005c4dc       ??_C@_0BP@GEKBJOCC@shell?9info?$DN?5?5?5?5?5?5?5?5?5?5?5?5?5?5?$CC?$CFS?$CC?6@ 711104dc     diagnost.obj
 0002:0005c4fc       ??_C@_1O@CEDCILHN@?$AA?$CI?$AAn?$AAu?$AAl?$AAl?$AA?$CJ@ 711104fc     diagnost.obj
 0002:0005c50c       ??_C@_0BP@HNLHCBBK@runtime?9info?$DN?5?5?5?5?5?5?5?5?5?5?5?5?$CC?$CFS?$CC?6@ 7111050c     diagnost.obj
 0002:0005c52c       ??_C@_0CD@HNOCODCM@console?9flags?$DN?5?5?5?5?5?5?5?5?5?5?5?$CC0x?$CF?48@ 7111052c     diagnost.obj
 0002:0005c550       ??_C@_0MN@MPOEEHNO@thread?9count?$DN?5?5?5?5?5?5?5?5?5?5?5?5?$CC?$CFd?$CC?6h@ 71110550     diagnost.obj
 0002:0005c620       ??_C@_0DA@LOLAGPGJ@?$DO?$DMcommand?9line?$DO?$DM?$CB?$FLCDATA?$FL?5?$CFS?6?$FN?$FN?$DO@ 71110620     diagnost.obj
 0002:0005c650       ??_C@_0BK@MBOPIAFD@?$DMdll?9path?$DO?$DM?$CB?$FLCDATA?$FL?5?5?5?5?5?5@ 71110650     diagnost.obj
 0002:0005c66c       ??_C@_07JDKBICDB@?$CF?42047S@ 7111066c     diagnost.obj
 0002:0005c674       ??_C@_0BB@NKHLHNCF@?6?$FN?$FN?$DO?$DM?1dll?9path?$DO?6@ 71110674     diagnost.obj
 0002:0005c688       ??_C@_0GH@MKCMKKLG@?$DMio?9counters?$DO?60x?$CF?411x?$CF?48x?50x?$CF?41@ 71110688     diagnost.obj
 0002:0005c6f0       ??_C@_0P@DKODBBBB@?6?$DMthread?9list?$DO@ 711106f0     diagnost.obj
 0002:0005c700       ??_C@_0CE@JGPEHKJN@?$DM?1thread?9list?$DO?6?$DM?1current?9proces@ 71110700     diagnost.obj
 0002:0005c724       ??_C@_0BL@DEOBJOKA@?$DMprocess?9list?$DO?5?$DM?$CB?$FLCDATA?$FL?5?6@ 71110724     diagnost.obj
 0002:0005c740       ??_C@_0BG@MNDFDLMF@?$FN?$FN?$DO?5?$DM?1process?9list?$DO?6?6@ 71110740     diagnost.obj
 0002:0005c758       ??_C@_0BK@FEAFJOIC@?$CFsRegistry?5Settings?6?$CFS?6?$CFs@ 71110758     diagnost.obj
 0002:0005c774       ??_C@_04BODMGFIG@?$CFS?6?6@ 71110774     diagnost.obj
 0002:0005c77c       ??_C@_1BG@NKLOKCD@?$AAD?$AAe?$AAv?$AAi?$AAc?$AAe?$AAD?$AAe?$AAs?$AAc@ 7111077c     diagnost.obj
 0002:0005c794       ??_C@_17FABJNEFH@?$AAM?$AAf?$AAg@ 71110794     diagnost.obj
 0002:0005c79c       ??_C@_1BK@BFIEKNFP@?$AAF?$AAr?$AAi?$AAe?$AAn?$AAd?$AAl?$AAy?$AAN?$AAa?$AAm?$AAe@ 7111079c     diagnost.obj
 0002:0005c7b8       ??_C@_17LGLPFNOI@?$AA?2?$AA?$CF?$AAs@ 711107b8     diagnost.obj
 0002:0005c7c0       ??_C@_0CA@GIBGNJIP@?$DMautostart?9programs?$DO?6?$DM?$CB?$FLCDATA?$FL?6@ 711107c0     diagnost.obj
 0002:0005c7e0       ??_C@_1CK@KDGPAPFG@?$AA?2?$AAR?$AAe?$AAg?$AAi?$AAs?$AAt?$AAr?$AAy?$AA?2?$AAU?$AAs?$AAe?$AAr?$AA?2@ 711107e0     diagnost.obj
 0002:0005c80c       ??_C@_0BM@GIGFDLDB@?$FN?$FN?$DO?6?$DM?1autostart?9programs?$DO?6?6@ 7111080c     diagnost.obj
 0002:0005c828       ??_C@_0FG@MEOCGJJK@?6?$DMdiagnostic?9report?$DO?6?$DMdate?$DO?5?$CFs?5@ 71110828     diagnost.obj
 0002:0005c880       ??_C@_0EP@JBCAEKML@?$DMdescription?$DO?5?$DM?$CB?$FLCDATA?$FL?$FL?5?6Gener@ 71110880     diagnost.obj
 0002:0005c8d0       ??_C@_0CI@JDAFACDN@?$DMthreat?9id?$DO?5Threat?5ID?3?5?$CFs?5?$DM?1thr@ 711108d0     diagnost.obj
 0002:0005c8f8       ??_C@_0BH@KEDDMBJL@?$DM?1diagnostic?9report?$DO?6?6@ 711108f8     diagnost.obj
 0002:0005c910       ??_C@_0BI@JPJLGJIA@?$DMprocessor?9information?6@ 71110910     diagnost.obj
 0002:0005c928       ??_C@_0BE@ENOBKFP@Brand?$DN?5?5?5?5?5?5?5?5?$CC?$CFs?$CC?6@ 71110928     diagnost.obj
 0002:0005c93c       ??_C@_0BG@OOCOKPHH@Type?$DN?5?5?5?5?5?5?5?5?5?$CC0x?$CFx?$CC?6@ 7111093c     diagnost.obj
 0002:0005c954       ??_C@_0BG@OHBBEMJ@Family?$DN?5?5?5?5?5?5?5?$CC0x?$CFx?$CC?6@ 71110954     diagnost.obj
 0002:0005c96c       ??_C@_0BG@IENDFAFG@Model?$DN?5?5?5?5?5?5?5?5?$CC0x?$CFx?$CC?6@ 7111096c     diagnost.obj
 0002:0005c984       ??_C@_0BG@DODKLEEN@Stepping?$DN?5?5?5?5?5?$CC0x?$CFx?$CC?6@ 71110984     diagnost.obj
 0002:0005c99c       ??_C@_0BE@JIEDNNDA@L1_icache?$DN?5?5?5?5?$CC?$CFs?$CC?6@ 7111099c     diagnost.obj
 0002:0005c9b0       ??_C@_0BE@IKPNHOCC@L1_dcache?$DN?5?5?5?5?$CC?$CFs?$CC?6@ 711109b0     diagnost.obj
 0002:0005c9c4       ??_C@_0BE@HBBOOOJP@L2_cache?$DN?5?5?5?5?5?$CC?$CFs?$CC?6@ 711109c4     diagnost.obj
 0002:0005c9d8       ??_C@_0CF@FJHEDOOJ@Feature_bits?$DN?5?$CC?$CF?48x?5?$CF?48x?5?$CF?48x?5?$CF@ 711109d8     diagnost.obj
 0002:0005ca00       ??_C@_0CK@MNGDKAND@?$DMsystem?9settings?$DO?6?$DMcomputer?5nam@ 71110a00     diagnost.obj
 0002:0005ca30       ??_C@_0HB@FJOEMGCI@?$DMbasic?9information?$DO?6?7?$CF?410d?5?$CF?410@ 71110a30     diagnost.obj
 0002:0005caa8       ??_C@_0EM@LBJBKCOL@?$DMperformance?9information?$DO?6?70x?$CF?4@ 71110aa8     diagnost.obj
 0002:0005caf8       ??_C@_0NI@KDHFECAF@?7?$CF?410d?5?$CF?410d?5?$CF?410d?5?$CF?410d?5?$CF?410d?5@ 71110af8     diagnost.obj
 0002:0005cbd0       ??_C@_0ON@JADFLHAP@?7?$CF?410d?5?$CF?410d?5?$CF?410d?5?$CF?410d?5?$CF?410d?5@ 71110bd0     diagnost.obj
 0002:0005ccc0       ??_C@_0GB@DKMOJNMK@?$DMtime?9of?9day?9information?$DO?6?70x?$CF?4@ 71110cc0     diagnost.obj
 0002:0005cd28       ??_C@_0GK@NJLDGICG@?$DMprocessor?9times?$DO?6?70x?$CF?411x?$CF?48x?5@ 71110d28     diagnost.obj
 0002:0005cd94       ??_C@_0CF@DCINHBPG@?$DMglobal?9flag?$DO?50x?$CF?48x?5?$DM?1global?9f@ 71110d94     diagnost.obj
 0002:0005cdbc       ??_C@_0BF@CDGBNLDL@?$DM?1system?9settings?$DO?6?6@ 71110dbc     diagnost.obj
 0002:0005cdd8       ??_C@_0BDJ@EBLEIADC@?$DM?$DPxml?5version?$DN?$CC1?40?$CC?5encoding?$DN?$CCi@ 71110dd8     diagnost.obj
 0002:0005cf14       ??_C@_0BP@BLKLOMCK@?$DMregistry?9settings?$DO?6?$DM?$CB?$FLCDATA?$FL?6@ 71110f14     diagnost.obj
 0002:0005cf38       ??_C@_1LI@NMHIMEAI@?$AA?2?$AAR?$AAe?$AAg?$AAi?$AAs?$AAt?$AAr?$AAy?$AA?2?$AAM?$AAa?$AAc?$AAh?$AAi@ 71110f38     diagnost.obj
 0002:0005cff0       ??_C@_1FM@BFBPAOJP@?$AA?2?$AAR?$AAe?$AAg?$AAi?$AAs?$AAt?$AAr?$AAy?$AA?2?$AAM?$AAa?$AAc?$AAh?$AAi@ 71110ff0     diagnost.obj
 0002:0005d050       ??_C@_1GA@DLIBAMCH@?$AA?2?$AAR?$AAe?$AAg?$AAi?$AAs?$AAt?$AAr?$AAy?$AA?2?$AAM?$AAa?$AAc?$AAh?$AAi@ 71111050     diagnost.obj
 0002:0005d0b0       ??_C@_1IM@CCLBFEIJ@?$AA?2?$AAR?$AAe?$AAg?$AAi?$AAs?$AAt?$AAr?$AAy?$AA?2?$AAM?$AAa?$AAc?$AAh?$AAi@ 711110b0     diagnost.obj
 0002:0005d13c       ??_C@_0BL@HNDAEHCI@?$FN?$FN?$DO?6?$DM?1registry?9settings?$DO?6?6@ 7111113c     diagnost.obj
 0002:0005d158       ??_C@_0BE@KPEFFHAO@?$DM?1forensic?9report?$DO?6@ 71111158     diagnost.obj
 0002:0005d170       ??_C@_0EL@HCKEOFCB@Forensics?5file?5for?5security?5vio@ 71111170     diagnost.obj
 0002:0005d1bc       ??_C@_1BG@MHCCONHN@?$AA?2?$AAK?$AAn?$AAo?$AAw?$AAn?$AAD?$AAl?$AAl?$AAs@ 711111bc     aslr.obj
 0002:0005d1d4       ??_C@_1BI@KBDMCBDE@?$AA?$CF?$AAs?$AA?9?$AA?$CF?$AA0?$AA1?$AA6?$AAI?$AA6?$AA4?$AAx@ 711111d4     aslr.obj
 0002:0005d1ec       ??_C@_1CE@PHCIHMHN@?$AAu?$AAn?$AAi?$AAq?$AAu?$AAe?$AA?9?$AA7?$AAa?$AAb?$AAa?$AAb?$AAc?$AAd?$AA?9@ 711111ec     aslr.obj
 0002:0005d210       ??_C@_1BO@BEHAJFML@?$AA?$CF?$AAs?$AA?9?$AA?$CF?$AAd?$AA?9?$AA?$CF?$AA0?$AA1?$AA0?$AAu?$AA?9?$AA?$CF?$AAs@ 71111210     aslr.obj
 0002:0005d230       ??_C@_17GNJCADOE@?$AAt?$AAm?$AAp@ 71111230     aslr.obj
 0002:0005d238       ??_C@_19JHEHLFPM@?$AA?2?$AA?$DP?$AA?$DP?$AA?2@ 71111238     aslr.obj
 0002:0005d244       ??_C@_1BK@HNONDBBL@?$AAK?$AAn?$AAo?$AAw?$AAn?$AAD?$AAl?$AAl?$AAP?$AAa?$AAt?$AAh@ 71111244     aslr.obj
 0002:0005d260       ??_C@_1M@DFKENGJN@?$AA?$CF?$AAs?$AA?2?$AA?$CF?$AAs@ 71111260     aslr.obj
 0002:0005d26c       ??_C@_1BG@OILDLIOJ@?$AAu?$AAs?$AAe?$AAr?$AA3?$AA2?$AA?4?$AAd?$AAl?$AAl@ 7111126c     loader.obj
 0002:0005d284       ??_C@_0P@BOEEOLCK@?$CFs?1system32?1?$CFs@ 71111284     loader.obj
 0002:0005d294       ??_C@_0L@GMPLCCII@user32?4dll@ 71111294     loader.obj
 0002:0005d2a0       ??_C@_0P@JCCMDCHG@NtGetTickCount@ 711112a0     loader.obj
 0002:0005d2b0       ??_C@_0DF@OBBODHEF@Application?5?$CFs?5?$CI?$CFs?$CJ?4?5Library?5ha@ 711112b0     loader.obj
 0002:0005d2e8       ??_C@_03PIADFGHL@sys@      711112e8     loader.obj
 0002:0005d2ec       ??_C@_09PGIHGLLA@?$DMordinal?$DO@ 711112ec     loader.obj
 0002:0005d2f8       ??_C@_0BI@IOHNNNII@import?5?$CFs?5not?5found?5in?5@ 711112f8     loader.obj
 0002:0005d310       ??_C@_0L@EDJKJIEC@kernelbase@ 71111310     loader.obj
 0002:0005d31c       ??_C@_06GMKELIII@kernel@   7111131c     loader.obj
 0002:0005d324       ??_C@_07CDHIFKOG@combase@  71111324     loader.obj
 0002:0005d32c       ??_C@_0BM@ECDPMCJN@API?9MS?9Win?9Core?9APIQuery?9L1@ 7111132c     loader.obj
 0002:0005d348       ??_C@_0BH@OAMBFON@API?9MS?9Win?9Core?9CRT?9L1@ 71111348     loader.obj
 0002:0005d360       ??_C@_0BL@OBFJPMKF@API?9MS?9Win?9Core?9Console?9L1@ 71111360     loader.obj
 0002:0005d37c       ??_C@_0BM@HIEEHLHG@API?9MS?9Win?9Core?9DateTime?9L1@ 7111137c     loader.obj
 0002:0005d398       ??_C@_0BN@CFONCCOP@API?9MS?9Win?9Core?9DelayLoad?9L1@ 71111398     loader.obj
 0002:0005d3b8       ??_C@_0BJ@FFAJMPDN@API?9MS?9Win?9Core?9Debug?9L1@ 711113b8     loader.obj
 0002:0005d3d4       ??_C@_0P@OEFGOMJK@kernelbase?4dll@ 711113d4     loader.obj
 0002:0005d3e4       ??_C@_0CB@OPLMHAIB@API?9MS?9Win?9Core?9ErrorHandling?9L@ 711113e4     loader.obj
 0002:0005d408       ??_C@_08PNLNEKOB@kernel32@ 71111408     loader.obj
 0002:0005d414       ??_C@_0BK@BAPEHEGM@API?9MS?9Win?9Core?9Fibers?9L1@ 71111414     loader.obj
 0002:0005d430       ??_C@_0BI@KFHFJHID@API?9MS?9Win?9Core?9File?9L1@ 71111430     loader.obj
 0002:0005d448       ??_C@_0BK@JCEBPJPF@API?9MS?9Win?9Core?9Handle?9L1@ 71111448     loader.obj
 0002:0005d464       ??_C@_0BI@GDMBOEOJ@API?9MS?9Win?9Core?9Heap?9L1@ 71111464     loader.obj
 0002:0005d47c       ??_C@_0BP@DNALAIPG@API?9MS?9Win?9Core?9Interlocked?9L1@ 7111147c     loader.obj
 0002:0005d49c       ??_C@_0BG@HKBLOGNN@API?9MS?9Win?9Core?9IO?9L1@ 7111149c     loader.obj
 0002:0005d4b4       ??_C@_0CA@CBMJKBBB@API?9MS?9Win?9Core?9Localization?9L1@ 711114b4     loader.obj
 0002:0005d4d4       ??_C@_0CB@EKHOLMNO@API?9MS?9Win?9Core?9LocalRegistry?9L@ 711114d4     loader.obj
 0002:0005d4f8       ??_C@_0CB@LFNCNCOI@API?9MS?9Win?9Core?9LibraryLoader?9L@ 711114f8     loader.obj
 0002:0005d51c       ??_C@_0BK@DJMACJMM@API?9MS?9Win?9Core?9Memory?9L1@ 7111151c     loader.obj
 0002:0005d538       ??_C@_0BI@IFNPMODL@API?9MS?9Win?9Core?9Misc?9L1@ 71111538     loader.obj
 0002:0005d550       ??_C@_0BN@DEHAEMPK@API?9MS?9Win?9Core?9NamedPipe?9L1@ 71111550     loader.obj
 0002:0005d570       ??_C@_0CG@OPFMALBK@API?9MS?9Win?9Core?9ProcessEnvironm@ 71111570     loader.obj
 0002:0005d598       ??_C@_0CC@PEDIDANJ@API?9MS?9Win?9Core?9ProcessThreads?9@ 71111598     loader.obj
 0002:0005d5bc       ??_C@_0BN@JCAAHCGE@API?9MS?9Win?9Core?9AppInit?9L1?91@ 711115bc     loader.obj
 0002:0005d5dc       ??_C@_0BL@EEONEKAB@API?9MS?9Win?9Core?9Profile?9L1@ 711115dc     loader.obj
 0002:0005d5f8       ??_C@_0BO@MCMHNDOH@API?9MS?9Win?9Core?9RTLSupport?9L1@ 711115f8     loader.obj
 0002:0005d618       ??_C@_0BK@NGJDDDBL@API?9MS?9Win?9Core?9String?9L1@ 71111618     loader.obj
 0002:0005d634       ??_C@_0BJ@CGMDNIMC@API?9MS?9Win?9Core?9Synch?9L1@ 71111634     loader.obj
 0002:0005d650       ??_C@_0BL@GBMBBDCB@API?9MS?9Win?9Core?9SysInfo?9L1@ 71111650     loader.obj
 0002:0005d66c       ??_C@_0BO@FDMGDFHP@API?9MS?9Win?9Core?9ThreadPool?9L1@ 7111166c     loader.obj
 0002:0005d68c       ??_C@_0BK@OFOOBCPL@API?9MS?9Win?9Core?9XState?9L1@ 7111168c     loader.obj
 0002:0005d6a8       ??_C@_0BI@MJFKPIH@API?9MS?9Win?9Core?9Util?9L1@ 711116a8     loader.obj
 0002:0005d6c0       ??_C@_0BM@FHBLEPLI@API?9MS?9Win?9Security?9Base?9L1@ 711116c0     loader.obj
 0002:0005d6dc       ??_C@_0CB@IIHDHCNF@API?9MS?9Win?9Security?9LSALookup?9L@ 711116dc     loader.obj
 0002:0005d700       ??_C@_0M@CNNOBMIJ@sechost?4dll@ 71111700     loader.obj
 0002:0005d70c       ??_C@_0BM@KPCBBCFG@API?9MS?9Win?9Security?9SDDL?9L1@ 7111170c     loader.obj
 0002:0005d728       ??_C@_0BL@JAGJOJPM@API?9MS?9Win?9Service?9Core?9L1@ 71111728     loader.obj
 0002:0005d744       ??_C@_0CB@NLPLPMPA@API?9MS?9Win?9Service?9Management?9L@ 71111744     loader.obj
 0002:0005d768       ??_C@_0CB@PANGKPDD@API?9MS?9Win?9Service?9Management?9L@ 71111768     loader.obj
 0002:0005d78c       ??_C@_0BN@JDFAGKFM@API?9MS?9Win?9Service?9Winsvc?9L1@ 7111178c     loader.obj
 0002:0005d7ac       ??_C@_0CD@FNHLCKLE@API?9MS?9Win?9Core?9Kernel32?9Legacy@ 711117ac     loader.obj
 0002:0005d7d0       ??_C@_0BP@BLCFEDBH@API?9MS?9Win?9Core?9Appcompat?9L1?91@ 711117d0     loader.obj
 0002:0005d7f0       ??_C@_0BJ@ODIGEACL@API?9MS?9Win?9Core?9BEM?9L1?91@ 711117f0     loader.obj
 0002:0005d80c       ??_C@_0BK@OCHLEGCM@API?9MS?9Win?9Core?9Comm?9L1?91@ 7111180c     loader.obj
 0002:0005d828       ??_C@_0BN@IDAGGKCN@API?9MS?9Win?9Core?9Console?9L2?91@ 71111828     loader.obj
 0002:0005d848       ??_C@_0BJ@GCHABKKJ@API?9MS?9Win?9Core?9CRT?9L2?91@ 71111848     loader.obj
 0002:0005d864       ??_C@_0BJ@JBNNFNI@API?9MS?9Win?9Core?9Job?9L1?91@ 71111864     loader.obj
 0002:0005d880       ??_C@_0CC@BGHFOMEI@API?9MS?9Win?9Core?9Localization?9L2@ 71111880     loader.obj
 0002:0005d8a4       ??_C@_0CK@KMPMLCKE@API?9MS?9Win?9Core?9Localization?9Pr@ 711118a4     loader.obj
 0002:0005d8d0       ??_C@_0BP@OGINKELF@API?9MS?9Win?9Core?9Namespace?9L1?91@ 711118d0     loader.obj
 0002:0005d8f0       ??_C@_0CD@LMNMOHDP@API?9MS?9Win?9Core?9Normalization?9L@ 711118f0     loader.obj
 0002:0005d914       ??_C@_0CF@CCIOBCDJ@API?9MS?9Win?9Core?9ProcessTopology@ 71111914     loader.obj
 0002:0005d93c       ??_C@_0CA@PILCPNFH@API?9MS?9Win?9Core?9Psapi?9Ansi?9L1?91@ 7111193c     loader.obj
 0002:0005d95c       ??_C@_0BL@ICDGBPIN@API?9MS?9Win?9Core?9Psapi?9L1?91@ 7111195c     loader.obj
 0002:0005d978       ??_C@_0CE@CJDMNCCI@API?9MS?9Win?9Core?9Psapi?9Obsolete?9@ 71111978     loader.obj
 0002:0005d99c       ??_C@_0BO@LGBIGGHE@API?9MS?9Win?9Core?9Realtime?9L1?91@ 7111199c     loader.obj
 0002:0005d9bc       ??_C@_0BO@JCMEAELE@API?9MS?9Win?9Core?9Registry?9L1?91@ 711119bc     loader.obj
 0002:0005d9dc       ??_C@_0CA@IILMGPFC@API?9MS?9Win?9Core?9SideBySide?9L1?91@ 711119dc     loader.obj
 0002:0005d9fc       ??_C@_0CF@NBHFAGBC@API?9MS?9Win?9Core?9String?9Obsolete@ 711119fc     loader.obj
 0002:0005da24       ??_C@_0CE@BAHKMDJE@API?9MS?9Win?9Core?9SystemTopology?9@ 71111a24     loader.obj
 0002:0005da48       ??_C@_0CH@OGPNELIC@API?9MS?9Win?9Core?9Threadpool?9Lega@ 71111a48     loader.obj
 0002:0005da70       ??_C@_0CI@LDKPOML@API?9MS?9Win?9Core?9Threadpool?9Priv@ 71111a70     loader.obj
 0002:0005da98       ??_C@_0BO@EJHLKJOH@API?9MS?9Win?9Core?9Timezone?9L1?91@ 71111a98     loader.obj
 0002:0005dab8       ??_C@_0BL@CJBJJCPN@API?9MS?9Win?9Core?9WOW64?9L1?91@ 71111ab8     loader.obj
 0002:0005dad4       ??_C@_0CL@MGMFJHIL@API?9MS?9Win?9Core?9WindowsErrorRep@ 71111ad4     loader.obj
 0002:0005db00       ??_C@_0CG@KCEEKCMN@API?9MS?9Win?9Security?9Appcontaine@ 71111b00     loader.obj
 0002:0005db28       ??_C@_0CG@MAMFFNLG@API?9MS?9Win?9Security?9Base?9Privat@ 71111b28     loader.obj
 0002:0005db50       ??_C@_0BK@JKLIBFPF@API?9MS?9Win?9Core?9File?9L2?91@ 71111b50     loader.obj
 0002:0005db6c       ??_C@_0CD@HPKFPNLM@API?9MS?9Win?9Core?9Heap?9Obsolete?9L@ 71111b6c     loader.obj
 0002:0005db90       ??_C@_0CA@OLLKANCD@API?9MS?9Win?9Service?9Private?9L1?91@ 71111b90     loader.obj
 0002:0005dbb0       ??_C@_0BP@NEJIFBJN@API?9MS?9Win?9Security?9Audit?9L1?91@ 71111bb0     loader.obj
 0002:0005dbd0       ??_C@_0CE@IGFACCDJ@API?9MS?9Win?9Security?9Capability?9@ 71111bd0     loader.obj
 0002:0005dbf4       ??_C@_0CF@NEFGDACN@API?9MS?9Win?9Security?9Credentials@ 71111bf4     loader.obj
 0002:0005dc1c       ??_C@_0CF@MGODJPMD@API?9MS?9Win?9Security?9Credentials@ 71111c1c     loader.obj
 0002:0005dc44       ??_C@_0CB@HEGOIGIO@API?9MS?9Win?9Security?9LSAPolicy?9L@ 71111c44     loader.obj
 0002:0005dc68       ??_C@_0CE@MFFAEFJ@API?9MS?9Win?9Eventing?9Controller?9@ 71111c68     loader.obj
 0002:0005dc8c       ??_C@_0CC@FKMKJINO@API?9MS?9Win?9Eventing?9Consumer?9L1@ 71111c8c     loader.obj
 0002:0005dcb0       ??_C@_0CF@JKDEBPK@API?9MS?9Win?9Core?9ProcessTopology@ 71111cb0     loader.obj
 0002:0005dcd8       ??_C@_0BM@OAIMNBDP@API?9MS?9Win?9Core?9XState?9L2?91@ 71111cd8     loader.obj
 0002:0005dcf4       ??_C@_0BO@IAHBKLFK@API?9MS?9Win?9Core?9Registry?9L2?91@ 71111cf4     loader.obj
 0002:0005dd14       ??_C@_0CJ@PGDPHOPN@API?9MS?9Win?9Eventing?9ClassicProv@ 71111d14     loader.obj
 0002:0005dd40       ??_C@_0N@INAGJMNN@advapi32?4dll@ 71111d40     loader.obj
 0002:0005dd50       ??_C@_0BN@KICLDJOO@API?9MS?9Win?9Core?9Console?9L2?92@ 71111d50     loader.obj
 0002:0005dd70       ??_C@_0BN@DLLKANEI@API?9MS?9Win?9Core?9Console?9L3?91@ 71111d70     loader.obj
 0002:0005dd90       ??_C@_0BN@BAJHFOIL@API?9MS?9Win?9Core?9Console?9L3?92@ 71111d90     loader.obj
 0002:0005ddb0       ??_C@_0BN@JCHLDHGC@API?9MS?9Win?9Core?9Enclave?9L1?91@ 71111db0     loader.obj
 0002:0005ddd0       ??_C@_0BM@HKFNPMJF@API?9MS?9Win?9Core?9Fibers?9L2?91@ 71111dd0     loader.obj
 0002:0005ddec       ??_C@_0BK@MMKGHAOK@API?9MS?9Win?9Core?9Heap?9L2?91@ 71111dec     loader.obj
 0002:0005de08       ??_C@_0CC@NDNGBBEE@API?9MS?9Win?9Core?9LargeInteger?9L1@ 71111e08     loader.obj
 0002:0005de2c       ??_C@_0CD@BKAHACCB@API?9MS?9Win?9Core?9LibraryLoader?9L@ 71111e2c     loader.obj
 0002:0005de50       ??_C@_0CL@MPHLIDDK@API?9MS?9Win?9Core?9Localization?9Ob@ 71111e50     loader.obj
 0002:0005de7c       ??_C@_0CL@NGGALCHL@API?9MS?9Win?9Core?9Localization?9Ob@ 71111e7c     loader.obj
 0002:0005dea8       ??_C@_0BK@NHOMKCPC@API?9MS?9Win?9Core?9Path?9L1?91@ 71111ea8     loader.obj
 0002:0005dec4       ??_C@_0BJ@FCLKLLBB@API?9MS?9Win?9Core?9Pcw?9L1?91@ 71111ec4     loader.obj
 0002:0005dee0       ??_C@_0CC@KACELFM@API?9MS?9Win?9Core?9PerfCounters?9L1@ 71111ee0     loader.obj
 0002:0005df04       ??_C@_0CF@DAJADNDL@API?9MS?9Win?9Core?9ProcessSnapshot@ 71111f04     loader.obj
 0002:0005df2c       ??_C@_0BN@MPHPEBGO@API?9MS?9Win?9Core?9Psm?9Key?9L1?91@ 71111f2c     loader.obj
 0002:0005df4c       ??_C@_0BM@OHDBPPEL@API?9MS?9Win?9Core?9Quirks?9L1?91@ 71111f4c     loader.obj
 0002:0005df68       ??_C@_0CK@PEKJNMBI@API?9MS?9Win?9Core?9RegistryUserSpe@ 71111f68     loader.obj
 0002:0005df94       ??_C@_0CE@LCCHKGIC@API?9MS?9Win?9Core?9SHLWAPI?9Legacy?9@ 71111f94     loader.obj
 0002:0005dfb8       ??_C@_0CG@OHEHKAGD@API?9MS?9Win?9Core?9SHLWAPI?9Obsolet@ 71111fb8     loader.obj
 0002:0005dfe0       ??_C@_0CG@MMGKPDKA@API?9MS?9Win?9Core?9SHLWAPI?9Obsolet@ 71111fe0     loader.obj
 0002:0005e008       ??_C@_0BM@PCJLABPA@API?9MS?9Win?9Core?9String?9L2?91@ 71112008     loader.obj
 0002:0005e024       ??_C@_0CA@CDEFFLNO@API?9MS?9Win?9Core?9StringAnsi?9L1?91@ 71112024     loader.obj
 0002:0005e044       ??_C@_0BJ@PLCOFMBF@API?9MS?9Win?9Core?9URL?9L1?91@ 71112044     loader.obj
 0002:0005e060       ??_C@_0BN@IJNCEEPE@API?9MS?9Win?9Core?9Version?9L1?91@ 71112060     loader.obj
 0002:0005e080       ??_C@_0CF@HJDAKPCC@API?9MS?9Win?9Core?9Version?9Private@ 71112080     loader.obj
 0002:0005e0a8       ??_C@_0CB@LCJFNILJ@API?9MS?9Win?9Core?9VersionAnsi?9L1?9@ 711120a8     loader.obj
 0002:0005e0cc       ??_C@_0CC@MIPBHANN@API?9MS?9Win?9Eventing?9Provider?9L1@ 711120cc     loader.obj
 0002:0005e0f0       ??_C@_0CE@HININIGN@API?9MS?9Win?9Core?9PrivateProfile?9@ 711120f0     loader.obj
 0002:0005e114       ??_C@_0BL@ODEACDBH@API?9MS?9Win?9Core?9Atoms?9L1?91@ 71112114     loader.obj
 0002:0005e130       ??_C@_0BJ@BLKIHKDG@API?9MS?9Win?9Core?9Job?9L2?91@ 71112130     loader.obj
 0002:0005e14c       ??_C@_0CD@EPOBOEFD@API?9MS?9Win?9DownLevel?9Kernel32?9L@ 7111214c     loader.obj
 0002:0005e170       ??_C@_0CB@HNKAKHJE@API?9MS?9Win?9Core?9WinRT?9Error?9L1?9@ 71112170     loader.obj
 0002:0005e194       ??_C@_0M@JFIONANA@combase?4dll@ 71112194     loader.obj
 0002:0005e1a0       ??_C@_0CB@NPIOELP@API?9MS?9Win?9Appmodel?9Runtime?9L1?9@ 711121a0     loader.obj
 0002:0005e1c4       ??_C@_0BP@PJDPBIDN@API?9MS?9Win?9Appmodel?9State?9L1?92@ 711121c4     loader.obj
 0002:0005e1e4       ??_C@_0BD@GGLIFJMJ@kernel?4appcore?4dll@ 711121e4     loader.obj
 0002:0005e1f8       ??_C@_0BA@OLKNIAHO@API?9MS?9Win?9GDI?9@ 711121f8     loader.obj
 0002:0005e208       ??_C@_0O@NLLCFDCM@gdi32full?4dll@ 71112208     loader.obj
 0002:0005e218       ??_C@_0BA@HPKBBONO@API?9MS?9Win?9CRT?9@ 71112218     loader.obj
 0002:0005e228       ??_C@_0N@PICNLMEE@ucrtbase?4dll@ 71112228     loader.obj
 0002:0005e238       ??_C@_0BJ@GFDNEIKA@API?9MS?9Win?9Core?9COM?9L1?91@ 71112238     loader.obj
 0002:0005e254       ??_C@_0CB@GFMKLLOD@API?9MS?9Win?9Core?9COM?9Private?9L1?9@ 71112254     loader.obj
 0002:0005e278       ??_C@_0CB@EOOHOICA@API?9MS?9Win?9Core?9COM?9Private?9L1?9@ 71112278     loader.obj
 0002:0005e29c       ??_C@_0CH@CABMICEN@API?9MS?9Win?9Core?9Com?9MidlProxySt@ 7111229c     loader.obj
 0002:0005e2c4       ??_C@_0BL@DGNPHFEH@API?9MS?9Win?9Core?9WinRT?9L1?91@ 711122c4     loader.obj
 0002:0005e2e0       ??_C@_0CC@EPLOEPHM@API?9MS?9Win?9Core?9WinRT?9String?9L1@ 711122e0     loader.obj
 0002:0005e304       ??_C@_0CG@BFHACLMF@API?9MS?9Win?9Core?9Kernel32?9Privat@ 71112304     loader.obj
 0002:0005e32c       ??_C@_0BP@CMKGAPEE@API?9MS?9Win?9Shell?9Shellcom?9L1?91@ 7111232c     loader.obj
 0002:0005e34c       ??_C@_0CI@MGBLNEMF@API?9MS?9Win?9Stateseparation?9Help@ 7111234c     loader.obj
 0002:0005e374       ??_C@_0CD@HFDNKNOG@API?9MS?9Win?9Shell?9ShellFolders?9L@ 71112374     loader.obj
 0002:0005e398       ??_C@_0BE@MLMHLHFC@windows?4storage?4dll@ 71112398     loader.obj
 0002:0005e3ac       ??_C@_0BP@IOEJKODJ@API?9MS?9Win?9Devices?9Config?9L1?91@ 711123ac     loader.obj
 0002:0005e3cc       ??_C@_0N@JNFFEOEJ@cfgmgr32?4dll@ 711123cc     loader.obj
 0002:0005e3dc       ??_C@_0BD@BGGDHINM@API?9MS?9Win?9Shcore?9@ 711123dc     loader.obj
 0002:0005e3f0       ??_C@_0L@DMFDIJCG@shcore?4dll@ 711123f0     loader.obj
 0002:0005e3fc       ??_C@_0CJ@JBPJOLG@API?9MS?9Win?9Storage?9Exports?9Inte@ 711123fc     loader.obj
 0002:0005e428       ??_C@_0CJ@DHAIHGJM@API?9MS?9Win?9Storage?9Exports?9Exte@ 71112428     loader.obj
 0002:0005e454       ??_C@_0CD@FOGJHKKE@API?9MS?9Win?9Security?9Cryptoapi?9L@ 71112454     loader.obj
 0002:0005e478       ??_C@_0M@DLNPLOBO@cryptsp?4dll@ 71112478     loader.obj
 0002:0005e484       ??_C@_0CG@IFLGGPLF@API?9MS?9Win?9Shlwapi?9WinRT?9Storag@ 71112484     loader.obj
 0002:0005e4ac       ??_C@_0CB@OJAILKKC@API?9MS?9Win?9Shlwapi?9WinRT?9IE?9L1?9@ 711124ac     loader.obj
 0002:0005e4d0       ??_C@_0M@PPBCJOEJ@shlwapi?4dll@ 711124d0     loader.obj
 0002:0005e4dc       ??_C@_0BL@HMDNKFJE@API?9MS?9Win?9Power?9Base?9L1?91@ 711124dc     loader.obj
 0002:0005e4f8       ??_C@_0N@MKKJEGPI@powrprof?4dll@ 711124f8     loader.obj
 0002:0005e508       ??_C@_0BD@HKAEPNDH@Ext?9MS?9Win?9NtUser?9@ 71112508     loader.obj
 0002:0005e51c       ??_C@_0BK@NLJGBIED@API?9MS?9Win?9RtCore?9NtUser?9@ 7111251c     loader.obj
 0002:0005e538       ??_C@_0M@PDKKHDNM@API?9MS?9Win?9@ 71112538     loader.obj
 0002:0005e544       ??_C@_0M@FBPOCPLJ@Ext?9MS?9Win?9@ 71112544     loader.obj
 0002:0005e550       ??_C@_05GFOLEBJA@?$CFs?1?$CFs@ 71112550     loader.obj
 0002:0005e558       ??_C@_0BG@FAPOADHC@?6?7Cannot?5find?5library@ 71112558     loader.obj
 0002:0005e570       ??_C@_0O@IPKAKONF@AttachConsole@ 71112570     loader.obj
 0002:0005e580       ??_C@_0M@LAGCIMKJ@FreeConsole@ 71112580     loader.obj
 0002:0005e58c       ??_C@_0N@EBDGNADB@GetConsoleCP@ 7111258c     loader.obj
 0002:0005e59c       ??_C@_0DE@EOEIMNFO@Late?9loaded?5libraries?5with?5stat@ 7111259c     loader.obj
 0002:0005e5d0       ??_C@_0CC@CCKELEME@Too?5many?5libaries?5with?5static?5T@ 711125d0     loader.obj
 0002:0005e5f8       ??_C@_0EC@NEJGCLKM@Application?5?$CFs?5?$CI?$CFs?$CJ?4?5Private?5li@ 711125f8     loader.obj
 0002:0005e63c       ??_C@_0BC@BNDLCNDM@?4block?$HL?4sympath?$CL?5@ 7111263c     loader.obj
 0002:0005e650       ??_C@_0CK@GMEHOFMJ@?$HN?$DL?6?4reload?5?1i?5?$CFs?$DN?$CF08x?$DL?4echo?5?$CCLo@ 71112650     loader.obj
 0002:0005e67c       ??_C@_0L@IKBIFNGI@rpcrt4?4dll@ 7111267c     drwinapi.obj
 0002:0005e688       ??_C@_0BB@HNEJOHCL@GetModuleHandleA@ 71112688     drwinapi.obj
 0002:0005e69c       ??_C@_0BB@GBNBFCPM@GetModuleHandleW@ 7111269c     drwinapi.obj
 0002:0005e6b0       ??_C@_0N@KCFDJLIF@LoadLibraryW@ 711126b0     drwinapi.obj
 0002:0005e8b0       ??_C@_0BH@GKPJJDBO@LdrGetProcedureAddress@ 711128b0     ntdll_redir.obj
 0002:0005e8c8       ??_C@_0BC@DAJMIJHM@RtlPcToFileHeader@ 711128c8     ntdll_redir.obj
 0002:0005e8dc       ??_C@_0BI@CPFBOAJB@LdrSetDllManifestProber@ 711128dc     ntdll_redir.obj
 0002:0005e8f4       ??_C@_0BK@MNAIDIIL@RtlSetThreadPoolStartFunc@ 711128f4     ntdll_redir.obj
 0002:0005e910       ??_C@_0BP@HFHFAFCM@RtlSetUnhandledExceptionFilter@ 71112910     ntdll_redir.obj
 0002:0005e930       ??_C@_0BH@EGOBOPMA@RtlCleanUpTEBLangLists@ 71112930     ntdll_redir.obj
 0002:0005e948       ??_C@_0O@EKNIFGJP@RtlCreateHeap@ 71112948     ntdll_redir.obj
 0002:0005e958       ??_C@_0P@HGJJNGEH@RtlDestroyHeap@ 71112958     ntdll_redir.obj
 0002:0005e968       ??_C@_0BA@HKDEHBAO@RtlAllocateHeap@ 71112968     ntdll_redir.obj
 0002:0005e978       ??_C@_0BC@KCCBPNDF@RtlReAllocateHeap@ 71112978     ntdll_redir.obj
 0002:0005e98c       ??_C@_0M@BBFBOFBP@RtlFreeHeap@ 7111298c     ntdll_redir.obj
 0002:0005e998       ??_C@_0M@EHEBCDHL@RtlSizeHeap@ 71112998     ntdll_redir.obj
 0002:0005e9a4       ??_C@_0BA@EEJAMNOM@RtlValidateHeap@ 711129a4     ntdll_redir.obj
 0002:0005e9b4       ??_C@_0BG@HHCEJFIP@RtlSetHeapInformation@ 711129b4     ntdll_redir.obj
 0002:0005e9cc       ??_C@_0M@DKBLBPDB@RtlLockHeap@ 711129cc     ntdll_redir.obj
 0002:0005e9d8       ??_C@_0O@BAFDFOCI@RtlUnlockHeap@ 711129d8     ntdll_redir.obj
 0002:0005e9e8       ??_C@_0BN@PMMLABHK@RtlInitializeCriticalSection@ 711129e8     ntdll_redir.obj
 0002:0005ea08       ??_C@_0CJ@MPODIBJB@RtlInitializeCriticalSectionAnd@ 71112a08     ntdll_redir.obj
 0002:0005ea34       ??_C@_0BP@DDGAOBPE@RtlInitializeCriticalSectionEx@ 71112a34     ntdll_redir.obj
 0002:0005ea54       ??_C@_0BJ@EPEACOEM@RtlDeleteCriticalSection@ 71112a54     ntdll_redir.obj
 0002:0005ea70       ??_C@_0BF@GENHDPCD@RtlFreeUnicodeString@ 71112a70     ntdll_redir.obj
 0002:0005ea88       ??_C@_0BC@DBMJHAHF@RtlFreeAnsiString@ 71112a88     ntdll_redir.obj
 0002:0005ea9c       ??_C@_0BB@ELOKKEEC@RtlFreeOemString@ 71112a9c     ntdll_redir.obj
 0002:0005eab0       ??_C@_0N@KMOLBMMD@ZwCreateFile@ 71112ab0     ntdll_redir.obj
 0002:0005eac0       ??_C@_0M@KGPINBFB@ZwCreateKey@ 71112ac0     ntdll_redir.obj
 0002:0005eacc       ??_C@_0BD@PPCCBCGB@ZwMapViewOfSection@ 71112acc     ntdll_redir.obj
 0002:0005eae0       ??_C@_0L@JECNLNLK@ZwOpenFile@ 71112ae0     ntdll_redir.obj
 0002:0005eaec       ??_C@_09LIJLGMPD@ZwOpenKey@ 71112aec     ntdll_redir.obj
 0002:0005eaf8       ??_C@_0M@OKCCJLED@ZwOpenKeyEx@ 71112af8     ntdll_redir.obj
 0002:0005eb04       ??_C@_0O@FEPJHLEJ@ZwOpenProcess@ 71112b04     ntdll_redir.obj
 0002:0005eb14       ??_C@_0BD@FICHFIDH@ZwOpenProcessToken@ 71112b14     ntdll_redir.obj
 0002:0005eb28       ??_C@_0BF@GEAAJNAA@ZwOpenProcessTokenEx@ 71112b28     ntdll_redir.obj
 0002:0005eb40       ??_C@_0N@HLDGFDL@ZwOpenThread@ 71112b40     ntdll_redir.obj
 0002:0005eb50       ??_C@_0BC@IHGIMNLF@ZwOpenThreadToken@ 71112b50     ntdll_redir.obj
 0002:0005eb64       ??_C@_0BE@ONNANPEN@ZwOpenThreadTokenEx@ 71112b64     ntdll_redir.obj
 0002:0005eb78       ??_C@_0BG@GHFHDGOA@ZwQueryAttributesFile@ 71112b78     ntdll_redir.obj
 0002:0005eb90       ??_C@_0BK@BDBDIBMH@ZwQueryFullAttributesFile@ 71112b90     ntdll_redir.obj
 0002:0005ebac       ??_C@_0BF@IOCOIHLM@ZwSetInformationFile@ 71112bac     ntdll_redir.obj
 0002:0005ebc4       ??_C@_0BH@JHOFABAM@ZwSetInformationThread@ 71112bc4     ntdll_redir.obj
 0002:0005ebdc       ??_C@_0BF@IPAHFEPJ@ZwUnmapViewOfSection@ 71112bdc     ntdll_redir.obj
 0002:0005ebf4       ??_C@_0M@MCGLICAE@RtlFlsAlloc@ 71112bf4     ntdll_redir.obj
 0002:0005ec00       ??_C@_0L@JPBOLMOH@RtlFlsFree@ 71112c00     ntdll_redir.obj
 0002:0005ec0c       ??_C@_0BC@KJGAHPBD@RtlProcessFlsData@ 71112c0c     ntdll_redir.obj
 0002:0005ef68       ??_C@_0BC@PMJGPBJJ@GetCurrentProcess@ 71112f68     kernel32_redir.obj
 0002:0005ef7c       ??_C@_0BE@BEODBHKD@GetCurrentProcessId@ 71112f7c     kernel32_redir.obj
 0002:0005ef90       ??_C@_0BB@POGOAJG@GetCurrentThread@ 71112f90     kernel32_redir.obj
 0002:0005efa4       ??_C@_0BD@PJMLNIOO@GetCurrentThreadId@ 71112fa4     kernel32_redir.obj
 0002:0005efb8       ??_C@_0M@LPAKIOHO@ExitProcess@ 71112fb8     kernel32_redir.obj
 0002:0005efc4       ??_C@_08KNHFBNJ@FlsAlloc@  71112fc4     kernel32_redir.obj
 0002:0005efd0       ??_C@_07PEJMOBNF@FlsFree@  71112fd0     kernel32_redir.obj
 0002:0005efd8       ??_C@_0M@GDNOONDI@FlsGetValue@ 71112fd8     kernel32_redir.obj
 0002:0005efe4       ??_C@_0M@JCPCPOEF@FlsSetValue@ 71112fe4     kernel32_redir.obj
 0002:0005eff0       ??_C@_0P@GILJFMCJ@LoadLibraryExA@ 71112ff0     kernel32_redir.obj
 0002:0005f000       ??_C@_0P@HECBOJPO@LoadLibraryExW@ 71113000     kernel32_redir.obj
 0002:0005f010       ??_C@_0M@FACAOGOA@FreeLibrary@ 71113010     kernel32_redir.obj
 0002:0005f01c       ??_C@_0BD@PLCDAMGN@GetModuleFileNameA@ 7111301c     kernel32_redir.obj
 0002:0005f030       ??_C@_0BD@OHLLLJLK@GetModuleFileNameW@ 71113030     kernel32_redir.obj
 0002:0005f044       ??_C@_0O@KBPMFGHI@DecodePointer@ 71113044     kernel32_redir.obj
 0002:0005f054       ??_C@_0O@NLDKAIKN@EncodePointer@ 71113054     kernel32_redir.obj
 0002:0005f064       ??_C@_0P@BOLOPLNF@GetProcessHeap@ 71113064     kernel32_redir.obj
 0002:0005f074       ??_C@_09JDKINLHP@HeapAlloc@ 71113074     kernel32_redir.obj
 0002:0005f080       ??_C@_0M@EIEMDCNL@HeapCompact@ 71113080     kernel32_redir.obj
 0002:0005f08c       ??_C@_0L@ICEGIJOB@HeapCreate@ 7111308c     kernel32_redir.obj
 0002:0005f098       ??_C@_0M@NELNNOPP@HeapDestroy@ 71113098     kernel32_redir.obj
 0002:0005f0a4       ??_C@_08ICEHPNNG@HeapFree@ 711130a4     kernel32_redir.obj
 0002:0005f0b0       ??_C@_0M@HHKAEGMB@HeapReAlloc@ 711130b0     kernel32_redir.obj
 0002:0005f0bc       ??_C@_0BE@GJFMEPLP@HeapSetInformation?5@ 711130bc     kernel32_redir.obj
 0002:0005f0d0       ??_C@_08LKCFNBPH@HeapSize@ 711130d0     kernel32_redir.obj
 0002:0005f0dc       ??_C@_0N@BKFJNCJM@HeapValidate@ 711130dc     kernel32_redir.obj
 0002:0005f0ec       ??_C@_08MDJKNJE@HeapWalk@  711130ec     kernel32_redir.obj
 0002:0005f0f8       ??_C@_0N@MMKCCACD@IsBadReadPtr@ 711130f8     kernel32_redir.obj
 0002:0005f108       ??_C@_0L@LJBCBOFE@LocalAlloc@ 71113108     kernel32_redir.obj
 0002:0005f114       ??_C@_09FHKJECCN@LocalFree@ 71113114     kernel32_redir.obj
 0002:0005f120       ??_C@_0N@OKNOKHCN@LocalReAlloc@ 71113120     kernel32_redir.obj
 0002:0005f130       ??_C@_09CFGEIEPC@LocalLock@ 71113130     kernel32_redir.obj
 0002:0005f13c       ??_C@_0M@PLKONNEA@LocalHandle@ 7111313c     kernel32_redir.obj
 0002:0005f148       ??_C@_0M@DEOPCMEJ@LocalUnlock@ 71113148     kernel32_redir.obj
 0002:0005f154       ??_C@_09GPMLGOAM@LocalSize@ 71113154     kernel32_redir.obj
 0002:0005f160       ??_C@_0L@BCKMLFNI@LocalFlags@ 71113160     kernel32_redir.obj
 0002:0005f16c       ??_C@_0BC@LFNIPHGA@ReadProcessMemory@ 7111316c     kernel32_redir.obj
 0002:0005f180       ??_C@_0N@LLPNHGPB@VirtualAlloc@ 71113180     kernel32_redir.obj
 0002:0005f190       ??_C@_0M@NFFCONOO@VirtualFree@ 71113190     kernel32_redir.obj
 0002:0005f19c       ??_C@_0P@IGDMCLEE@VirtualProtect@ 7111319c     kernel32_redir.obj
 0002:0005f1ac       ??_C@_0N@MAAAEOL@VirtualQuery@ 711131ac     kernel32_redir.obj
 0002:0005f1bc       ??_C@_0P@CLFAFOOL@VirtualQueryEx@ 711131bc     kernel32_redir.obj
 0002:0005f1cc       ??_C@_0BB@IFBLICJB@CreateDirectoryA@ 711131cc     kernel32_redir.obj
 0002:0005f1e0       ??_C@_0BB@JJIDDHEG@CreateDirectoryW@ 711131e0     kernel32_redir.obj
 0002:0005f1f4       ??_C@_0BB@GKHMDKAI@RemoveDirectoryA@ 711131f4     kernel32_redir.obj
 0002:0005f208       ??_C@_0BB@HGOEIPNP@RemoveDirectoryW@ 71113208     kernel32_redir.obj
 0002:0005f21c       ??_C@_0BF@BEDJDOHE@GetCurrentDirectoryA@ 7111321c     kernel32_redir.obj
 0002:0005f234       ??_C@_0BF@IKBILKD@GetCurrentDirectoryW@ 71113234     kernel32_redir.obj
 0002:0005f24c       ??_C@_0BF@ENCECICD@SetCurrentDirectoryA@ 7111324c     kernel32_redir.obj
 0002:0005f264       ??_C@_0BF@FBLMJNPE@SetCurrentDirectoryW@ 71113264     kernel32_redir.obj
 0002:0005f27c       ??_C@_0M@HDHGNCCA@CreateFileA@ 7111327c     kernel32_redir.obj
 0002:0005f288       ??_C@_0M@GPOOGHPH@CreateFileW@ 71113288     kernel32_redir.obj
 0002:0005f294       ??_C@_0M@CBNKJACB@DeleteFileA@ 71113294     kernel32_redir.obj
 0002:0005f2a0       ??_C@_0M@DNECCFPG@DeleteFileW@ 711132a0     kernel32_redir.obj
 0002:0005f2ac       ??_C@_08KLCHJOKF@ReadFile@ 711132ac     kernel32_redir.obj
 0002:0005f2b8       ??_C@_0BD@GJENCGJD@CreateFileMappingA@ 711132b8     kernel32_redir.obj
 0002:0005f2cc       ??_C@_0BD@HFNFJDEE@CreateFileMappingW@ 711132cc     kernel32_redir.obj
 0002:0005f2e0       ??_C@_0O@IGIELGBD@MapViewOfFile@ 711132e0     kernel32_redir.obj
 0002:0005f2f0       ??_C@_0BA@NCFKGNHK@MapViewOfFileEx@ 711132f0     kernel32_redir.obj
 0002:0005f300       ??_C@_0BA@GLKNLELN@UnmapViewOfFile@ 71113300     kernel32_redir.obj
 0002:0005f310       ??_C@_0BA@IHGACFIJ@FlushViewOfFile@ 71113310     kernel32_redir.obj
 0002:0005f320       ??_C@_0L@FBIDOKLH@CreatePipe@ 71113320     kernel32_redir.obj
 0002:0005f32c       ??_C@_0BA@DDPGCKOB@DeviceIoControl@ 7111332c     kernel32_redir.obj
 0002:0005f33c       ??_C@_0M@JHJNLFGC@CloseHandle@ 7111333c     kernel32_redir.obj
 0002:0005f348       ??_C@_0BA@KKBHKMMH@DuplicateHandle@ 71113348     kernel32_redir.obj
 0002:0005f358       ??_C@_0BI@EKFDIGHI@FileTimeToLocalFileTime@ 71113358     kernel32_redir.obj
 0002:0005f370       ??_C@_0BI@DDKHAPML@LocalFileTimeToFileTime@ 71113370     kernel32_redir.obj
 0002:0005f388       ??_C@_0BF@KPJNHALE@FileTimeToSystemTime@ 71113388     kernel32_redir.obj
 0002:0005f3a0       ??_C@_0BF@HBHGIPOG@SystemTimeToFileTime@ 711133a0     kernel32_redir.obj
 0002:0005f3b8       ??_C@_0BI@ENMDHCMK@GetSystemTimeAsFileTime@ 711133b8     kernel32_redir.obj
 0002:0005f3d0       ??_C@_0M@LLMLBHAB@GetFileTime@ 711133d0     kernel32_redir.obj
 0002:0005f3dc       ??_C@_0M@LENFMBIC@SetFileTime@ 711133dc     kernel32_redir.obj
 0002:0005f3e8       ??_C@_09DNPPEBNO@FindClose@ 711133e8     kernel32_redir.obj
 0002:0005f3f4       ??_C@_0P@FBOIBEBA@FindFirstFileA@ 711133f4     kernel32_redir.obj
 0002:0005f404       ??_C@_0P@ENHAKBMH@FindFirstFileW@ 71113404     kernel32_redir.obj
 0002:0005f414       ??_C@_0O@FFIPPOPJ@FindNextFileA@ 71113414     kernel32_redir.obj
 0002:0005f424       ??_C@_0O@EJBHELCO@FindNextFileW@ 71113424     kernel32_redir.obj
 0002:0005f434       ??_C@_0BB@MOGECGEP@FlushFileBuffers@ 71113434     kernel32_redir.obj
 0002:0005f448       ??_C@_0BC@CLHNLNI@GetDiskFreeSpaceA@ 71113448     kernel32_redir.obj
 0002:0005f45c       ??_C@_0BC@BOCPGOAP@GetDiskFreeSpaceW@ 7111345c     kernel32_redir.obj
 0002:0005f470       ??_C@_0O@EGGAOEOB@GetDriveTypeA@ 71113470     kernel32_redir.obj
 0002:0005f480       ??_C@_0O@FKPIFBDG@GetDriveTypeW@ 71113480     kernel32_redir.obj
 0002:0005f490       ??_C@_0BD@DJMMCMCB@GetFileAttributesA@ 71113490     kernel32_redir.obj
 0002:0005f4a4       ??_C@_0BD@CFFEJJPG@GetFileAttributesW@ 711134a4     kernel32_redir.obj
 0002:0005f4b8       ??_C@_0BL@JOCCKKDM@GetFileInformationByHandle@ 711134b8     kernel32_redir.obj
 0002:0005f4d4       ??_C@_0M@BAICHOOE@GetFileSize@ 711134d4     kernel32_redir.obj
 0002:0005f4e0       ??_C@_0M@PPCMHALN@GetFileType@ 711134e0     kernel32_redir.obj
 0002:0005f4ec       ??_C@_0N@BKPPPGAL@GetStdHandle@ 711134ec     kernel32_redir.obj
 0002:0005f4fc       ??_C@_0CG@PKBDLMEO@InitializeCriticalSectionAndSpi@ 711134fc     kernel32_redir.obj
 0002:0005f524       ??_C@_0BM@HCFOFFN@InitializeCriticalSectionEx@ 71113524     kernel32_redir.obj
 0002:0005f540       ??_C@_0BG@LEFHBJFJ@DeleteCriticalSection@ 71113540     kernel32_redir.obj
 0002:0005f558       ??_C@_0BF@KEABDKDM@EnterCriticalSection@ 71113558     kernel32_redir.obj
 0002:0005f570       ??_C@_0BF@PCHFPJFA@LeaveCriticalSection@ 71113570     kernel32_redir.obj
 0002:0005f588       ??_C@_0BM@CBNBFADA@InterlockedCompareExchange?5@ 71113588     kernel32_redir.obj
 0002:0005f5a4       ??_C@_0BF@LNDBIBML@InterlockedDecrement@ 711135a4     kernel32_redir.obj
 0002:0005f5bc       ??_C@_0BE@IONGHHBK@InterlockedExchange@ 711135bc     kernel32_redir.obj
 0002:0005f5d0       ??_C@_0BF@MKJKJEKG@InterlockedIncrement@ 711135d0     kernel32_redir.obj
 0002:0005f5e8       ??_C@_0BE@CLKLPNNG@WaitForSingleObject@ 711135e8     kernel32_redir.obj
 0002:0005f5fc       ??_C@_0N@HICKNDGL@GetLastError@ 711135fc     kernel32_redir.obj
 0002:0005f60c       ??_C@_0N@MJEBPCH@SetLastError@ 7111360c     kernel32_redir.obj
 0002:0005f61c       ??_C@_06DAJAKOAL@?$CFs?4dll@ 7111361c     kernel32_lib.obj
 0002:0005f624       ??_C@_15GANGMFKL@?$AA?$CF?$AAs@ 71113624     kernel32_lib.obj
 0002:0005f62c       ??_C@_1CE@NPBNEBGN@?$AA?2?$AAB?$AAa?$AAs?$AAe?$AAN?$AAa?$AAm?$AAe?$AAd?$AAO?$AAb?$AAj?$AAe?$AAc@ 7111362c     kernel32_file.obj
 0002:0005f650       ??_C@_1DM@GPEAFMED@?$AA?2?$AAS?$AAe?$AAs?$AAs?$AAi?$AAo?$AAn?$AAs?$AA?2?$AA?$CF?$AAd?$AA?2?$AAB?$AAa@ 71113650     kernel32_file.obj
 0002:0005f68c       ??_C@_1CG@NDPCIMIK@?$AA?2?$AAD?$AAe?$AAv?$AAi?$AAc?$AAe?$AA?2?$AAN?$AAa?$AAm?$AAe?$AAd?$AAP?$AAi@ 7111368c     kernel32_file.obj
 0002:0005f6b4       ??_C@_0N@MJAONNND@OpenConsoleW@ 711136b4     kernel32_file.obj
 0002:0005f6c4       ??_C@_19IGEAAGFL@?$AA?$CF?$AA?4?$AA?$CK?$AAs@ 711136c4     kernel32_file.obj
 0002:0005f6d0       ??_C@_1O@PNMIMBDD@?$AAC?$AAO?$AAN?$AAI?$AAN?$AA$@ 711136d0     kernel32_file.obj
 0002:0005f6e0       ??_C@_1BA@BALFACEM@?$AAC?$AAO?$AAN?$AAO?$AAU?$AAT?$AA$@ 711136e0     kernel32_file.obj
 0002:0005f6f0       ??_C@_1CK@OGHLNDOH@?$AAW?$AAi?$AAn?$AA3?$AA2?$AAP?$AAi?$AAp?$AAe?$AAs?$AA?4?$AA?$CF?$AA0?$AA8?$AAx@ 711136f0     kernel32_file.obj
 0002:0005f71c       ??_C@_04NEFNLNDK@?$CF?4?$CKS@ 7111371c     kernel32_file.obj
 0002:0005f72c       ??_C@_0L@IDKDBMAM@UuidCreate@ 7111372c     rpcrt4_redir.obj
 0002:0005f760       ??_C@_0M@HLOHPNFA@RegCloseKey@ 71113760     advapi32_redir.obj
 0002:0005f76c       ??_C@_0O@DCOGKJGG@RegOpenKeyExA@ 7111376c     advapi32_redir.obj
 0002:0005f77c       ??_C@_0O@COHOBMLB@RegOpenKeyExW@ 7111377c     advapi32_redir.obj
 0002:0005f78c       ??_C@_0BB@HHEIPGME@RegQueryValueExA@ 7111378c     advapi32_redir.obj
 0002:0005f7a0       ??_C@_0BB@GLNAEDBD@RegQueryValueExW@ 711137a0     advapi32_redir.obj
 0002:0005f7b4       ??_C@_1CE@MMIANEAD@?$AA?2?$AAR?$AAe?$AAg?$AAi?$AAs?$AAt?$AAr?$AAy?$AA?2?$AAU?$AAs?$AAe?$AAr?$AA?2@ 711137b4     advapi32_redir.obj
 0002:0005f7d8       ??_C@_1CE@NMBJJGCH@?$AA?2?$AAR?$AAe?$AAg?$AAi?$AAs?$AAt?$AAr?$AAy?$AA?2?$AAM?$AAa?$AAc?$AAh?$AAi@ 711137d8     advapi32_redir.obj
 0002:0005f800       ??_C@_1IK@OHFPEIIL@?$AA?2?$AAR?$AAe?$AAg?$AAi?$AAs?$AAt?$AAr?$AAy?$AA?2?$AAM?$AAa?$AAc?$AAh?$AAi@ 71113800     advapi32_redir.obj
 0002:0005f890       ??_C@_1EG@JIHFKCMP@?$AA?2?$AAR?$AAe?$AAg?$AAi?$AAs?$AAt?$AAr?$AAy?$AA?2?$AAM?$AAa?$AAc?$AAh?$AAi@ 71113890     advapi32_redir.obj
 0002:0005f8d8       ??_C@_1BO@MLIOGHOC@?$AA?2?$AAR?$AAe?$AAg?$AAi?$AAs?$AAt?$AAr?$AAy?$AA?2?$AAU?$AAs?$AAe?$AAr@ 711138d8     advapi32_redir.obj
 0002:00066270       ___volatile_metadata       7111a270     <linker-defined>
 0002:00067364       __IMPORT_DESCRIPTOR_ntdll  7111b364     ntdll_imports:ntdll.dll
 0002:00067378       __NULL_IMPORT_DESCRIPTOR   7111b378     ntdll_imports:ntdll.dll
 0003:00000000       _dynamo_options            7111c000     options.obj
 0003:0000a124       _datasec_writable_rareprot 71126124     dynamo.obj
 0003:0000a128       _dr_early_injected_location 71126128     dynamo.obj
 0003:0000a138       _do_once_generation        71126138     utils.obj
 0003:0000a13c       _exception_label_core      7112613c     utils.obj
 0003:0000a140       _exception_label_client    71126140     utils.obj
 0003:0000a190       _unique_build_number       71126190     instrument.obj
 0003:0000a198       _cache_line_size           71126198     proc_shared.obj
 0003:0000a1a0       _cpu_info                  711261a0     proc_shared.obj
 0003:0000a28c       _wow64_syscall_stack       7112628c     os.obj
 0003:0000a290       _profile_file              71126290     os.obj
 0003:0000a2d0       _windows_10_1803_x64_syscalls 711262d0     syscall.obj
 0003:0000a3e0       _windows_10_1803_wow64_syscalls 711263e0     syscall.obj
 0003:0000a4f0       _windows_10_1803_x86_syscalls 711264f0     syscall.obj
 0003:0000a600       _windows_10_1709_x64_syscalls 71126600     syscall.obj
 0003:0000a710       _windows_10_1709_wow64_syscalls 71126710     syscall.obj
 0003:0000a820       _windows_10_1709_x86_syscalls 71126820     syscall.obj
 0003:0000a930       _windows_10_1703_x64_syscalls 71126930     syscall.obj
 0003:0000aa40       _windows_10_1703_wow64_syscalls 71126a40     syscall.obj
 0003:0000ab50       _windows_10_1703_x86_syscalls 71126b50     syscall.obj
 0003:0000ac60       _windows_10_1607_x64_syscalls 71126c60     syscall.obj
 0003:0000ad70       _windows_10_1607_wow64_syscalls 71126d70     syscall.obj
 0003:0000ae80       _windows_10_1607_x86_syscalls 71126e80     syscall.obj
 0003:0000af90       _windows_10_1511_x64_syscalls 71126f90     syscall.obj
 0003:0000b0a0       _windows_10_1511_wow64_syscalls 711270a0     syscall.obj
 0003:0000b1b0       _windows_10_1511_x86_syscalls 711271b0     syscall.obj
 0003:0000b2c0       _windows_10_x64_syscalls   711272c0     syscall.obj
 0003:0000b3d0       _windows_10_wow64_syscalls 711273d0     syscall.obj
 0003:0000b4e0       _windows_10_x86_syscalls   711274e0     syscall.obj
 0003:0000b5f0       _windows_81_x64_syscalls   711275f0     syscall.obj
 0003:0000b700       _windows_81_wow64_syscalls 71127700     syscall.obj
 0003:0000b810       _windows_81_x86_syscalls   71127810     syscall.obj
 0003:0000b920       _windows_8_x64_syscalls    71127920     syscall.obj
 0003:0000ba30       _windows_8_wow64_syscalls  71127a30     syscall.obj
 0003:0000bb40       _windows_8_x86_syscalls    71127b40     syscall.obj
 0003:0000bc50       _windows_7_x64_syscalls    71127c50     syscall.obj
 0003:0000bd60       _windows_7_syscalls        71127d60     syscall.obj
 0003:0000be70       _windows_vista_sp1_x64_syscalls 71127e70     syscall.obj
 0003:0000bf80       _windows_vista_sp1_syscalls 71127f80     syscall.obj
 0003:0000c090       _windows_vista_sp0_x64_syscalls 71128090     syscall.obj
 0003:0000c1a0       _windows_vista_sp0_syscalls 711281a0     syscall.obj
 0003:0000c2b0       _windows_2003_syscalls     711282b0     syscall.obj
 0003:0000c3c0       _windows_XP_x64_syscalls   711283c0     syscall.obj
 0003:0000c4d0       _windows_XP_wow64_index    711284d0     syscall.obj
 0003:0000c5e0       _windows_XP_syscalls       711285e0     syscall.obj
 0003:0000c6f0       _windows_2000_syscalls     711286f0     syscall.obj
 0003:0000c800       _windows_NT_sp3_syscalls   71128800     syscall.obj
 0003:0000c910       _windows_NT_sp0_syscalls   71128910     syscall.obj
 0003:0000ca20       _windows_NT_sp4_syscalls   71128a20     syscall.obj
 0003:0000cb30       _syscall_argsz             71128b30     syscall.obj
 0003:0000cc40       _syscall_names             71128c40     syscall.obj
 0003:0000ce5c       _intercept_occlusion_mask  71128e5c     callback.obj
 0003:0000ce68       _sysenter_tls_offset       71128e68     ntdll.obj
 0003:0000cea8       _shared_object_directory   71128ea8     aslr.obj
 0003:0000ceac       _relocated_dlls_filecache_initial 71128eac     aslr.obj
 0003:0000ceb0       _known_dlls_object_directory 71128eb0     aslr.obj
 0003:0000cec0       _d_r_ss_value              71128ec0     drlibc:drlibc.obj
 0003:0000d000       _d_r_option_string         71129000     options.obj
 0003:0000d800       _automatic_startup         71129800     dynamo.obj
 0003:0000d801       _control_all_threads       71129801     dynamo.obj
 0003:0000d802       _dynamo_heap_initialized   71129802     dynamo.obj
 0003:0000d803       _dynamo_initialized        71129803     dynamo.obj
 0003:0000d804       _dynamo_started            71129804     dynamo.obj
 0003:0000d805       _dynamo_exited             71129805     dynamo.obj
 0003:0000d806       _dynamo_exited_all_other_threads 71129806     dynamo.obj
 0003:0000d807       _dynamo_exited_and_cleaned 71129807     dynamo.obj
 0003:0000d808       _dynamo_resetting          71129808     dynamo.obj
 0003:0000d809       _standalone_library        71129809     dynamo.obj
 0003:0000d80a       _dr_early_injected         7112980a     dynamo.obj
 0003:0000d80b       _dr_earliest_injected      7112980b     dynamo.obj
 0003:0000d80c       _d_r_stats                 7112980c     dynamo.obj
 0003:0000d810       _dr_injected_primary_thread 71129810     dynamo.obj
 0003:0000d811       _dr_injected_secondary_thread 71129811     dynamo.obj
 0003:0000d812       _dr_late_injected_primary_thread 71129812     dynamo.obj
 0003:0000d813       _dr_api_entry              71129813     dynamo.obj
 0003:0000d814       _dr_api_exit               71129814     dynamo.obj
 0003:00014a10       _vm_areas_exited           71130a10     vmareas.obj
 0003:00014a40       _doing_detach              71130a40     synch.obj
 0003:00014a44       _detacher_tid              71130a44     synch.obj
 0003:000267e4       _app_sysenter_instr_addr   711427e4     arch.obj
 0003:000267e8       _d_r_avx512_code_in_use    711427e8     arch.obj
 0003:000267ec       _d_r_client_avx512_code_in_use 711427ec     arch.obj
 0003:000267f0       _shared_code               711427f0     arch.obj
 0003:00027190       _parent_early_inject_address 71143190     os.obj
 0003:00027194       _dynamo_dll_start          71143194     os.obj
 0003:00027198       _dynamo_dll_end            71143198     os.obj
 0003:0002719c       _early_inject_load_helper_dcontext 7114319c     os.obj
 0003:000271a0       _intercept_asynch          711431a0     os.obj
 0003:000271a1       _intercept_callbacks       711431a1     os.obj
 0003:000271a4       _win32_pid                 711431a4     os.obj
 0003:000271a8       _vsyscall_page_start       711431a8     os.obj
 0003:000271ac       _vsyscall_after_syscall    711431ac     os.obj
 0003:000271b0       _vsyscall_syscall_end_pc   711431b0     os.obj
 0003:00027948       _syscalls                  71143948     syscall.obj
 0003:0002794c       _wow64_index               7114394c     syscall.obj
 0003:00027950       _int_syscall_address       71143950     syscall.obj
 0003:00027954       _sysenter_ret_address      71143954     syscall.obj
 0003:00027958       _KiFastSystemCallRet_address 71143958     syscall.obj
 0003:00028000       _init_apc_go_native_pause  71144000     callback.obj
 0003:00028001       _init_apc_go_native        71144001     callback.obj
 0003:00031068       _context_xstate            7114d068     ntdll.obj
 0003:0003106c       _ntdll_RtlGetExtendedContextLength 7114d06c     ntdll.obj
 0003:00031070       _ntdll_RtlInitializeExtendedContext 7114d070     ntdll.obj
 0003:00031074       _ntdll_RtlLocateLegacyContext 7114d074     ntdll.obj
 0003:00031dc0       _known_dll_path            7114ddc0     <common>
 0003:00031fc8       _aslr_heap_pad_areas       7114dfc8     <common>
 0003:00031fcc       _aslr_wouldbe_areas        7114dfcc     <common>
 0003:00031fd0       _NtGetNextThread           7114dfd0     <common>
 0003:00031fd4       _thread_attach_takeover    7114dfd4     <common>
 0003:00031fe0       _windows_unknown_syscalls  7114dfe0     <common>
 0003:000320ec       _wow64_syscall_call_tgt    7114e0ec     <common>
 0003:000320f0       _peb_ptr                   7114e0f0     <common>
 0003:00032100       _selfmod_copy_end_offs     7114e100     <common>
 0003:00032120       _selfmod_copy_start_offs   7114e120     <common>
 0003:00032140       _default_clean_call_info   7114e140     <common>
 0003:00032180       _default_callee_info       7114e180     <common>
 0003:000321e8       _bb_lock_start             7114e1e8     <common>
 0003:000321e9       _gencode_swaps_teb_tls     7114e1e9     <common>
 0003:000321ea       _client_requested_exit     7114e1ea     <common>
 0003:000321ec       _native_exec_areas         7114e1ec     <common>
 0003:000321f0       _modlist_areas             7114e1f0     <common>
 0003:000321f4       _search_paths_idx          7114e1f4     <common>
 0003:00032200       _search_paths              7114e200     <common>
 0003:00033a60       _privmod_static_idx        7114fa60     <common>
 0003:00033a64       _loaded_module_areas       7114fa64     <common>
 0003:00033a68       _IAT_areas                 7114fa68     <common>
 0003:00033a6c       _patch_proof_areas         7114fa6c     <common>
 0003:00033a70       _emulate_write_areas       7114fa70     <common>
 0003:00033a74       _landing_pad_areas         7114fa74     <common>
 0003:00033a78       _kstat_ignore_context_switch 7114fa78     <common>
 0003:00033a80       _global_try_except         7114fa80     <common>
 0003:00033a88       _stub_heap                 7114fa88     <common>
 0003:00033a8c       _fcache_unit_areas         7114fa8c     <common>
 0003:00033a90       _hashlookup_null_target    7114fa90     <common>
 0003:00033a94       _all_threads               7114fa94     <common>
 0003:00033a98       _d_r_initstack             7114fa98     <common>
 0003:00033a9c       _dr_attach_finished        7114fa9c     <common>
 0003:00033aa0       _dr_app_started            7114faa0     <common>
 0003:00033ac0       _temp_options              7114fac0     <common>
 0003:0003dbe4       _main_logfile              71159be4     <common>
 0004:00000000       _new_option_string         7115a000     options.obj
 0004:00000800       _datasec_writable_freqprot 7115a800     dynamo.obj
 0004:00000850       _flushtime_global          7115a850     fragment.obj
 0004:00000868       _reset_in_progress         7115a868     fcache.obj
 0004:0000086c       _reset_at_nth_unit         7115a86c     fcache.obj
 0004:00000874       _reset_every_nth_unit      7115a874     fcache.obj
 0004:0000087c       _reset_pending             7115a87c     fcache.obj
 0004:000008b4       _low_on_memory_pending     7115a8b4     heap.obj
 0005:00000000       _options_lock              7115b000     options.obj
 0005:0000001c       _datasec_writable_cxtswprot 7115b01c     dynamo.obj
 0005:00000030       _all_threads_lock          7115b030     dynamo.obj
 0005:00000038       _thread_initexit_lock      7115b038     dynamo.obj
 0005:00000050       _shared_cache_flush_lock   7115b050     fragment.obj
 0005:00000058       _client_flush_request_lock 7115b058     fragment.obj
 0005:00000060       _client_flush_requests     7115b060     fragment.obj
 0005:00000074       _reset_pending_lock        7115b074     fcache.obj
 0005:0000007c       _change_linking_lock       7115b07c     link.obj
 0005:000000b0       _process_kstats_lock       7115b0b0     stats.obj
 0005:000000f4       _trace_building_lock       7115b0f4     monitor.obj
 0005:0000010c       _dynamo_areas_recursion    7115b10c     vmareas.obj
 0005:00000110       _shared_delete_lock        7115b110     vmareas.obj
 0005:00000118       _module_data_lock          7115b118     module_list.obj
 0005:00000134       _moduledb_lock             7115b134     moduledb.obj
 0005:00000154       _all_threads_synch_lock    7115b154     synch.obj
 0005:0000015c       _privload_lock             7115b15c     loader_shared.obj
 0005:000001a0       _bb_building_lock          7115b1a0     interp.obj
 0005:000001b8       _profile_dump_lock         7115b1b8     os.obj
 0006:00000f58       _dynamo_all_threads_synched 7115cf58     dynamo.obj
 0006:00000f5c       _initstack_mutex           7115cf5c     dynamo.obj
 0006:00000f64       _initstack_app_xsp         7115cf64     dynamo.obj
 0006:00000f68       _exception_stack           7115cf68     dynamo.obj
 0006:00000f6c       _exiting_thread_count      7115cf6c     dynamo.obj
 0006:00000f70       _uninit_thread_count       7115cf70     dynamo.obj
 0006:00001548       _process_kstats            7115d548     stats.obj
 0006:00001f98       _process_kstats_outfile    7115df98     stats.obj
 0006:00001f9c       _d_r_debug_register        7115df9c     proc.obj

 entry point at        0001:000835e0

 Static symbols

 0000:ffe8e000       .debug$S                   71000000     dynamorio.exp
 0000:ffe8e000       .debug$S                   71000000     ntdll_imports:ntdll.dll
 0000:ffe8e000       .debug$S                   71000000     ntdll_imports:ntdll.dll
 0000:ffe8e000       .debug$S                   71000000     ntdll_imports:ntdll.dll
 0000:ffe8e000       .debug$S                   71000000     ntdll_imports:ntdll.dll
 0000:ffe8e000       .debug$S                   71000000     ntdll_imports:ntdll.dll
 0000:ffe8e000       .debug$S                   71000000     ntdll_imports:ntdll.dll
 0000:ffe8e000       .debug$S                   71000000     ntdll_imports:ntdll.dll
 0000:ffe8e000       .debug$S                   71000000     ntdll_imports:ntdll.dll
 0000:ffe8e000       .debug$S                   71000000     ntdll_imports:ntdll.dll
 0000:ffe8e000       .debug$S                   71000000     ntdll_imports:ntdll.dll
 0000:ffe8e000       .debug$S                   71000000     ntdll_imports:ntdll.dll
 0000:ffe8e000       .debug$S                   71000000     ntdll_imports:ntdll.dll
 0000:ffe8e000       .debug$S                   71000000     ntdll_imports:ntdll.dll
 0000:ffe8e000       .debug$S                   71000000     ntdll_imports:ntdll.dll
 0000:ffe8e000       .debug$S                   71000000     ntdll_imports:ntdll.dll
 0000:ffe8e000       .debug$S                   71000000     ntdll_imports:ntdll.dll
 0000:ffe8e000       .debug$S                   71000000     ntdll_imports:ntdll.dll
 0000:ffe8e000       .debug$S                   71000000     ntdll_imports:ntdll.dll
 0000:ffe8e000       .debug$S                   71000000     ntdll_imports:ntdll.dll
 0000:ffe8e000       .debug$S                   71000000     ntdll_imports:ntdll.dll
 0000:ffe8e000       .debug$S                   71000000     ntdll_imports:ntdll.dll
 0000:ffe8e000       .debug$S                   71000000     ntdll_imports:ntdll.dll
 0000:ffe8e000       .debug$S                   71000000     ntdll_imports:ntdll.dll
 0000:ffe8e000       .debug$S                   71000000     ntdll_imports:ntdll.dll
 0000:ffe8e000       .debug$S                   71000000     ntdll_imports:ntdll.dll
 0000:ffe8e000       .debug$S                   71000000     ntdll_imports:ntdll.dll
 0000:ffe8e000       .debug$S                   71000000     ntdll_imports:ntdll.dll
 0000:ffe8e000       .debug$S                   71000000     ntdll_imports:ntdll.dll
 0000:ffe8e000       .debug$S                   71000000     ntdll_imports:ntdll.dll
 0000:ffe8e000       .debug$S                   71000000     ntdll_imports:ntdll.dll
 0000:ffe8e000       .debug$S                   71000000     ntdll_imports:ntdll.dll
 0000:ffe8e000       .debug$S                   71000000     ntdll_imports:ntdll.dll
 0000:ffe8e000       .debug$S                   71000000     ntdll_imports:ntdll.dll
 0000:ffe8e000       .debug$S                   71000000     ntdll_imports:ntdll.dll
 0000:ffe8e000       .debug$S                   71000000     ntdll_imports:ntdll.dll
 0000:ffe8e000       .debug$S                   71000000     ntdll_imports:ntdll.dll
 0000:ffe8e000       .debug$S                   71000000     ntdll_imports:ntdll.dll
 0000:ffe8e000       .debug$S                   71000000     ntdll_imports:ntdll.dll
 0000:ffe8e000       .debug$S                   71000000     ntdll_imports:ntdll.dll
 0000:ffe8e000       .debug$S                   71000000     ntdll_imports:ntdll.dll
 0000:ffe8e000       .debug$S                   71000000     ntdll_imports:ntdll.dll
 0000:ffe8e000       .debug$S                   71000000     ntdll_imports:ntdll.dll
 0000:ffe8e000       .debug$S                   71000000     ntdll_imports:ntdll.dll
 0000:ffe8e000       .debug$S                   71000000     ntdll_imports:ntdll.dll
 0000:ffe8e000       .debug$S                   71000000     ntdll_imports:ntdll.dll
 0000:ffe8e000       .debug$S                   71000000     ntdll_imports:ntdll.dll
 0000:ffe8e000       .debug$S                   71000000     ntdll_imports:ntdll.dll
 0000:ffe8e000       .debug$S                   71000000     ntdll_imports:ntdll.dll
 0000:ffe8e000       .debug$S                   71000000     ntdll_imports:ntdll.dll
 0000:ffe8e000       .debug$S                   71000000     ntdll_imports:ntdll.dll
 0000:ffe8e000       .debug$S                   71000000     ntdll_imports:ntdll.dll
 0000:ffe8e000       .debug$S                   71000000     ntdll_imports:ntdll.dll
 0000:ffe8e000       .debug$S                   71000000     ntdll_imports:ntdll.dll
 0000:ffe8e000       .debug$S                   71000000     ntdll_imports:ntdll.dll
 0000:ffe8e000       .debug$S                   71000000     ntdll_imports:ntdll.dll
 0000:ffe8e000       .debug$S                   71000000     ntdll_imports:ntdll.dll
 0000:ffe8e000       .debug$S                   71000000     ntdll_imports:ntdll.dll
 0000:ffe8e000       .debug$S                   71000000     ntdll_imports:ntdll.dll
 0000:ffe8e000       .debug$S                   71000000     ntdll_imports:ntdll.dll
 0000:ffe8e000       .debug$S                   71000000     ntdll_imports:ntdll.dll
 0000:ffe8e000       .debug$S                   71000000     ntdll_imports:ntdll.dll
 0000:ffe8e000       .debug$S                   71000000     ntdll_imports:ntdll.dll
 0000:ffe8e000       .debug$S                   71000000     ntdll_imports:ntdll.dll
 0000:ffe8e000       .debug$S                   71000000     ntdll_imports:ntdll.dll
 0000:ffe8e000       .debug$S                   71000000     ntdll_imports:ntdll.dll
 0000:ffe8e000       .debug$S                   71000000     ntdll_imports:ntdll.dll
 0000:ffe8e000       .debug$S                   71000000     ntdll_imports:ntdll.dll
 0000:ffe8e000       .debug$S                   71000000     ntdll_imports:ntdll.dll
 0000:ffe8e000       .debug$S                   71000000     ntdll_imports:ntdll.dll
 0000:ffe8e000       .debug$S                   71000000     ntdll_imports:ntdll.dll
 0000:ffe8e000       .debug$S                   71000000     ntdll_imports:ntdll.dll
 0000:ffe8e000       .debug$S                   71000000     ntdll_imports:ntdll.dll
 0000:ffe8e000       .debug$S                   71000000     ntdll_imports:ntdll.dll
 0000:ffe8e000       .debug$S                   71000000     ntdll_imports:ntdll.dll
 0000:ffe8e000       .debug$S                   71000000     ntdll_imports:ntdll.dll
 0000:ffe8e000       .debug$S                   71000000     ntdll_imports:ntdll.dll
 0000:ffe8e000       .debug$S                   71000000     ntdll_imports:ntdll.dll
 0000:ffe8e000       .debug$S                   71000000     ntdll_imports:ntdll.dll
 0000:ffe8e000       .debug$S                   71000000     ntdll_imports:ntdll.dll
 0000:ffe8e000       .debug$S                   71000000     ntdll_imports:ntdll.dll
 0000:ffe8e000       .debug$S                   71000000     ntdll_imports:ntdll.dll
 0000:ffe8e000       .debug$S                   71000000     ntdll_imports:ntdll.dll
 0000:ffe8e000       .debug$S                   71000000     ntdll_imports:ntdll.dll
 0000:ffe8e000       .debug$S                   71000000     ntdll_imports:ntdll.dll
 0000:ffe8e000       .debug$S                   71000000     ntdll_imports:ntdll.dll
 0000:ffe8e000       .debug$S                   71000000     ntdll_imports:ntdll.dll
 0000:ffe8e000       .debug$S                   71000000     ntdll_imports:ntdll.dll
 0000:ffe8e000       .debug$S                   71000000     ntdll_imports:ntdll.dll
 0000:ffe8e000       .debug$S                   71000000     ntdll_imports:ntdll.dll
 0000:ffe8e000       .debug$S                   71000000     ntdll_imports:ntdll.dll
 0000:ffe8e000       .debug$S                   71000000     ntdll_imports:ntdll.dll
 0000:ffe8e000       .debug$S                   71000000     ntdll_imports:ntdll.dll
 0000:ffe8e000       .debug$S                   71000000     ntdll_imports:ntdll.dll
 0000:ffe8e000       .debug$S                   71000000     ntdll_imports:ntdll.dll
 0000:ffe8e000       .debug$S                   71000000     ntdll_imports:ntdll.dll
 0000:ffe8e000       .debug$S                   71000000     ntdll_imports:ntdll.dll
 0000:ffe8e000       .debug$S                   71000000     ntdll_imports:ntdll.dll
 0000:ffe8e000       .debug$S                   71000000     ntdll_imports:ntdll.dll
 0000:ffe8e000       .debug$S                   71000000     ntdll_imports:ntdll.dll
 0000:ffe8e000       .debug$S                   71000000     ntdll_imports:ntdll.dll
 0000:ffe8e000       .debug$S                   71000000     ntdll_imports:ntdll.dll
 0000:ffe8e000       .debug$S                   71000000     ntdll_imports:ntdll.dll
 0000:ffe8e000       .debug$S                   71000000     ntdll_imports:ntdll.dll
 0000:ffe8e000       .debug$S                   71000000     ntdll_imports:ntdll.dll
 0000:ffe8e000       .debug$S                   71000000     ntdll_imports:ntdll.dll
 0000:ffe8e000       .debug$S                   71000000     ntdll_imports:ntdll.dll
 0000:ffe8e000       .debug$S                   71000000     ntdll_imports:ntdll.dll
 0000:ffe8e000       .debug$S                   71000000     ntdll_imports:ntdll.dll
 0000:ffe8e000       .debug$S                   71000000     ntdll_imports:ntdll.dll
 0000:ffe8e000       .debug$S                   71000000     ntdll_imports:ntdll.dll
 0000:ffe8e000       .debug$S                   71000000     ntdll_imports:ntdll.dll
 0000:ffe8e000       .debug$S                   71000000     ntdll_imports:ntdll.dll
 0000:ffe8e000       .debug$S                   71000000     ntdll_imports:ntdll.dll
 0000:ffe8e000       .debug$S                   71000000     ntdll_imports:ntdll.dll
 0000:ffe8e000       .debug$S                   71000000     ntdll_imports:ntdll.dll
 0000:ffe8e000       .debug$S                   71000000     ntdll_imports:ntdll.dll
 0000:ffe8e000       .debug$S                   71000000     ntdll_imports:ntdll.dll
 0000:ffe8e000       .debug$S                   71000000     ntdll_imports:ntdll.dll
 0000:ffe8e000       .debug$S                   71000000     ntdll_imports:ntdll.dll
 0000:ffe8e000       .debug$S                   71000000     ntdll_imports:ntdll.dll
 0000:ffe8e000       .debug$S                   71000000     ntdll_imports:ntdll.dll
 0000:ffe8e000       .debug$S                   71000000     ntdll_imports:ntdll.dll
 0000:ffe8e000       .debug$S                   71000000     ntdll_imports:ntdll.dll
 0000:ffe8e000       .debug$S                   71000000     ntdll_imports:ntdll.dll
 0000:ffe8e000       .debug$S                   71000000     ntdll_imports:ntdll.dll
 0000:ffe8e000       .debug$S                   71000000     ntdll_imports:ntdll.dll
 0000:ffe8e000       .debug$S                   71000000     ntdll_imports:ntdll.dll
 0000:ffe8e000       .debug$S                   71000000     ntdll_imports:ntdll.dll
 0000:ffe8e000       .debug$S                   71000000     ntdll_imports:ntdll.dll
 0000:ffe8e000       .debug$S                   71000000     ntdll_imports:ntdll.dll
 0000:ffe8e000       .debug$S                   71000000     ntdll_imports:ntdll.dll
 0000:ffe8e000       .debug$S                   71000000     ntdll_imports:ntdll.dll
 0000:ffe8e000       .debug$S                   71000000     ntdll_imports:ntdll.dll
 0000:ffe8e000       .debug$S                   71000000     ntdll_imports:ntdll.dll
 0000:ffe8e000       .debug$S                   71000000     ntdll_imports:ntdll.dll
 0000:ffe8e000       .debug$S                   71000000     ntdll_imports:ntdll.dll
 0000:ffe8e000       .debug$S                   71000000     ntdll_imports:ntdll.dll
 0000:ffe8e000       .debug$S                   71000000     ntdll_imports:ntdll.dll
 0000:ffe8e000       .debug$S                   71000000     ntdll_imports:ntdll.dll
 0000:ffe8e000       .debug$S                   71000000     ntdll_imports:ntdll.dll
 0000:ffe8e000       .debug$S                   71000000     ntdll_imports:ntdll.dll
 0000:ffe8e000       .debug$S                   71000000     ntdll_imports:ntdll.dll
 0000:ffe8e000       .debug$S                   71000000     ntdll_imports:ntdll.dll
 0001:00000000       _adjust_defaults_for_page_size 71001000 f   options.obj
 0001:000002e0       _check_option_compatibility_helper 710012e0 f   options.obj
 0001:00000d30       _diff_by_type              71001d30 f   options.obj
 0001:00000dc0       $LN30                      71001dc0     options.obj
 0001:00001140       _getword_common            71002140 f   options.obj
 0001:000012fc       $LN43                      710022fc     options.obj
 0001:00001730       _parse_by_type             71002730 f   options.obj
 0001:00001aa8       $LN72                      71002aa8     options.obj
 0001:00001ac4       $LN74                      71002ac4     options.obj
 0001:00001ad8       $LN73                      71002ad8     options.obj
 0001:00001b10       _print_option_type         71002b10 f   options.obj
 0001:00001c58       $LN32                      71002c58     options.obj
 0001:00001c80       _run_option_command        71002c80 f   options.obj
 0001:00002690       _set_bool_opt              71003690 f   options.obj
 0001:00002730       _set_dynamo_options_common 71003730 f   options.obj
 0001:000028c0       _set_dynamo_options_defaults 710038c0 f   options.obj
 0001:000028e0       _set_nonbool_opt           710038e0 f   options.obj
 0001:00002bc0       $LN66                      71003bc0     options.obj
 0001:00002e60       _data_section_init         71003e60 f   dynamo.obj
 0001:00003e10       _dynamo_thread_exit_common 71004e10 f   dynamo.obj
 0001:00005a90       _statistics_init           71006a90 f   dynamo.obj
 0001:000062e0       _check_flush_queue         710072e0 f   fragment.obj
 0001:00006410       _coarse_body_from_htable_entry 71007410 f   fragment.obj
 0001:00006590       _dec_all_table_ref_counts  71007590 f   fragment.obj
 0001:00006750       _dec_table_ref_count       71007750 f   fragment.obj
 0001:000076b0       _flush_fragments_synchall_start 710086b0 f   fragment.obj
 0001:00007e10       _fragment_add_ibl_target_helper 71008e10 f   fragment.obj
 0001:00008280       _fragment_coarse_entry_freeze 71009280 f   fragment.obj
 0001:00008bc0       _fragment_coarse_htable_merge_helper 71009bc0 f   fragment.obj
 0001:000097e0       _fragment_coarse_th_lookup 7100a7e0 f   fragment.obj
 0001:00009dc0       _fragment_create_heap      7100adc0 f   fragment.obj
 0001:0000a160       _fragment_delete_future_filter 7100b160 f   fragment.obj
 0001:0000a170       _fragment_delete_futures_in_region 7100b170 f   fragment.obj
 0001:0000a7b0       _fragment_init_heap        7100b7b0 f   fragment.obj
 0001:0000ae20       _fragment_lookup_type      7100be20 f   fragment.obj
 0001:0000b250       _fragment_prepare_for_removal_from_table 7100c250 f   fragment.obj
 0001:0000b8f0       _fragment_remove_ibl_entries_in_region 7100c8f0 f   fragment.obj
 0001:0000cc50       _hashtable_coarse_add      7100dc50 f   fragment.obj
 0001:0000ccf0       _hashtable_coarse_check_size 7100dcf0 f   fragment.obj
 0001:0000cf60       _hashtable_coarse_groom_table 7100df60 f   fragment.obj
 0001:0000cfc0       _hashtable_coarse_init     7100dfc0 f   fragment.obj
 0001:0000d030       _hashtable_coarse_init_internal 7100e030 f   fragment.obj
 0001:0000d150       _hashtable_coarse_lookup   7100e150 f   fragment.obj
 0001:0000d1d0       _hashtable_coarse_num_unique_entries 7100e1d0 f   fragment.obj
 0001:0000d280       _hashtable_coarse_remove_helper 7100e280 f   fragment.obj
 0001:0000d390       _hashtable_fragment_add    7100e390 f   fragment.obj
 0001:0000d450       _hashtable_fragment_check_size 7100e450 f   fragment.obj
 0001:0000d6d0       _hashtable_fragment_free   7100e6d0 f   fragment.obj
 0001:0000d740       _hashtable_fragment_groom_helper 7100e740 f   fragment.obj
 0001:0000d770       _hashtable_fragment_init   7100e770 f   fragment.obj
 0001:0000d7e0       _hashtable_fragment_init_internal 7100e7e0 f   fragment.obj
 0001:0000d8e0       _hashtable_fragment_lookup 7100e8e0 f   fragment.obj
 0001:0000d960       _hashtable_fragment_lookup_for_removal 7100e960 f   fragment.obj
 0001:0000da00       _hashtable_fragment_range_remove 7100ea00 f   fragment.obj
 0001:0000dae0       _hashtable_fragment_remove_helper 7100eae0 f   fragment.obj
 0001:0000dbf0       _hashtable_fragment_reset  7100ebf0 f   fragment.obj
 0001:0000dde0       _hashtable_fragment_unlinked_remove 7100ede0 f   fragment.obj
 0001:0000df70       _hashtable_ibl_add         7100ef70 f   fragment.obj
 0001:0000e030       _hashtable_ibl_check_size  7100f030 f   fragment.obj
 0001:0000e2d0       _hashtable_ibl_groom_helper 7100f2d0 f   fragment.obj
 0001:0000e300       _hashtable_ibl_init_internal 7100f300 f   fragment.obj
 0001:0000e4a0       _hashtable_ibl_lookup      7100f4a0 f   fragment.obj
 0001:0000e520       _hashtable_ibl_lookup_for_removal 7100f520 f   fragment.obj
 0001:0000e5c0       _hashtable_ibl_myfree      7100f5c0 f   fragment.obj
 0001:0000e630       _hashtable_ibl_myinit      7100f630 f   fragment.obj
 0001:0000e6d0       _hashtable_ibl_range_remove 7100f6d0 f   fragment.obj
 0001:0000e760       _hashtable_ibl_remove_helper 7100f760 f   fragment.obj
 0001:0000e880       _hashtable_ibl_resized_custom 7100f880 f   fragment.obj
 0001:0000eaa0       _hashtable_ibl_unlinked_remove 7100faa0 f   fragment.obj
 0001:0000ec60       _init_trace_file           7100fc60 f   fragment.obj
 0001:0000ed60       _output_trace              7100fd60 f   fragment.obj
 0001:0000f070       _output_trace_binary       71010070 f   fragment.obj
 0001:0000f5c0       _pclookup_last_free        710105c0 f   fragment.obj
 0001:0000f5e0       _process_client_flush_requests 710105e0 f   fragment.obj
 0001:0000f6a0       _study_and_free_coarse_htable 710106a0 f   fragment.obj
 0001:0000f850       _update_all_private_ibt_table_ptrs 71010850 f   fragment.obj
 0001:0000f970       _update_indirect_exit_stubs_from_table 71010970 f   fragment.obj
 0001:0000fa60       _update_private_ibt_table_ptrs 71010a60 f   fragment.obj
 0001:0000fb10       _update_private_ptr_to_shared_ibt_table 71010b10 f   fragment.obj
 0001:0000fc50       _add_fragment_common       71010c50 f   fcache.obj
 0001:0000fee0       _add_to_free_list          71010ee0 f   fcache.obj
 0001:00010040       _append_units_to_free_list 71011040 f   fcache.obj
 0001:000100f0       _cache_extend_commitment   710110f0 f   fcache.obj
 0001:00010170       _chain_fragments_for_flush 71011170 f   fcache.obj
 0001:00010310       _check_regen_replace_ratio 71011310 f   fcache.obj
 0001:000103f0       _extend_unit_end           710113f0 f   fcache.obj
 0001:00010660       _fcache_cache_free         71011660 f   fcache.obj
 0001:00010a40       _fcache_cache_init         71011a40 f   fcache.obj
 0001:00011290       _fcache_create_unit        71012290 f   fcache.obj
 0001:00011ea0       _fcache_free_unit          71012ea0 f   fcache.obj
 0001:00012120       _fcache_increase_size      71013120 f   fcache.obj
 0001:00012820       _fcache_really_free_unit   71013820 f   fcache.obj
 0001:00012d90       _fcache_reset_free         71013d90 f   fcache.obj
 0001:00012e90       _fcache_reset_init         71013e90 f   fcache.obj
 0001:000136e0       _fcache_shift_fragments    710146e0 f   fcache.obj
 0001:00013980       _fcache_thread_reset_free  71014980 f   fcache.obj
 0001:00013a00       _fcache_unit_profile_stop  71014a00 f   fcache.obj
 0001:00013ad0       _fifo_append               71014ad0 f   fcache.obj
 0001:00013bd0       _fifo_prepend_empty        71014bd0 f   fcache.obj
 0001:00013dc0       _fifo_remove               71014dc0 f   fcache.obj
 0001:00013ef0       _find_free_list_bucket     71014ef0 f   fcache.obj
 0001:00013f10       _find_free_list_slot       71014f10 f   fcache.obj
 0001:00014130       _place_fragment            71015130 f   fcache.obj
 0001:00014230       _remove_from_free_list     71015230 f   fcache.obj
 0001:00014280       _replace_fifo              71015280 f   fcache.obj
 0001:00014350       _replace_fragments         71015350 f   fcache.obj
 0001:00014930       _try_for_more_space        71015930 f   fcache.obj
 0001:00014b50       _add_incoming              71015b50 f   link.obj
 0001:00014be0       _add_private_check_shared  71015be0 f   link.obj
 0001:00015030       _coarse_link_direct        71016030 f   link.obj
 0001:00015290       _coarse_link_to_fine       71016290 f   link.obj
 0001:00015360       _coarse_remove_incoming    71016360 f   link.obj
 0001:000156b0       _coarse_stubs_iterator_start 710166b0 f   link.obj
 0001:000161f0       _incoming_find_link        710171f0 f   link.obj
 0001:00016540       _incoming_remove_link_search 71017540 f   link.obj
 0001:000166e0       _is_special_ibl_linkstub   710176e0 f   link.obj
 0001:000168f0       _link_branch               710178f0 f   link.obj
 0001:00016eb0       _link_new_coarse_grain_fragment 71017eb0 f   link.obj
 0001:00017b90       _separate_stub_free        71018b90 f   link.obj
 0001:00018710       _unlink_branch             71019710 f   link.obj
 0001:00019120       _dispatch_enter_dynamorio  7101a120 f   dispatch.obj
 0001:000199c0       _dispatch_enter_fcache     7101a9c0 f   dispatch.obj
 0001:00019cf0       _dispatch_enter_native     7101acf0 f   dispatch.obj
 0001:0001a230       _dispatch_exit_fcache      7101b230 f   dispatch.obj
 0001:0001a410       _dispatch_exit_fcache_stats 7101b410 f   dispatch.obj
 0001:0001ac80       _exited_due_to_ni_syscall  7101bc80 f   dispatch.obj
 0001:0001b350       _emit_fragment_common      7101c350 f   emit.obj
 0001:0001c180       _MD5Transform              7101d180 f   utils.obj
 0001:0001ca00       _bitmap_find_set_block     7101da00 f   utils.obj
 0001:0001cb10       _check_filter_common       7101db10 f   utils.obj
 0001:0001dbc0       _do_syslog                 7101ebc0 f   utils.obj
 0001:0001ddf0       _dump_buffer_as_ascii      7101edf0 f   utils.obj
 0001:0001fcd0       _vprint_to_buffer          71020cd0 f   utils.obj
 0001:0001fde0       _config_read               71020de0 f   config.obj
 0001:00020380       _read_config_file          71021380 f   config.obj
 0001:00020650       _set_config_from_env       71021650 f   config.obj
 0001:00020730       _kstat_calibrate           71021730 f   stats.obj
 0001:00020d90       _kstat_init_variables      71021d90 f   stats.obj
 0001:00021460       _kstat_merge               71022460 f   stats.obj
 0001:00021890       _kstat_merge_var           71022890 f   stats.obj
 0001:00021900       _kstat_print_individual    71022900 f   stats.obj
 0001:000219c0       _kstat_report              710229c0 f   stats.obj
 0001:00022510       _kstats_evaluate_expressions 71023510 f   stats.obj
 0001:00022730       _account_for_memory        71023730 f   heap.obj
 0001:00022ba0       _at_reset_at_vmm_limit     71023ba0 f   heap.obj
 0001:00022be0       _common_global_heap_alloc  71023be0 f   heap.obj
 0001:00022c40       _common_heap_alloc         71023c40 f   heap.obj
 0001:00022eb0       _common_heap_extend_commitment 71023eb0 f   heap.obj
 0001:00022f90       _common_heap_free          71023f90 f   heap.obj
 0001:00023630       _extend_commitment         71024630 f   heap.obj
 0001:000236b0       _get_guarded_real_memory   710246b0 f   heap.obj
 0001:00023c50       _heap_create_unit          71024c50 f   heap.obj
 0001:00023ec0       _heap_free_unit            71024ec0 f   heap.obj
 0001:00024060       _heap_low_on_memory        71025060 f   heap.obj
 0001:000249d0       _heap_unit_extend_commitment 710259d0 f   heap.obj
 0001:000251e0       _protect_threadunits       710261e0 f   heap.obj
 0001:00025220       _reached_beyond_vmm        71026220 f   heap.obj
 0001:000252f0       _release_guarded_real_memory 710262f0 f   heap.obj
 0001:000253b0       _release_memory_and_update_areas 710263b0 f   heap.obj
 0001:00025450       _report_low_on_memory      71026450 f   heap.obj
 0001:000255b8       $LN27                      710265b8     heap.obj
 0001:000255e0       _safe_to_allocate_or_free_heap_units 710265e0 f   heap.obj
 0001:000258f0       _special_heap_create_unit  710268f0 f   heap.obj
 0001:00025e10       _special_heap_get_executable_addr 71026e10 f   heap.obj
 0001:00025ea0       _special_heap_init_internal 71026ea0 f   heap.obj
 0001:000263e0       _threadunits_exit          710273e0 f   heap.obj
 0001:00026610       _update_dynamo_areas_on_release 71027610 f   heap.obj
 0001:000267b0       _vmh_exit                  710277b0 f   heap.obj
 0001:00026850       _vmm_heap_commit           71027850 f   heap.obj
 0001:00026ae0       _vmm_heap_free             71027ae0 f   heap.obj
 0001:00026bc0       _vmm_heap_free_blocks      71027bc0 f   heap.obj
 0001:00026cc0       _vmm_heap_reserve          71027cc0 f   heap.obj
 0001:00026f70       _vmm_heap_reserve_blocks   71027f70 f   heap.obj
 0001:00027090       _vmm_heap_unit_init        71028090 f   heap.obj
 0001:000273e0       _vmm_is_reserved_unit      710283e0 f   heap.obj
 0001:00027420       _vmm_update_block_stats    71028420 f   heap.obj
 0001:000278e0       _check_for_trace_head      710288e0 f   monitor.obj
 0001:00027950       _create_private_copy       71028950 f   monitor.obj
 0001:00027cc0       _delete_private_copy       71028cc0 f   monitor.obj
 0001:00027d20       _end_and_emit_trace        71028d20 f   monitor.obj
 0001:00028150       _extend_unmangled_ilist    71029150 f   monitor.obj
 0001:000282f0       _get_and_check_add_size    710292f0 f   monitor.obj
 0001:000283a0       _internal_extend_trace     710293a0 f   monitor.obj
 0001:00028590       _internal_restore_last     71029590 f   monitor.obj
 0001:00028690       _make_room_in_trace_buffer 71029690 f   monitor.obj
 0001:00029b30       _reset_trace_state         7102ab30 f   monitor.obj
 0001:00029c80       _should_be_trace_head_internal 7102ac80 f   monitor.obj
 0001:00029d40       _should_be_trace_head_internal_unsafe 7102ad40 f   monitor.obj
 0001:00029d80       _thcounter_add             7102ad80 f   monitor.obj
 0001:00029df0       _thcounter_free            7102adf0 f   monitor.obj
 0001:00029ef0       _trace_exit_stub_size_diff 7102aef0 f   monitor.obj
 0001:0002a200       _add_executable_vm_area    7102b200 f   vmareas.obj
 0001:0002a370       _add_executable_vm_area_check_IAT 7102b370 f   vmareas.obj
 0001:0002a540       _add_executable_vm_area_helper 7102b540 f   vmareas.obj
 0001:0002a740       _add_to_pending_list       7102b740 f   vmareas.obj
 0001:0002a7b0       _add_vm_area               7102b7b0 f   vmareas.obj
 0001:0002ac60       _add_written_area          7102bc60 f   vmareas.obj
 0001:0002adf0       _allow_xfer_for_frag_flags 7102bdf0 f   vmareas.obj
 0001:0002b150       _app_memory_protection_change_internal 7102c150 f   vmareas.obj
 0001:0002b7b0       _check_lazy_deletion_list  7102c7b0 f   vmareas.obj
 0001:0002c4a0       _coarse_region_should_persist 7102d4a0 f   vmareas.obj
 0001:0002c670       _dynamo_vm_areas_start_reading 7102d670 f   vmareas.obj
 0001:0002c9f0       _executable_areas_match_flags 7102d9f0 f   vmareas.obj
 0001:0002cc50       _flush_and_remove_executable_vm_area 7102dc50 f   vmareas.obj
 0001:0002cd00       _free_written_area         7102dd00 f   vmareas.obj
 0001:0002cd20       _get_coarse_info_internal  7102dd20 f   vmareas.obj
 0001:0002d7c0       _is_executable_area_on_all_selfmod_pages 7102e7c0 f   vmareas.obj
 0001:0002d8e0       _is_on_stack               7102e8e0 f   vmareas.obj
 0001:0002da70       _lookup_addr               7102ea70 f   vmareas.obj
 0001:0002dbd0       _prepend_entry_to_fraglist 7102ebd0 f   vmareas.obj
 0001:0002dc60       _prepend_fraglist          7102ec60 f   vmareas.obj
 0001:0002dda0       _print_vm_areas            7102eda0 f   vmareas.obj
 0001:0002e2d0       _remove_executable_vm_area 7102f2d0 f   vmareas.obj
 0001:0002e330       _remove_fraglist_entry     7102f330 f   vmareas.obj
 0001:0002e560       _remove_shared_vmlist      7102f560 f   vmareas.obj
 0001:0002e740       _remove_vm_area            7102f740 f   vmareas.obj
 0001:0002f970       _vm_area_clean_fraglist    71030970 f   vmareas.obj
 0001:0002fac0       _vm_area_coarse_region_freeze 71030ac0 f   vmareas.obj
 0001:00030010       _vm_area_load_coarse_unit  71031010 f   vmareas.obj
 0001:000300d0       _vm_area_overlap           710310d0 f   vmareas.obj
 0001:00030f80       _vm_make_unwritable        71031f80 f   vmareas.obj
 0001:00030fc0       _vm_make_writable          71031fc0 f   vmareas.obj
 0001:00031160       _vmvector_free_vector      71032160 f   vmareas.obj
 0001:00031a90       _hashtable_generic_add     71032a90 f   hashtable.obj
 0001:00031b20       _hashtable_generic_check_size 71032b20 f   hashtable.obj
 0001:00031d90       _hashtable_generic_groom_helper 71032d90 f   hashtable.obj
 0001:00031dc0       _hashtable_generic_init    71032dc0 f   hashtable.obj
 0001:00031e30       _hashtable_generic_init_internal 71032e30 f   hashtable.obj
 0001:00031e30       _hashtable_strhash_init_internal 71032e30 f   hashtable.obj
 0001:00031f30       _hashtable_generic_lookup  71032f30 f   hashtable.obj
 0001:00031fa0       _hashtable_generic_lookup_for_removal 71032fa0 f   hashtable.obj
 0001:00032040       _hashtable_generic_range_remove 71033040 f   hashtable.obj
 0001:00032100       _hashtable_generic_remove_helper 71033100 f   hashtable.obj
 0001:00032100       _hashtable_strhash_remove_helper 71033100 f   hashtable.obj
 0001:00032210       _hashtable_strhash_add     71033210 f   hashtable.obj
 0001:000322a0       _hashtable_strhash_check_size 710332a0 f   hashtable.obj
 0001:000324f0       _hashtable_strhash_groom_table 710334f0 f   hashtable.obj
 0001:00032580       _hashtable_strhash_lookup  71033580 f   hashtable.obj
 0001:000333a0       _os_module_set_flag_value  710343a0 f   module_list.obj
 0001:000335c0       _moduledb_update_exempt_list 710345c0 f   moduledb.obj
 0001:00033720       _coarse_merge_process_stub 71034720 f   perscache.obj
 0001:00033960       _coarse_merge_update_jmps  71034960 f   perscache.obj
 0001:00033b90       _coarse_merge_without_dups 71034b90 f   perscache.obj
 0001:00034050       _coarse_replace_unit       71035050 f   perscache.obj
 0001:000341b0       _coarse_unit_calculate_persist_info 710351b0 f   perscache.obj
 0001:00035130       _coarse_unit_mark_primary  71036130 f   perscache.obj
 0001:000355a0       _coarse_unit_merge_with_disk 710365a0 f   perscache.obj
 0001:00036080       _coarse_unit_reset_free_internal 71037080 f   perscache.obj
 0001:000361b0       _coarse_unit_set_persist_data 710371b0 f   perscache.obj
 0001:00036430       _coarse_unit_shift_jmps_internal 71037430 f   perscache.obj
 0001:00036bd0       _get_persist_dir           71037bd0 f   perscache.obj
 0001:00036cd0       _get_persist_filename      71037cd0 f   perscache.obj
 0001:00036ed0       _get_unique_name           71037ed0 f   perscache.obj
 0001:00036f80       _pad_persist_file          71037f80 f   perscache.obj
 0001:00037180       _persist_calculate_module_digest 71038180 f   perscache.obj
 0001:00037210       _persist_calculate_self_digest 71038210 f   perscache.obj
 0001:00037290       _persist_record_base_mismatch 71038290 f   perscache.obj
 0001:000372c0       _push_pending_freeze       710382c0 f   perscache.obj
 0001:00037a70       _nudge_terminate_on_dstack 71038a70 f   nudge.obj
 0001:00038480       _is_native_thread_state_valid 71039480 f   synch.obj
 0001:000388a0       _should_suspend_client_thread 710398a0 f   synch.obj
 0001:00038960       _synch_thread_free_setcontext 71039960 f   synch.obj
 0001:000396c0       _waiting_at_safe_spot      7103a6c0 f   synch.obj
 0001:00039ca0       _pathcmp                   7103aca0 f   loader_shared.obj
 0001:00039d30       _privload_add_subdir_path  7103ad30 f   loader_shared.obj
 0001:0003a0e0       _privload_load_finalize    7103b0e0 f   loader_shared.obj
 0001:0003a150       _privload_load_process     7103b150 f   loader_shared.obj
 0001:0003a440       _privload_read_drpath_file 7103b440 f   loader_shared.obj
 0001:0003b248       $LN237                     7103c248     io.obj
 0001:0003b274       $LN236                     7103c274     io.obj
 0001:0003b2d0       _d_r_vsnprintf_float       7103c2d0 f   io.obj
 0001:0003b560       _d_r_vsnprintf_float_wide  7103c560 f   io.obj
 0001:0003c0dc       $LN238                     7103d0dc     io.obj
 0001:0003c108       $LN237                     7103d108     io.obj
 0001:0003c6f0       $LN287                     7103d6f0     io.obj
 0001:0003c728       $LN286                     7103d728     io.obj
 0001:0003c7a0       _double_to_str             7103d7a0 f   io.obj
 0001:0003c9f0       _double_to_str_wide        7103d9f0 f   io.obj
 0001:0003cc90       _in_charset_helper         7103dc90 f   io.obj
 0001:0003cce0       _uint64_to_str             7103dce0 f   io.obj
 0001:0003cdb0       _uint64_to_str_wide        7103ddb0 f   io.obj
 0001:0003cea0       _ulong_to_str              7103dea0 f   io.obj
 0001:0003cf30       _ulong_to_str_wide         7103df30 f   io.obj
 0001:0003cfd0       _utf16_to_utf8             7103dfd0 f   io.obj
 0001:0003d2a0       _utf8_to_utf16             7103e2a0 f   io.obj
 0001:0003d4a0       _back_from_native_common   7103e4a0 f   native_exec.obj
 0001:0003d5d0       _check_and_mark_native_exec 7103e5d0 f   native_exec.obj
 0001:0003d6c0       _entering_native           7103e6c0 f   native_exec.obj
 0001:0003db50       _add_callback              7103eb50 f   instrument.obj
 0001:0003dc30       _cleanup_after_call_ex     7103ec30 f   instrument.obj
 0001:0003dd90       _convert_va_list_to_opnd   7103ed90 f   instrument.obj
 0001:0003ef00       $LN28                      7103ff00     instrument.obj
 0001:0003ef3c       $LN27                      7103ff3c     instrument.obj
 0001:0003f410       _dr_insert_cbr_instrumentation_help 71040410 f   instrument.obj
 0001:00044290       _dr_write_to_console       71045290 f   instrument.obj
 0001:00044340       _dr_write_to_console_varg  71045340 f   instrument.obj
 0001:00044380       _free_all_callback_lists   71045380 f   instrument.obj
 0001:00044a90       _init_client_aux_libs      71045a90 f   instrument.obj
 0001:000478b0       _raw_mem_alloc             710488b0 f   instrument.obj
 0001:00047a50       _raw_mem_free              71048a50 f   instrument.obj
 0001:00047b80       _remove_callback           71048b80 f   instrument.obj
 0001:00047dc0       _create_and_initialize_module_data 71048dc0 f   module_api.obj
 0001:000487d0       _recreate_app_state_from_ilist 710497d0 f   translate.obj
 0001:000489c0       _recreate_app_state_from_info 710499c0 f   translate.obj
 0001:00048c20       _recreate_app_state_internal 71049c20 f   translate.obj
 0001:00049330       _recreate_selfmod_ilist    7104a330 f   translate.obj
 0001:000493b0       _translate_walk_init       7104a3b0 f   translate.obj
 0001:00049430       _translate_walk_restore    7104a430 f   translate.obj
 0001:00049500       _translate_walk_track_post_instr 7104a500 f   translate.obj
 0001:00049750       _translate_walk_track_pre_instr 7104a750 f   translate.obj
 0001:00049f10       _free_annotation_handler   7104af10 f   annotations.obj
 0001:00049f80       _handle_vg_annotation      7104af80 f   annotations.obj
 0001:0004a560       _valgrind_running_on_valgrind 7104b560 f   annotations.obj
 0001:0004a570       _annotation_manage_code_area 7104b570 f   jit_opt.obj
 0001:0004a580       _annotation_unmanage_code_area 7104b580 f   jit_opt.obj
 0001:0004a610       _fragment_tree_delete      7104b610 f   jit_opt.obj
 0001:0004a8f0       _fragment_tree_insert      7104b8f0 f   jit_opt.obj
 0001:0004aa40       _fragment_tree_overlap_lookup 7104ba40 f   jit_opt.obj
 0001:0004aa80       _fragment_tree_rotate_left 7104ba80 f   jit_opt.obj
 0001:0004ab30       _fragment_tree_rotate_right 7104bb30 f   jit_opt.obj
 0001:0004aea0       _arch_extract_profile      7104bea0 f   arch.obj
 0001:0004b9b0       _check_size_and_cache_line 7104c9b0 f   arch.obj
 0001:0004c210       _emit_ibl_routines         7104d210 f   arch.obj
 0001:0004c740       _get_emitted_routines_code 7104d740 f   arch.obj
 0001:0004c920       _get_ibl_routine_code_internal 7104d920 f   arch.obj
 0001:0004c9d4       $LN14                      7104d9d4     arch.obj
 0001:0004ca3c       $LN13                      7104da3c     arch.obj
 0001:0004cbfc       $LN47                      7104dbfc     arch.obj
 0001:0004d454       $LN9                       7104e454     arch.obj
 0001:0004d4a0       _shared_gencode_emit       7104e4a0 f   arch.obj
 0001:0004d6c0       _shared_gencode_init       7104e6c0 f   arch.obj
 0001:0004f5a0       _emit_dispatch_template    710505a0 f   emit_utils_shared.obj
 0001:00050b60       _emit_special_ibl_xfer     71051b60 f   emit_utils_shared.obj
 0001:00051490       _ibltype_to_linktype       71052490 f   emit_utils_shared.obj
 0001:00051620       _insert_restore_target_from_dc 71052620 f   emit_utils_shared.obj
 0001:00051b40       _is_patchable_exit_stub_helper 71052b40 f   emit_utils_shared.obj
 0001:00052210       _patch_coarse_branch       71053210 f   emit_utils_shared.obj
 0001:00052300       _patch_emitted_code        71053300 f   emit_utils_shared.obj
 0001:00053150       _use_addr_prefix_on_short_disp 71054150 f   disassemble_shared.obj
 0001:00053150       _use_addr_prefix_on_short_disp 71054150 f   emit_utils.obj
 0001:00053150       _use_addr_prefix_on_short_disp 71054150 f   emit_utils_shared.obj
 0001:00053150       _use_addr_prefix_on_short_disp 71054150 f   encode.obj
 0001:0005664c       $LN15                      7105764c     emit_utils.obj
 0001:00056cf0       _insert_inlined_ibl        71057cf0 f   emit_utils.obj
 0001:00056f00       _insert_jmp_to_ibl         71057f00 f   emit_utils.obj
 0001:00057210       _insert_restore_register   71058210 f   emit_utils.obj
 0001:00057b70       _dcontext_opnd_common      71058b70 f   opnd_shared.obj
 0001:00058684       $LN42                      71059684     opnd_shared.obj
 0001:00058694       $LN41                      71059694     opnd_shared.obj
 0001:0005881c       $LN39                      7105981c     opnd_shared.obj
 0001:0005882c       $LN38                      7105982c     opnd_shared.obj
 0001:000588c8       $LN20                      710598c8     opnd_shared.obj
 0001:000588dc       $LN19                      710598dc     opnd_shared.obj
 0001:00058c80       $LN20                      71059c80     opnd_shared.obj
 0001:00058c8c       $LN19                      71059c8c     opnd_shared.obj
 0001:00058e6c       $LN32                      71059e6c     opnd_shared.obj
 0001:00058e78       $LN31                      71059e78     opnd_shared.obj
 0001:000590fc       $LN28                      7105a0fc     opnd_shared.obj
 0001:00059108       $LN27                      7105a108     opnd_shared.obj
 0001:000592e4       $LN35                      7105a2e4     opnd_shared.obj
 0001:00059448       $LN12                      7105a448     opnd_shared.obj
 0001:00059450       $LN11                      7105a450     opnd_shared.obj
 0001:00059538       $LN22                      7105a538     opnd_shared.obj
 0001:00059544       $LN21                      7105a544     opnd_shared.obj
 0001:00059640       $LN50                      7105a640     opnd_shared.obj
 0001:00059650       $LN49                      7105a650     opnd_shared.obj
 0001:0005965c       $LN52                      7105a65c     opnd_shared.obj
 0001:00059664       $LN51                      7105a664     opnd_shared.obj
 0001:0005974c       $LN50                      7105a74c     opnd_shared.obj
 0001:000597f4       $LN49                      7105a7f4     opnd_shared.obj
 0001:00059904       $LN19                      7105a904     opnd_shared.obj
 0001:00059a84       $LN109                     7105aa84     opnd_shared.obj
 0001:00059b30       $LN108                     7105ab30     opnd_shared.obj
 0001:00059c48       $LN23                      7105ac48     opnd_shared.obj
 0001:00059c54       $LN22                      7105ac54     opnd_shared.obj
 0001:0005a120       _reg_match_size_and_type   7105b120 f   opnd_shared.obj
 0001:0005a510       $LN14                      7105b510     opnd.obj
 0001:0005a578       $LN14                      7105b578     opnd.obj
 0001:0005a7a0       _instr_check_mcontext_spill_restore 7105b7a0 f   instr_shared.obj
 0001:0005a950       _instr_check_tls_spill_restore 7105b950 f   instr_shared.obj
 0001:0005acc0       _instr_compute_address_helper 7105bcc0 f   instr_shared.obj
 0001:0005ee80       _instr_has_rip_rel_instr_operand 7105fe80 f   instr_shared.obj
 0001:00061100       _private_instr_encode      71062100 f   instr_shared.obj
 0001:00061288       $LN55                      71062288     instr.obj
 0001:000612ac       $LN54                      710622ac     instr.obj
 0001:00061408       $LN22                      71062408     instr.obj
 0001:00061484       $LN16                      71062484     instr.obj
 0001:000614e0       _instr_compute_VSIB_index  710624e0 f   instr.obj
 0001:00061824       $LN69                      71062824     instr.obj
 0001:00061844       $LN71                      71062844     instr.obj
 0001:00061858       $LN70                      71062858     instr.obj
 0001:00061e60       _instr_has_xmm_opnd        71062e60 f   instr.obj
 0001:00062164       $LN52                      71063164     instr.obj
 0001:000621e8       $LN51                      710631e8     instr.obj
 0001:00062590       $LN408                     71063590     instr.obj
 0001:000625a4       $LN407                     710635a4     instr.obj
 0001:000629f0       $LN15                      710639f0     instr.obj
 0001:000629f4       $LN14                      710639f4     instr.obj
 0001:00062ff0       $LN60                      71063ff0     instr.obj
 0001:00062ff4       $LN59                      71063ff4     instr.obj
 0001:00063130       $LN15                      71064130     instr.obj
 0001:00063138       $LN14                      71064138     instr.obj
 0001:000631f4       $LN77                      710641f4     instr.obj
 0001:000631fc       $LN76                      710641fc     instr.obj
 0001:0006328c       $LN79                      7106428c     instr.obj
 0001:00063294       $LN78                      71064294     instr.obj
 0001:00063378       $LN80                      71064378     instr.obj
 0001:00063380       $LN79                      71064380     instr.obj
 0001:00063438       $LN82                      71064438     instr.obj
 0001:00063440       $LN81                      71064440     instr.obj
 0001:000638dc       $LN57                      710648dc     instr.obj
 0001:000638f8       $LN56                      710648f8     instr.obj
 0001:00063c90       _opc_jcc_taken             71064c90 f   instr.obj
 0001:00063d80       $LN43                      71064d80     instr.obj
 0001:00063dc4       $LN42                      71064dc4     instr.obj
 0001:00063e60       _opcode_is_mmx             71064e60 f   instr.obj
 0001:00063e84       $LN54                      71064e84     instr.obj
 0001:00063e8c       $LN53                      71064e8c     instr.obj
 0001:00063f10       _opcode_is_widened_in_sse2 71064f10 f   instr.obj
 0001:00063f4c       $LN20                      71064f4c     instr.obj
 0001:00063f54       $LN19                      71064f54     instr.obj
 0001:00064cc0       _decode_common             71065cc0 f   decode.obj
 0001:00064ffc       $LN72                      71065ffc     decode.obj
 0001:00065004       $LN71                      71066004     decode.obj
 0001:0006531c       $LN118                     7106631c     decode.obj
 0001:000653b0       _decode_modrm              710663b0 f   decode.obj
 0001:00065c6c       $LN496                     71066c6c     decode.obj
 0001:00065c8c       $LN495                     71066c8c     decode.obj
 0001:00065cc8       $LN498                     71066cc8     decode.obj
 0001:00065ce0       $LN497                     71066ce0     decode.obj
 0001:00065cf4       $LN500                     71066cf4     decode.obj
 0001:00065d14       $LN499                     71066d14     decode.obj
 0001:00065d50       $LN502                     71066d50     decode.obj
 0001:00065d68       $LN501                     71066d68     decode.obj
 0001:00065d7c       $LN504                     71066d7c     decode.obj
 0001:00065d94       $LN503                     71066d94     decode.obj
 0001:00065da8       $LN506                     71066da8     decode.obj
 0001:00065dc8       $LN505                     71066dc8     decode.obj
 0001:00065e04       $LN508                     71066e04     decode.obj
 0001:00065e1c       $LN507                     71066e1c     decode.obj
 0001:00065e30       $LN509                     71066e30     decode.obj
 0001:00065e50       $LN511                     71066e50     decode.obj
 0001:00065e68       $LN510                     71066e68     decode.obj
 0001:00065f30       _decode_operand            71066f30 f   decode.obj
 0001:00067424       $LN1009                    71068424     decode.obj
 0001:000674a0       $LN1008                    710684a0     decode.obj
 0001:000674dc       $LN1010                    710684dc     decode.obj
 0001:00067508       $LN1011                    71068508     decode.obj
 0001:0006751c       $LN1013                    7106851c     decode.obj
 0001:0006753c       $LN1012                    7106853c     decode.obj
 0001:00067578       $LN1015                    71068578     decode.obj
 0001:00067590       $LN1014                    71068590     decode.obj
 0001:000675a4       $LN1017                    710685a4     decode.obj
 0001:000675c4       $LN1016                    710685c4     decode.obj
 0001:00067600       $LN1019                    71068600     decode.obj
 0001:00067618       $LN1018                    71068618     decode.obj
 0001:0006762c       $LN1021                    7106862c     decode.obj
 0001:0006764c       $LN1020                    7106864c     decode.obj
 0001:00067688       $LN1023                    71068688     decode.obj
 0001:000676a0       $LN1022                    710686a0     decode.obj
 0001:000676b4       $LN1025                    710686b4     decode.obj
 0001:000676d4       $LN1024                    710686d4     decode.obj
 0001:00067710       $LN1027                    71068710     decode.obj
 0001:00067728       $LN1026                    71068728     decode.obj
 0001:0006773c       $LN1029                    7106873c     decode.obj
 0001:0006775c       $LN1028                    7106875c     decode.obj
 0001:00067798       $LN1031                    71068798     decode.obj
 0001:000677b0       $LN1030                    710687b0     decode.obj
 0001:000677c4       $LN1033                    710687c4     decode.obj
 0001:000677e4       $LN1032                    710687e4     decode.obj
 0001:00067820       $LN1035                    71068820     decode.obj
 0001:00067838       $LN1034                    71068838     decode.obj
 0001:0006784c       $LN1037                    7106884c     decode.obj
 0001:0006786c       $LN1036                    7106886c     decode.obj
 0001:000678a8       $LN1039                    710688a8     decode.obj
 0001:000678c0       $LN1038                    710688c0     decode.obj
 0001:000678d4       $LN1041                    710688d4     decode.obj
 0001:000678f4       $LN1040                    710688f4     decode.obj
 0001:00067930       $LN1043                    71068930     decode.obj
 0001:00067948       $LN1042                    71068948     decode.obj
 0001:0006795c       $LN1045                    7106895c     decode.obj
 0001:0006797c       $LN1044                    7106897c     decode.obj
 0001:000679b8       $LN1047                    710689b8     decode.obj
 0001:000679d0       $LN1046                    710689d0     decode.obj
 0001:00067a50       _ds_seg                    71068a50 f   decode.obj
 0001:00067abc       $LN26                      71068abc     decode.obj
 0001:00067ae8       $LN25                      71068ae8     decode.obj
 0001:00067b40       _get_immed                 71068b40 f   decode.obj
 0001:00067b90       $LN10                      71068b90     decode.obj
 0001:00067be4       $LN17                      71068be4     decode.obj
 0001:00067c54       $LN17                      71068c54     decode.obj
 0001:00067c58       $LN16                      71068c58     decode.obj
 0001:00067c70       _read_evex                 71068c70 f   decode.obj
 0001:00067df0       _read_immed                71068df0 f   decode.obj
 0001:00067e60       $LN10                      71068e60     decode.obj
 0001:00067e80       _read_instruction          71068e80 f   decode.obj
 0001:00068960       _read_operand              71069960 f   decode.obj
 0001:00068ae4       $LN26                      71069ae4     decode.obj
 0001:00068afc       $LN25                      71069afc     decode.obj
 0001:00068b10       _read_vex                  71069b10 f   decode.obj
 0001:00069054       $LN78                      7106a054     decode.obj
 0001:000690e0       $LN77                      7106a0e0     decode.obj
 0001:000692d0       _collapse_subreg_size      7106a2d0 f   encode.obj
 0001:00069318       $LN20                      7106a318     encode.obj
 0001:00069340       $LN19                      7106a340     encode.obj
 0001:000694d0       _encode_base_disp          7106a4d0 f   encode.obj
 0001:000697d4       $LN64                      7106a7d4     encode.obj
 0001:00069800       _encode_evex_prefixes      7106a800 f   encode.obj
 0001:00069930       _encode_immed              7106a930 f   encode.obj
 0001:00069a44       $LN19                      7106aa44     encode.obj
 0001:00069a60       _encode_operand            7106aa60 f   encode.obj
 0001:00069f1c       $LN99                      7106af1c     encode.obj
 0001:00069f54       $LN98                      7106af54     encode.obj
 0001:00069f90       _encode_vex_final_prefix_byte 7106af90 f   encode.obj
 0001:0006a060       _encoding_possible_pass    7106b060 f   encode.obj
 0001:0006c250       _get_mem_instr_addr        7106d250 f   encode.obj
 0001:0006cc50       $LN201                     7106dc50     encode.obj
 0001:0006cd20       _mem_size_ok               7106dd20 f   encode.obj
 0001:0006cf30       _opnd_needs_evex           7106df30 f   encode.obj
 0001:0006cfa0       _opnd_type_ok              7106dfa0 f   encode.obj
 0001:0006dcac       $LN744                     7106ecac     encode.obj
 0001:0006dd38       $LN743                     7106ed38     encode.obj
 0001:0006dd80       _reg_rm_selectable         7106ed80 f   encode.obj
 0001:0006ddd0       _reg_size_ok               7106edd0 f   encode.obj
 0001:0006dfe0       _resolve_var_x64_size      7106efe0 f   encode.obj
 0001:0006e014       $LN12                      7106f014     encode.obj
 0001:0006e028       $LN11                      7106f028     encode.obj
 0001:0006e070       _set_immed                 7106f070 f   encode.obj
 0001:0006e0a0       _size_ok                   7106f0a0 f   encode.obj
 0001:0006e3bc       $LN134                     7106f3bc     encode.obj
 0001:0006e400       $LN133                     7106f400     encode.obj
 0001:0006e470       _size_ok_varsz             7106f470 f   encode.obj
 0001:0006e6fc       $LN106                     7106f6fc     encode.obj
 0001:0006e74c       $LN105                     7106f74c     encode.obj
 0001:0006e7b0       _type_instr_uses_reg_bits  7106f7b0 f   encode.obj
 0001:0006e7d4       $LN14                      7106f7d4     encode.obj
 0001:0006e7dc       $LN13                      7106f7dc     encode.obj
 0001:0006e820       _type_uses_modrm_bits      7106f820 f   encode.obj
 0001:0006e844       $LN18                      7106f844     encode.obj
 0001:0006e84c       $LN17                      7106f84c     encode.obj
 0001:0006e880       _callstack_dump_module_info 7106f880 f   disassemble_shared.obj
 0001:0006e900       _common_disassemble_fragment 7106f900 f   disassemble_shared.obj
 0001:0006f5f0       _immed_prefix              710705f0 f   disassemble_shared.obj
 0001:0006f660       _instr_disassemble_opnds_noimplicit 71070660 f   disassemble_shared.obj
 0001:0006ff10       _internal_disassemble      71070f10 f   disassemble_shared.obj
 0001:00070060       _internal_dump_callstack_to_buffer 71071060 f   disassemble_shared.obj
 0001:00070260       _internal_instr_disassemble 71071260 f   disassemble_shared.obj
 0001:00070c54       $LN96                      71071c54     disassemble_shared.obj
 0001:00070c7c       $LN98                      71071c7c     disassemble_shared.obj
 0001:00070c88       $LN97                      71071c88     disassemble_shared.obj
 0001:00070c94       $LN100                     71071c94     disassemble_shared.obj
 0001:00070d38       $LN99                      71071d38     disassemble_shared.obj
 0001:00070dc0       _opnd_base_disp_disassemble 71071dc0 f   disassemble_shared.obj
 0001:000711f0       $LN71                      710721f0     disassemble_shared.obj
 0001:00071218       $LN70                      71072218     disassemble_shared.obj
 0001:000712d0       _print_known_pc_target     710722d0 f   disassemble_shared.obj
 0001:000717c0       _sign_extend_immed         710727c0 f   disassemble_shared.obj
 0001:00071a20       _instr_opcode_name_suffix  71072a20 f   disassemble.obj
 0001:00071ba8       $LN68                      71072ba8     disassemble.obj
 0001:00071bb8       $LN67                      71072bb8     disassemble.obj
 0001:00071bf8       $LN70                      71072bf8     disassemble.obj
 0001:00071bfc       $LN69                      71072bfc     disassemble.obj
 0001:00071d6c       $LN92                      71072d6c     disassemble.obj
 0001:00071d7c       $LN91                      71072d7c     disassemble.obj
 0001:00071db8       $LN94                      71072db8     disassemble.obj
 0001:00071dbc       $LN93                      71072dbc     disassemble.obj
 0001:00072050       $LN14                      71073050     disassemble.obj
 0001:00072060       $LN13                      71073060     disassemble.obj
 0001:000730bc       $LN180                     710740bc     decode_fast.obj
 0001:000730d4       $LN179                     710740d4     decode_fast.obj
 0001:00073138       $LN182                     71074138     decode_fast.obj
 0001:00073148       $LN181                     71074148     decode_fast.obj
 0001:00073514       $LN104                     71074514     decode_fast.obj
 0001:00073534       $LN103                     71074534     decode_fast.obj
 0001:00073610       _sizeof_escape             71074610 f   decode_fast.obj
 0001:000736b0       _sizeof_modrm              710746b0 f   decode_fast.obj
 0001:00073920       _at_native_exec_gateway    71074920 f   interp.obj
 0001:00073d50       _bb_process_convertible_indcall 71074d50 f   interp.obj
 0001:00074050       _bb_process_fs_ref         71075050 f   interp.obj
 0001:000741d0       _bb_process_invalid_instr  710751d0 f   interp.obj
 0001:00074240       _bb_process_syscall        71075240 f   interp.obj
 0001:00074b90       _build_bb_ilist            71075b90 f   interp.obj
 0001:00076750       _build_native_exec_bb      71077750 f   interp.obj
 0001:00076920       _check_new_page_contig     71077920 f   interp.obj
 0001:000769c0       _check_new_page_jmp        710779c0 f   interp.obj
 0001:00076ad0       _check_new_page_start      71077ad0 f   interp.obj
 0001:00076b40       _client_process_bb         71077b40 f   interp.obj
 0001:00077140       _create_exit_jmp           71078140 f   interp.obj
 0001:00077fd0       _eflags_analysis           71078fd0 f   interp.obj
 0001:00078270       _fixup_last_cti            71079270 f   interp.obj
 0001:000787a0       _init_interp_build_bb      710797a0 f   interp.obj
 0001:000788c0       _insert_restore_spilled_xcx 710798c0 f   interp.obj
 0001:00078980       _insert_transparent_comparison 71079980 f   interp.obj
 0001:00078da0       _instr_will_be_exit_cti    71079da0 f   interp.obj
 0001:00078e60       _is_targeting_convertible_IAT 71079e60 f   interp.obj
 0001:00078ef0       _leave_call_native         71079ef0 f   interp.obj
 0001:00078f20       _mangle_bb_ilist           71079f20 f   interp.obj
 0001:0007a1dc       $LN18                      7107b1dc     proc_shared.obj
 0001:0007a1f0       $LN17                      7107b1f0     proc_shared.obj
 0001:0007a3f0       _get_processor_specific_info 7107b3f0 f   proc.obj
 0001:0007a740       $LN101                     7107b740     proc.obj
 0001:0007a770       $LN100                     7107b770     proc.obj
 0001:0007d280       _insert_push_cs            7107e280 f   mangle.obj
 0001:0007dfa0       _mangle_far_direct_helper  7107efa0 f   mangle.obj
 0001:0007e0c0       _mangle_far_indirect_helper 7107f0c0 f   mangle.obj
 0001:0007e5e4       $LN70                      7107f5e4     mangle.obj
 0001:0007e5f0       $LN69                      7107f5f0     mangle.obj
 0001:0007f2a0       _sandbox_rep_instr         710802a0 f   mangle.obj
 0001:0007f900       _sandbox_top_of_bb         71080900 f   mangle.obj
 0001:00080190       _sandbox_write             71081190 f   mangle.obj
 0001:000807c0       _stack_entry_size          710817c0 f   mangle.obj
 0001:00080c50       _callee_info_free          71081c50 f   clean_call_opt_shared.obj
 0001:00080c80       _callee_info_init          71081c80 f   clean_call_opt_shared.obj
 0001:00080e50       _decode_callee_ilist       71081e50 f   clean_call_opt_shared.obj
 0001:00082ac0       _append_string             71083ac0 f   eventlog.obj
 0001:00082b90       _eventlog_alloc            71083b90 f   eventlog.obj
 0001:00083080       _eventlog_report           71084080 f   eventlog.obj
 0001:00083528       $LN26                      71084528     eventlog.obj
 0001:00083550       _prepend_header            71084550 f   eventlog.obj
 0001:000849d0       _dump_dll_profile          710859d0 f   os.obj
 0001:000855b8       $LN124                     710865b8     os.obj
 0001:000855cc       $LN123                     710865cc     os.obj
 0001:00085ba0       _get_dll_bounds            71086ba0 f   os.obj
 0001:00085e00       _get_nth_stack_frames_call_target 71086e00 f   os.obj
 0001:000860c0       _init_global_profiles      710870c0 f   os.obj
 0001:00086300       _inject_into_process       71087300 f   os.obj
 0001:0008653c       $LN52                      7108753c     os.obj
 0001:00086550       _internal_change_protection 71087550 f   os.obj
 0001:00086688       $LN53                      71087688     os.obj
 0001:00086694       $LN52                      71087694     os.obj
 0001:000866b4       $LN55                      710876b4     os.obj
 0001:000866c0       $LN54                      710876c0     os.obj
 0001:00086ad0       _match_mcontext_flags_to_context_flags 71087ad0 f   os.obj
 0001:000875b0       _os_dump_core_dump_thread  710885b0 f   os.obj
 0001:000877b0       _os_dump_core_live_dump    710887b0 f   os.obj
 0001:00087eb0       _os_dump_core_segment_info 71088eb0 f   os.obj
 0001:000892b0       _os_take_over_exit         7108a2b0 f   os.obj
 0001:000894b0       _os_take_over_thread       7108a4b0 f   os.obj
 0001:000897a0       _os_take_over_wow64_extra  7108a7a0 f   os.obj
 0001:00089e00       _os_terminate_static_arguments 7108ae00 f   os.obj
 0001:0008a660       _os_wait_event             7108b660 f   os.obj
 0001:0008ae70       _process_image             7108be70 f   os.obj
 0001:0008b0d0       _process_memory_region     7108c0d0 f   os.obj
 0001:0008b2a0       _prot_is_readable          7108c2a0 f   os.obj
 0001:0008b2cc       $LN13                      7108c2cc     os.obj
 0001:0008b2d4       $LN12                      7108c2d4     os.obj
 0001:0008b3f0       $LN14                      7108c3f0     os.obj
 0001:0008b414       $LN13                      7108c414     os.obj
 0001:0008b4e0       _query_memory_internal     7108c4e0 f   os.obj
 0001:0008b640       _read_version_registry_value 7108c640 f   os.obj
 0001:0008b8c0       _set_memtype_from_mbi      7108c8c0 f   os.obj
 0001:0008bb60       _takeover_table_entry_free 7108cb60 f   os.obj
 0001:0008bc90       _thread_attach_remove_from_table 7108cc90 f   os.obj
 0001:0008bcf0       _thread_attach_restore_full_state 7108ccf0 f   os.obj
 0001:0008cca0       _wow64_cases_win10         7108dca0 f   os.obj
 0001:0008cee0       _add_dr_env_vars           7108dee0 f   syscall.obj
 0001:0008d740       _get_process_env_var       7108e740 f   syscall.obj
 0001:0008d8b0       _handle_to_tid_lookup      7108e8b0 f   syscall.obj
 0001:0008d9f0       _intercept_native_syscall  7108e9f0 f   syscall.obj
 0001:0008eb90       _postsys_CreateUserProcess 7108fb90 f   syscall.obj
 0001:0008ed60       _postsys_GetContextThread  7108fd60 f   syscall.obj
 0001:0008f040       _postsys_OpenSection       71090040 f   syscall.obj
 0001:0008f220       _postsys_SuspendThread     71090220 f   syscall.obj
 0001:0008f4b0       _postsys_create_or_open_section 710904b0 f   syscall.obj
 0001:00090990       _pre_system_call_param_base 71091990 f   syscall.obj
 0001:00090a10       _presys_ProtectVirtualMemory 71091a10 f   syscall.obj
 0001:00090be0       _presys_ResumeThread       71091be0 f   syscall.obj
 0001:00090dd0       _presys_SetContextThread   71091dd0 f   syscall.obj
 0001:000910e0       _presys_TerminateProcess   710920e0 f   syscall.obj
 0001:000915f0       _presys_TerminateThread    710925f0 f   syscall.obj
 0001:00091b00       _propagate_options_via_env_vars 71092b00 f   syscall.obj
 0001:00091de0       _thread_handle_to_pid      71092de0 f   syscall.obj
 0001:00091e30       _thread_handle_to_tid      71092e30 f   syscall.obj
 0001:00091e50       _asynch_retakeover_if_native 71092e50 f   callback.obj
 0001:00091e70       _asynch_take_over          71092e70 f   callback.obj
 0001:00092690       _check_apc_context_offset  71093690 f   callback.obj
 0001:00092880       _check_for_modified_code   71093880 f   callback.obj
 0001:000929c0       _check_internal_exception  710939c0 f   callback.obj
 0001:00092c10       $LN36                      71093c10     callback.obj
 0001:00092c30       _clean_syscall_wrapper     71093c30 f   callback.obj
 0001:00093410       _client_exception_event    71094410 f   callback.obj
 0001:00093570       _emit_intercept_code       71094570 f   callback.obj
 0001:000953a0       _insert_image_entry_trampoline 710963a0 f   callback.obj
 0001:00095450       _insert_let_go_cleanup     71096450 f   callback.obj
 0001:00095a00       _instrument_dispatcher     71096a00 f   callback.obj
 0001:00095ab0       _intercept_apc             71096ab0 f   callback.obj
 0001:00095da0       _intercept_call            71096da0 f   callback.obj
 0001:000960b0       _intercept_callback_start  710970b0 f   callback.obj
 0001:000961e0       _intercept_exception       710971e0 f   callback.obj
 0001:00096850       _intercept_image_entry     71097850 f   callback.obj
 0001:00096980       _intercept_ldr_init        71097980 f   callback.obj
 0001:00096b20       _intercept_new_thread      71097b20 f   callback.obj
 0001:000970b0       _intercept_raise_exception 710980b0 f   callback.obj
 0001:000975c0       _internal_dynamo_exception 710985c0 f   callback.obj
 0001:00097b30       _map_intercept_pc_to_app_pc 71098b30 f   callback.obj
 0001:00097cf8       $LN17                      71098cf8     callback.obj
 0001:00097d10       _possible_new_thread_wait_for_dr_init 71098d10 f   callback.obj
 0001:00097dd0       _report_app_exception      71098dd0 f   callback.obj
 0001:00097f20       _swap_dcontexts            71098f20 f   callback.obj
 0001:00098010       _syscall_wrapper_ilist     71099010 f   callback.obj
 0001:00098880       _thread_attach_takeover_callee 71099880 f   callback.obj
 0001:000988a0       _un_intercept_call         710998a0 f   callback.obj
 0001:00098a10       _read_and_verify_dr_marker_common 71099a10 f   drmarker.obj
 0001:000990e0       _context_to_mcontext_internal 7109a0e0 f   ntdll.obj
 0001:00099470       _create_thread_common      7109a470 f   ntdll.obj
 0001:0009cf60       _our_create_thread_ex      7109df60 f   ntdll.obj
 0001:0009d720       _query_thread_info         7109e720 f   ntdll.obj
 0001:0009e5d0       _tls_alloc_helper          7109f5d0 f   ntdll.obj
 0001:0009e850       _tls_free_helper           7109f850 f   ntdll.obj
 0001:0009eb90       _inject_gencode_at_ldr     7109fb90 f   inject.obj
 0001:0009f0a0       _inject_gencode_mapped_helper 710a00a0 f   inject.obj
 0001:0009f92c       $LN57                      710a092c     inject.obj
 0001:000a0270       _get_process_parameter_ex  710a1270 f   inject_shared.obj
 0001:000a0390       _get_process_qualified_name 710a1390 f   inject_shared.obj
 0001:000a05f0       _get_registry_parameter    710a15f0 f   inject_shared.obj
 0001:000a0cf0       _ensure_section_readable   710a1cf0 f   module.obj
 0001:000a0e50       _get_all_module_short_names_uncached 710a1e50 f   module.obj
 0001:000a15b0       _get_module_resource_version_data 710a25b0 f   module.obj
 0001:000a1750       _get_module_resource_version_info 710a2750 f   module.obj
 0001:000a1d30       _get_resource_directory_entry_by_id 710a2d30 f   module.obj
 0001:000a1da0       _hide_from_module_lists    710a2da0 f   module.obj
 0001:000a1e80       _hide_from_rbtree          710a2e80 f   module.obj
 0001:000a21c0       _is_in_executable_file_section 710a31c0 f   module.obj
 0001:000a31a0       _module_pe_section_compare 710a41a0 f   module.obj
 0001:000a34b0       _module_region_compare     710a44b0 f   module.obj
 0001:000a34e0       _on_subset_of_pages        710a44e0 f   module.obj
 0001:000a3a70       _pe_symbol_import_iterator_next_module 710a4a70 f   module.obj
 0001:000a3ad0       _pe_symbol_import_iterator_read_thunk 710a4ad0 f   module.obj
 0001:000a3f50       _read_version_struct_header 710a4f50 f   module.obj
 0001:000a4090       _restore_unreadable_section 710a5090 f   module.obj
 0001:000a4150       _section_to_file_add_common 710a5150 f   module.obj
 0001:000a4210       _section_to_file_free      710a5210 f   module.obj
 0001:000a4840       _get_ldr_module_64         710a5840 f   module_shared.obj
 0001:000a4aa0       _get_module_exports_directory_check_common 710a5aa0 f   module_shared.obj
 0001:000a4dc0       _get_proc_address_common   710a5dc0 f   module_shared.obj
 0001:000a5760       _read64                    710a6760 f   module_shared.obj
 0001:000a57d0       _read_remote_maybe64       710a67d0 f   module_shared.obj
 0001:000a5a40       _diagnostics_log_data      710a6a40 f   diagnost.obj
 0001:000a5bf0       _print_memory_buffer       710a6bf0 f   diagnost.obj
 0001:000a5d00       _report_addr_info          710a6d00 f   diagnost.obj
 0001:000a5dc0       _report_current_process    710a6dc0 f   diagnost.obj
 0001:000a61b0       _report_dcontext_info      710a71b0 f   diagnost.obj
 0001:000a64f0       _report_diagnostics_common 710a74f0 f   diagnost.obj
 0001:000a6bc0       _report_registry_settings_helper 710a7bc0 f   diagnost.obj
 0001:000a6e10       _report_system_diagnostics 710a7e10 f   diagnost.obj
 0001:000a73a0       _aslr_generate_relocated_section 710a83a0 f   aslr.obj
 0001:000a7540       _aslr_get_file_digest      710a8540 f   aslr.obj
 0001:000a7610       _aslr_get_fitting_base     710a8610 f   aslr.obj
 0001:000a76b0       _aslr_get_next_base        710a86b0 f   aslr.obj
 0001:000a7b90       _aslr_module_verify_relocated_contents 710a8b90 f   aslr.obj
 0001:000a8450       _aslr_open_relocated_dll_file 710a9450 f   aslr.obj
 0001:000a8ea0       _aslr_produce_randomized_file 710a9ea0 f   aslr.obj
 0001:000a9150       _aslr_publish_section_handle 710aa150 f   aslr.obj
 0001:000a9360       _aslr_replace_section_handle 710aa360 f   aslr.obj
 0001:000a9470       _aslr_reserve_initial_heap_pad 710aa470 f   aslr.obj
 0001:000a9510       _aslr_subscribe_section_handle 710aa510 f   aslr.obj
 0001:000a9550       _aslr_update_view_size     710aa550 f   aslr.obj
 0001:000a95a0       _calculate_publish_name    710aa5a0 f   aslr.obj
 0001:000a97e0       _add_mod_to_drmarker       710aa7e0 f   loader.obj
 0001:000a98b0       _bootstrap_strcmp          710aa8b0 f   loader.obj
 0001:000a99e0       _map_api_set_dll           710aa9e0 f   loader.obj
 0001:000ab0c0       _privload_bootstrap_get_export 710ac0c0 f   loader.obj
 0001:000ab850       _privload_disable_console_init 710ac850 f   loader.obj
 0001:000abd30       _privload_lookup_locate_and_load 710acd30 f   loader.obj
 0001:000ac4a0       _privload_process_one_import 710ad4a0 f   loader.obj
 0001:000ac950       _swap_peb_pointer_ex       710ad950 f   loader.obj
 0001:000ad094       $LN49                      710ae094     drwinapi.obj
 0001:000ad0d0       $LN48                      710ae0d0     drwinapi.obj
 0001:000ae6c0       _helper_LoadLibrary        710af6c0 f   kernel32_lib.obj
 0001:000af300       _create_dir_common         710b0300 f   kernel32_file.obj
 0001:000af400       _create_file_common        710b0400 f   kernel32_file.obj
 0001:000af790       $LN57                      710b0790     kernel32_file.obj
 0001:000af7b0       _find_first_file_common    710b07b0 f   kernel32_file.obj
 0001:000af920       _find_next_file_common     710b0920 f   kernel32_file.obj
 0001:000af9f0       _find_nt_to_win32A         710b09f0 f   kernel32_file.obj
 0001:000afaa0       _find_nt_to_win32W         710b0aa0 f   kernel32_file.obj
 0001:000b0cc8       $LN22                      710b1cc8     kernel32_file.obj
 0001:000b0cdc       $LN21                      710b1cdc     kernel32_file.obj
 0001:000b0dd8       $LN18                      710b1dd8     kernel32_file.obj
 0001:000b0dec       $LN17                      710b1dec     kernel32_file.obj
 0001:000b1238       $LN25                      710b2238     kernel32_file.obj
 0001:000b1248       $LN24                      710b2248     kernel32_file.obj
 0001:000b22d0       _key_close_special         710b32d0 f   advapi32_redir.obj
 0001:000b2310       _key_is_special            710b3310 f   advapi32_redir.obj
 0001:000b2350       _open_key_common           710b3350 f   advapi32_redir.obj
 0001:000b23b0       _special_to_handle         710b33b0 f   advapi32_redir.obj
 0001:000b24c0       $$000000                   710b34c0     x86.asm_core.obj
 0001:000b2be0       $$000000                   710b3be0     drlibc:drlibc_x86.asm.obj
 0001:000b2d50       $$000000                   710b3d50     drlibc:drlibc_xarch.asm_core.obj
 0002:00000210       _option_traits             710b4210     options.obj
 0002:0000ff10       _null_fragment             710c3f10     fragment.obj
 0002:0000ff30       _sentinel_fragment         710c3f30     fragment.obj
 0002:0000ff50       _unlinked_fragment         710c3f50     fragment.obj
 0002:0000ff70       _fe_empty                  710c3f70     fragment.obj
 0002:0000ff78       _fe_sentinel               710c3f78     fragment.obj
 0002:000101a0       _FREE_LIST_SIZES           710c41a0     fcache.obj
 0002:000105cc       _linkstub_empty_fragment   710c45cc     link.obj
 0002:000105ec       _linkstub_starting         710c45ec     link.obj
 0002:000105f0       _linkstub_reset            710c45f0     link.obj
 0002:000105f4       _linkstub_syscall          710c45f4     link.obj
 0002:000105f8       _linkstub_selfmod          710c45f8     link.obj
 0002:000105fc       _linkstub_ibl_deleted      710c45fc     link.obj
 0002:00010600       _linkstub_asynch           710c4600     link.obj
 0002:00010604       _linkstub_native_exec      710c4604     link.obj
 0002:00010608       _linkstub_native_exec_syscall 710c4608     link.obj
 0002:0001060c       _linkstub_shared_syscall_trace_fragment 710c460c     link.obj
 0002:0001062c       _linkstub_shared_syscall_bb_fragment 710c462c     link.obj
 0002:0001064c       _linkstub_shared_syscall_trace 710c464c     link.obj
 0002:00010650       _linkstub_shared_syscall_bb 710c4650     link.obj
 0002:00010654       _linkstub_shared_syscall_unlinked 710c4654     link.obj
 0002:00010658       _coarse_fragment           710c4658     link.obj
 0002:00010678       _linkstub_coarse_exit      710c4678     link.obj
 0002:0001067c       _linkstub_coarse_trace_head_exit 710c467c     link.obj
 0002:00010680       _linkstub_client           710c4680     link.obj
 0002:00010684       _linkstub_ibl_trace_fragment 710c4684     link.obj
 0002:000106a4       _linkstub_ibl_bb_fragment  710c46a4     link.obj
 0002:000106c4       _linkstub_ibl_trace_ret    710c46c4     link.obj
 0002:000106c8       _linkstub_ibl_trace_jmp    710c46c8     link.obj
 0002:000106cc       _linkstub_ibl_trace_call   710c46cc     link.obj
 0002:000106d0       _linkstub_ibl_bb_ret       710c46d0     link.obj
 0002:000106d4       _linkstub_ibl_bb_jmp       710c46d4     link.obj
 0002:000106d8       _linkstub_ibl_bb_call      710c46d8     link.obj
 0002:000106dc       _linkstub_special_ibl_bb_ret 710c46dc     link.obj
 0002:000106e0       _linkstub_special_ibl_bb_call 710c46e0     link.obj
 0002:000106e4       _linkstub_special_ibl_trace_ret 710c46e4     link.obj
 0002:000106e8       _linkstub_special_ibl_trace_call 710c46e8     link.obj
 0002:00010b40       _crctab                    710c4b40     utils.obj
 0002:00010f70       _config_var                710c4f70     config.obj
 0002:00010fa0       _w_config_var              710c4fa0     config.obj
 0002:00011f50       _BLOCK_SIZES               710c5f50     heap.obj
 0002:000122f8       _exempt_list_names         710c62f8     moduledb.obj
 0002:00012540       _base_letters              710c6540     io.obj
 0002:00012550       _base_letters_cap          710c6550     io.obj
 0002:00012560       _base_letters_wide         710c6560     io.obj
 0002:00012570       _base_letters_cap_wide     710c6570     io.obj
 0002:000127b4       _SPILL_SLOT_TLS_OFFS       710c67b4     instrument.obj
 0002:000127bc       _SPILL_SLOT_MC_REG         710c67bc     instrument.obj
 0002:000129b0       ?ibl_brtype_names@?1??get_branch_type_name@@9@9 710c69b0     arch.obj
 0002:000129c0       ?ibl_routine_names@?1??get_ibl_routine_name@@9@9 710c69c0     arch.obj
 0002:000136c8       _escape_instr              710c76c8     decode.obj
 0002:000136ec       _escape_38_instr           710c76ec     decode.obj
 0002:00013710       _escape_3a_instr           710c7710     decode.obj
 0002:00013734       _xop_8_instr               710c7734     decode.obj
 0002:00013758       _xop_9_instr               710c7758     decode.obj
 0002:0001377c       _xop_a_instr               710c777c     decode.obj
 0002:00057338       _fixed_length              7110b338     decode_fast.obj
 0002:00057438       _immed_adjustment          7110b438     decode_fast.obj
 0002:00057538       _disp_adjustment           7110b538     decode_fast.obj
 0002:00057638       _variable_length           7110b638     decode_fast.obj
 0002:00057738       _escape_fixed_length       7110b738     decode_fast.obj
 0002:00057838       _escape_variable_length    7110b838     decode_fast.obj
 0002:00057938       _threebyte_38_vex_extra    7110b938     decode_fast.obj
 0002:00057a38       _xop_9_extra               7110ba38     decode_fast.obj
 0002:00057b38       _xop_a_extra               7110bb38     decode_fast.obj
 0002:00057c38       _interesting               7110bc38     decode_fast.obj
 0002:00057d38       _eflags_6                  7110bd38     decode_fast.obj
 0002:00058138       _escape_eflags_6           7110c138     decode_fast.obj
 0002:00058920       ?term_thread_args@?1??os_terminate_static_arguments@@9@9 7110c920     os.obj
 0002:00058930       ?term_proc_args@?1??os_terminate_static_arguments@@9@9 7110c930     os.obj
 0002:00058940       ?WOW64_ENTER_INST12@?1??wow64_cases_pre_win10@@9@9 7110c940     os.obj
 0002:0005894c       ?WOW64_ENTER_INST2@?1??wow64_cases_pre_win10@@9@9 7110c94c     os.obj
 0002:00058954       ?WOW64_EXIT_INST12@?1??wow64_cases_pre_win10@@9@9 7110c954     os.obj
 0002:0005895c       ?WOW64_EXIT_INST2@?1??wow64_cases_pre_win10@@9@9 7110c95c     os.obj
 0002:00058960       ?WOW64_ENTER_INST12@?1??wow64_cases_win10@@9@9 7110c960     os.obj
 0002:00058968       ?WOW64_ENTER_INST23@?1??wow64_cases_win10@@9@9 7110c968     os.obj
 0002:00058970       ?WOW64_ENTER_INST34@?1??wow64_cases_win10@@9@9 7110c970     os.obj
 0002:00058978       ?WOW64_ENTER_INST4@?1??wow64_cases_win10@@9@9 7110c978     os.obj
 0002:0005897c       ?WOW64_EXIT1_INST12@?1??wow64_cases_win10@@9@9 7110c97c     os.obj
 0002:00058984       ?WOW64_EXIT1_INST23@?1??wow64_cases_win10@@9@9 7110c984     os.obj
 0002:0005898c       ?WOW64_EXIT1_INST3@?1??wow64_cases_win10@@9@9 7110c98c     os.obj
 0002:00058990       ?WOW64_EXIT2_INST12@?1??wow64_cases_win10@@9@9 7110c990     os.obj
 0002:00058998       ?WOW64_EXIT2_INST2@?1??wow64_cases_win10@@9@9 7110c998     os.obj
 0002:00059bf8       _env_to_propagate          7110dbf8     syscall.obj
 0002:00059c0c       _wenv_to_propagate         7110dc0c     syscall.obj
 0002:0005ab20       _HKLM_entries              7110eb20     diagnost.obj
 0002:0005ab80       _HKCU_entries              7110eb80     diagnost.obj
 0002:0005e6c0       _redirect_ntdll            711126c0     ntdll_redir.obj
 0002:0005e8a8       _redirect_ntdll_win7       711128a8     ntdll_redir.obj
 0002:0005ec20       _redirect_kernel32         71112c20     kernel32_redir.obj
 0002:0005f724       _redirect_rpcrt4           71113724     rpcrt4_redir.obj
 0002:0005f738       _redirect_advapi32         71113738     advapi32_redir.obj
 0002:0005f950       .edata                     71113950     dynamorio.exp
 0002:0005f978       rgpv                       71113978     dynamorio.exp
 0002:00060700       rgszName                   71114700     dynamorio.exp
 0002:00061488       rgwOrd                     71115488     dynamorio.exp
 0002:00061b4c       szName                     71115b4c     dynamorio.exp
 0002:00061b5a       $N00001                    71115b5a     dynamorio.exp
 0002:00061b6a       _NtCreateSection@28        71115b6a     dynamorio.exp
 0002:00061b80       $N00002                    71115b80     dynamorio.exp
 0002:00061b93       _NtMapViewOfSection@40     71115b93     dynamorio.exp
 0002:00061bac       $N00003                    71115bac     dynamorio.exp
 0002:00061bc2       _NtOpenDirectoryObject@12  71115bc2     dynamorio.exp
 0002:00061bde       $N00004                    71115bde     dynamorio.exp
 0002:00061bf3       _NtUnmapViewOfSection@8    71115bf3     dynamorio.exp
 0002:00061c0e       $N00005                    71115c0e     dynamorio.exp
 0002:00061c23       _RtlInitUnicodeString@8    71115c23     dynamorio.exp
 0002:00061c3e       $N00006                    71115c3e     dynamorio.exp
 0002:00061c48       ___isascii                 71115c48     dynamorio.exp
 0002:00061c58       $N00007                    71115c58     dynamorio.exp
 0002:00061c61       ___iscsym                  71115c61     dynamorio.exp
 0002:00061c70       $N00008                    71115c70     dynamorio.exp
 0002:00061c7a       ___iscsymf                 71115c7a     dynamorio.exp
 0002:00061c8a       $N00009                    71115c8a     dynamorio.exp
 0002:00061c94       ___toascii                 71115c94     dynamorio.exp
 0002:00061ca4       $N00010                    71115ca4     dynamorio.exp
 0002:00061cb2       $N00011                    71115cb2     dynamorio.exp
 0002:00061cbe       $N00012                    71115cbe     dynamorio.exp
 0002:00061ccc       $N00013                    71115ccc     dynamorio.exp
 0002:00061cdb       $N00014                    71115cdb     dynamorio.exp
 0002:00061ce9       $N00015                    71115ce9     dynamorio.exp
 0002:00061cf1       __alldiv                   71115cf1     dynamorio.exp
 0002:00061cff       $N00016                    71115cff     dynamorio.exp
 0002:00061d07       __allmul                   71115d07     dynamorio.exp
 0002:00061d15       $N00017                    71115d15     dynamorio.exp
 0002:00061d1d       __allrem                   71115d1d     dynamorio.exp
 0002:00061d2b       $N00018                    71115d2b     dynamorio.exp
 0002:00061d33       __allshl                   71115d33     dynamorio.exp
 0002:00061d41       $N00019                    71115d41     dynamorio.exp
 0002:00061d49       __allshr                   71115d49     dynamorio.exp
 0002:00061d57       $N00020                    71115d57     dynamorio.exp
 0002:00061d5f       __atoi64                   71115d5f     dynamorio.exp
 0002:00061d6d       $N00021                    71115d6d     dynamorio.exp
 0002:00061d76       __aulldiv                  71115d76     dynamorio.exp
 0002:00061d85       $N00022                    71115d85     dynamorio.exp
 0002:00061d8e       __aullrem                  71115d8e     dynamorio.exp
 0002:00061d9d       $N00023                    71115d9d     dynamorio.exp
 0002:00061da6       __aullshr                  71115da6     dynamorio.exp
 0002:00061db5       $N00024                    71115db5     dynamorio.exp
 0002:00061dbd       __chkstk                   71115dbd     dynamorio.exp
 0002:00061dcb       $N00025                    71115dcb     dynamorio.exp
 0002:00061dd4       __fltused                  71115dd4     dynamorio.exp
 0002:00061de3       $N00026                    71115de3     dynamorio.exp
 0002:00061de9       __ftol                     71115de9     dynamorio.exp
 0002:00061df5       $N00027                    71115df5     dynamorio.exp
 0002:00061dfd       __i64toa                   71115dfd     dynamorio.exp
 0002:00061e0b       $N00028                    71115e0b     dynamorio.exp
 0002:00061e13       __i64tow                   71115e13     dynamorio.exp
 0002:00061e21       $N00029                    71115e21     dynamorio.exp
 0002:00061e27       __itoa                     71115e27     dynamorio.exp
 0002:00061e33       $N00030                    71115e33     dynamorio.exp
 0002:00061e39       __itow                     71115e39     dynamorio.exp
 0002:00061e45       $N00031                    71115e45     dynamorio.exp
 0002:00061e4b       __ltoa                     71115e4b     dynamorio.exp
 0002:00061e57       $N00032                    71115e57     dynamorio.exp
 0002:00061e5d       __ltow                     71115e5d     dynamorio.exp
 0002:00061e69       $N00033                    71115e69     dynamorio.exp
 0002:00061e72       __memccpy                  71115e72     dynamorio.exp
 0002:00061e81       $N00034                    71115e81     dynamorio.exp
 0002:00061e8a       __memicmp                  71115e8a     dynamorio.exp
 0002:00061e99       $N00035                    71115e99     dynamorio.exp
 0002:00061ea2       __strcmpi                  71115ea2     dynamorio.exp
 0002:00061eb1       $N00036                    71115eb1     dynamorio.exp
 0002:00061eba       __stricmp                  71115eba     dynamorio.exp
 0002:00061ec9       $N00037                    71115ec9     dynamorio.exp
 0002:00061ed1       __strlwr                   71115ed1     dynamorio.exp
 0002:00061edf       $N00038                    71115edf     dynamorio.exp
 0002:00061ee9       __strnicmp                 71115ee9     dynamorio.exp
 0002:00061ef9       $N00039                    71115ef9     dynamorio.exp
 0002:00061f01       __strupr                   71115f01     dynamorio.exp
 0002:00061f0f       $N00040                    71115f0f     dynamorio.exp
 0002:00061f18       __toupper                  71115f18     dynamorio.exp
 0002:00061f27       $N00041                    71115f27     dynamorio.exp
 0002:00061f30       __ui64toa                  71115f30     dynamorio.exp
 0002:00061f3f       $N00042                    71115f3f     dynamorio.exp
 0002:00061f46       __ultoa                    71115f46     dynamorio.exp
 0002:00061f53       $N00043                    71115f53     dynamorio.exp
 0002:00061f5a       __ultow                    71115f5a     dynamorio.exp
 0002:00061f67       $N00044                    71115f67     dynamorio.exp
 0002:00061f70       __wcsicmp                  71115f70     dynamorio.exp
 0002:00061f7f       $N00045                    71115f7f     dynamorio.exp
 0002:00061f87       __wcslwr                   71115f87     dynamorio.exp
 0002:00061f95       $N00046                    71115f95     dynamorio.exp
 0002:00061f9f       __wcsnicmp                 71115f9f     dynamorio.exp
 0002:00061faf       $N00047                    71115faf     dynamorio.exp
 0002:00061fb7       __wcsupr                   71115fb7     dynamorio.exp
 0002:00061fc5       $N00048                    71115fc5     dynamorio.exp
 0002:00061fcb       __wtoi                     71115fcb     dynamorio.exp
 0002:00061fd7       $N00049                    71115fd7     dynamorio.exp
 0002:00061fdf       __wtoi64                   71115fdf     dynamorio.exp
 0002:00061fed       $N00050                    71115fed     dynamorio.exp
 0002:00061ff3       __wtol                     71115ff3     dynamorio.exp
 0002:00061fff       $N00051                    71115fff     dynamorio.exp
 0002:00062003       _abs                       71116003     dynamorio.exp
 0002:0006200d       $N00052                    7111600d     dynamorio.exp
 0002:00062012       _atan                      71116012     dynamorio.exp
 0002:0006201d       $N00053                    7111601d     dynamorio.exp
 0002:00062022       _atoi                      71116022     dynamorio.exp
 0002:0006202d       $N00054                    7111602d     dynamorio.exp
 0002:00062032       _atol                      71116032     dynamorio.exp
 0002:0006203d       $N00055                    7111603d     dynamorio.exp
 0002:00062042       _ceil                      71116042     dynamorio.exp
 0002:0006204d       $N00056                    7111604d     dynamorio.exp
 0002:00062051       _cos                       71116051     dynamorio.exp
 0002:0006205b       $N00057                    7111605b     dynamorio.exp
 0002:00062062       $N00058                    71116062     dynamorio.exp
 0002:0006206f       $N00059                    7111606f     dynamorio.exp
 0002:00062083       $N00060                    71116083     dynamorio.exp
 0002:0006209c       $N00061                    7111609c     dynamorio.exp
 0002:000620ad       $N00062                    711160ad     dynamorio.exp
 0002:000620ca       $N00063                    711160ca     dynamorio.exp
 0002:000620d9       $N00064                    711160d9     dynamorio.exp
 0002:000620ec       $N00065                    711160ec     dynamorio.exp
 0002:000620fa       $N00066                    711160fa     dynamorio.exp
 0002:0006210b       $N00067                    7111610b     dynamorio.exp
 0002:00062118       $N00068                    71116118     dynamorio.exp
 0002:00062124       $N00069                    71116124     dynamorio.exp
 0002:0006213a       $N00070                    7111613a     dynamorio.exp
 0002:00062151       $N00071                    71116151     dynamorio.exp
 0002:00062167       $N00072                    71116167     dynamorio.exp
 0002:0006217d       $N00073                    7111617d     dynamorio.exp
 0002:00062186       $N00074                    71116186     dynamorio.exp
 0002:00062199       $N00075                    71116199     dynamorio.exp
 0002:000621b9       $N00076                    711161b9     dynamorio.exp
 0002:000621cf       $N00077                    711161cf     dynamorio.exp
 0002:000621eb       $N00078                    711161eb     dynamorio.exp
 0002:00062209       $N00079                    71116209     dynamorio.exp
 0002:00062229       $N00080                    71116229     dynamorio.exp
 0002:00062247       $N00081                    71116247     dynamorio.exp
 0002:00062267       $N00082                    71116267     dynamorio.exp
 0002:00062289       $N00083                    71116289     dynamorio.exp
 0002:0006229f       $N00084                    7111629f     dynamorio.exp
 0002:000622ae       $N00085                    711162ae     dynamorio.exp
 0002:000622c7       $N00086                    711162c7     dynamorio.exp
 0002:000622e0       $N00087                    711162e0     dynamorio.exp
 0002:000622f7       $N00088                    711162f7     dynamorio.exp
 0002:0006230f       $N00089                    7111630f     dynamorio.exp
 0002:00062325       $N00090                    71116325     dynamorio.exp
 0002:00062344       $N00091                    71116344     dynamorio.exp
 0002:00062351       $N00092                    71116351     dynamorio.exp
 0002:00062368       $N00093                    71116368     dynamorio.exp
 0002:00062375       $N00094                    71116375     dynamorio.exp
 0002:00062381       $N00095                    71116381     dynamorio.exp
 0002:00062399       $N00096                    71116399     dynamorio.exp
 0002:000623bc       $N00097                    711163bc     dynamorio.exp
 0002:000623cd       $N00098                    711163cd     dynamorio.exp
 0002:000623e8       $N00099                    711163e8     dynamorio.exp
 0002:000623f9       $N00100                    711163f9     dynamorio.exp
 0002:0006240b       $N00101                    7111640b     dynamorio.exp
 0002:0006241b       $N00102                    7111641b     dynamorio.exp
 0002:00062432       $N00103                    71116432     dynamorio.exp
 0002:00062448       $N00104                    71116448     dynamorio.exp
 0002:00062469       $N00105                    71116469     dynamorio.exp
 0002:00062487       $N00106                    71116487     dynamorio.exp
 0002:00062495       $N00107                    71116495     dynamorio.exp
 0002:000624ae       $N00108                    711164ae     dynamorio.exp
 0002:000624c7       $N00109                    711164c7     dynamorio.exp
 0002:000624db       $N00110                    711164db     dynamorio.exp
 0002:000624f3       $N00111                    711164f3     dynamorio.exp
 0002:00062501       $N00112                    71116501     dynamorio.exp
 0002:00062517       $N00113                    71116517     dynamorio.exp
 0002:00062527       $N00114                    71116527     dynamorio.exp
 0002:00062536       $N00115                    71116536     dynamorio.exp
 0002:0006254c       $N00116                    7111654c     dynamorio.exp
 0002:0006255a       $N00117                    7111655a     dynamorio.exp
 0002:00062569       $N00118                    71116569     dynamorio.exp
 0002:0006257c       $N00119                    7111657c     dynamorio.exp
 0002:00062590       $N00120                    71116590     dynamorio.exp
 0002:000625a3       $N00121                    711165a3     dynamorio.exp
 0002:000625be       $N00122                    711165be     dynamorio.exp
 0002:000625ce       $N00123                    711165ce     dynamorio.exp
 0002:000625df       $N00124                    711165df     dynamorio.exp
 0002:000625ee       $N00125                    711165ee     dynamorio.exp
 0002:000625fe       $N00126                    711165fe     dynamorio.exp
 0002:0006260c       $N00127                    7111660c     dynamorio.exp
 0002:0006261c       $N00128                    7111661c     dynamorio.exp
 0002:0006262b       $N00129                    7111662b     dynamorio.exp
 0002:00062638       $N00130                    71116638     dynamorio.exp
 0002:00062645       $N00131                    71116645     dynamorio.exp
 0002:00062652       $N00132                    71116652     dynamorio.exp
 0002:00062660       $N00133                    71116660     dynamorio.exp
 0002:00062670       $N00134                    71116670     dynamorio.exp
 0002:00062683       $N00135                    71116683     dynamorio.exp
 0002:0006268e       $N00136                    7111668e     dynamorio.exp
 0002:000626a1       $N00137                    711166a1     dynamorio.exp
 0002:000626b7       $N00138                    711166b7     dynamorio.exp
 0002:000626cf       $N00139                    711166cf     dynamorio.exp
 0002:000626e0       $N00140                    711166e0     dynamorio.exp
 0002:000626f4       $N00141                    711166f4     dynamorio.exp
 0002:00062703       $N00142                    71116703     dynamorio.exp
 0002:00062713       $N00143                    71116713     dynamorio.exp
 0002:0006272b       $N00144                    7111672b     dynamorio.exp
 0002:0006273e       $N00145                    7111673e     dynamorio.exp
 0002:00062751       $N00146                    71116751     dynamorio.exp
 0002:0006276a       $N00147                    7111676a     dynamorio.exp
 0002:00062783       $N00148                    71116783     dynamorio.exp
 0002:0006279a       $N00149                    7111679a     dynamorio.exp
 0002:000627b2       $N00150                    711167b2     dynamorio.exp
 0002:000627c4       $N00151                    711167c4     dynamorio.exp
 0002:000627da       $N00152                    711167da     dynamorio.exp
 0002:000627ea       $N00153                    711167ea     dynamorio.exp
 0002:000627f9       $N00154                    711167f9     dynamorio.exp
 0002:0006280c       $N00155                    7111680c     dynamorio.exp
 0002:0006281c       $N00156                    7111681c     dynamorio.exp
 0002:00062830       $N00157                    71116830     dynamorio.exp
 0002:00062844       $N00158                    71116844     dynamorio.exp
 0002:00062858       $N00159                    71116858     dynamorio.exp
 0002:00062867       $N00160                    71116867     dynamorio.exp
 0002:00062879       $N00161                    71116879     dynamorio.exp
 0002:0006288d       $N00162                    7111688d     dynamorio.exp
 0002:000628a4       $N00163                    711168a4     dynamorio.exp
 0002:000628b6       $N00164                    711168b6     dynamorio.exp
 0002:000628d7       $N00165                    711168d7     dynamorio.exp
 0002:000628ea       $N00166                    711168ea     dynamorio.exp
 0002:000628fe       $N00167                    711168fe     dynamorio.exp
 0002:0006290b       $N00168                    7111690b     dynamorio.exp
 0002:0006291e       $N00169                    7111691e     dynamorio.exp
 0002:00062930       $N00170                    71116930     dynamorio.exp
 0002:00062943       $N00171                    71116943     dynamorio.exp
 0002:00062955       $N00172                    71116955     dynamorio.exp
 0002:0006296a       $N00173                    7111696a     dynamorio.exp
 0002:0006297b       $N00174                    7111697b     dynamorio.exp
 0002:00062987       $N00175                    71116987     dynamorio.exp
 0002:00062998       $N00176                    71116998     dynamorio.exp
 0002:000629a5       $N00177                    711169a5     dynamorio.exp
 0002:000629b5       $N00178                    711169b5     dynamorio.exp
 0002:000629c4       $N00179                    711169c4     dynamorio.exp
 0002:000629d3       $N00180                    711169d3     dynamorio.exp
 0002:000629e5       $N00181                    711169e5     dynamorio.exp
 0002:00062a04       $N00182                    71116a04     dynamorio.exp
 0002:00062a22       $N00183                    71116a22     dynamorio.exp
 0002:00062a43       $N00184                    71116a43     dynamorio.exp
 0002:00062a58       $N00185                    71116a58     dynamorio.exp
 0002:00062a70       $N00186                    71116a70     dynamorio.exp
 0002:00062a87       $N00187                    71116a87     dynamorio.exp
 0002:00062aa6       $N00188                    71116aa6     dynamorio.exp
 0002:00062aba       $N00189                    71116aba     dynamorio.exp
 0002:00062ad8       $N00190                    71116ad8     dynamorio.exp
 0002:00062aef       $N00191                    71116aef     dynamorio.exp
 0002:00062b08       $N00192                    71116b08     dynamorio.exp
 0002:00062b22       $N00193                    71116b22     dynamorio.exp
 0002:00062b39       $N00194                    71116b39     dynamorio.exp
 0002:00062b58       $N00195                    71116b58     dynamorio.exp
 0002:00062b76       $N00196                    71116b76     dynamorio.exp
 0002:00062b8e       $N00197                    71116b8e     dynamorio.exp
 0002:00062ba8       $N00198                    71116ba8     dynamorio.exp
 0002:00062bbe       $N00199                    71116bbe     dynamorio.exp
 0002:00062bce       $N00200                    71116bce     dynamorio.exp
 0002:00062bde       $N00201                    71116bde     dynamorio.exp
 0002:00062bf1       $N00202                    71116bf1     dynamorio.exp
 0002:00062c05       $N00203                    71116c05     dynamorio.exp
 0002:00062c1f       $N00204                    71116c1f     dynamorio.exp
 0002:00062c2b       $N00205                    71116c2b     dynamorio.exp
 0002:00062c3f       $N00206                    71116c3f     dynamorio.exp
 0002:00062c57       $N00207                    71116c57     dynamorio.exp
 0002:00062c5e       $N00208                    71116c5e     dynamorio.exp
 0002:00062c7c       $N00209                    71116c7c     dynamorio.exp
 0002:00062c9e       $N00210                    71116c9e     dynamorio.exp
 0002:00062caf       $N00211                    71116caf     dynamorio.exp
 0002:00062cc8       $N00212                    71116cc8     dynamorio.exp
 0002:00062ce1       $N00213                    71116ce1     dynamorio.exp
 0002:00062cf8       $N00214                    71116cf8     dynamorio.exp
 0002:00062d04       $N00215                    71116d04     dynamorio.exp
 0002:00062d1c       $N00216                    71116d1c     dynamorio.exp
 0002:00062d2f       $N00217                    71116d2f     dynamorio.exp
 0002:00062d51       $N00218                    71116d51     dynamorio.exp
 0002:00062d68       $N00219                    71116d68     dynamorio.exp
 0002:00062d85       $N00220                    71116d85     dynamorio.exp
 0002:00062da2       $N00221                    71116da2     dynamorio.exp
 0002:00062dbb       $N00222                    71116dbb     dynamorio.exp
 0002:00062dd2       $N00223                    71116dd2     dynamorio.exp
 0002:00062de8       $N00224                    71116de8     dynamorio.exp
 0002:00062dfa       $N00225                    71116dfa     dynamorio.exp
 0002:00062e0f       $N00226                    71116e0f     dynamorio.exp
 0002:00062e1d       $N00227                    71116e1d     dynamorio.exp
 0002:00062e35       $N00228                    71116e35     dynamorio.exp
 0002:00062e57       $N00229                    71116e57     dynamorio.exp
 0002:00062e76       $N00230                    71116e76     dynamorio.exp
 0002:00062e96       $N00231                    71116e96     dynamorio.exp
 0002:00062eb5       $N00232                    71116eb5     dynamorio.exp
 0002:00062ed0       $N00233                    71116ed0     dynamorio.exp
 0002:00062ee8       $N00234                    71116ee8     dynamorio.exp
 0002:00062f01       $N00235                    71116f01     dynamorio.exp
 0002:00062f19       $N00236                    71116f19     dynamorio.exp
 0002:00062f32       $N00237                    71116f32     dynamorio.exp
 0002:00062f52       $N00238                    71116f52     dynamorio.exp
 0002:00062f6e       $N00239                    71116f6e     dynamorio.exp
 0002:00062f7e       $N00240                    71116f7e     dynamorio.exp
 0002:00062f8f       $N00241                    71116f8f     dynamorio.exp
 0002:00062f9d       $N00242                    71116f9d     dynamorio.exp
 0002:00062fb2       $N00243                    71116fb2     dynamorio.exp
 0002:00062fc5       $N00244                    71116fc5     dynamorio.exp
 0002:00062fd6       $N00245                    71116fd6     dynamorio.exp
 0002:00062fe6       $N00246                    71116fe6     dynamorio.exp
 0002:00062ff7       $N00247                    71116ff7     dynamorio.exp
 0002:00063007       $N00248                    71117007     dynamorio.exp
 0002:00063017       $N00249                    71117017     dynamorio.exp
 0002:0006302a       $N00250                    7111702a     dynamorio.exp
 0002:0006303a       $N00251                    7111703a     dynamorio.exp
 0002:00063047       $N00252                    71117047     dynamorio.exp
 0002:00063054       $N00253                    71117054     dynamorio.exp
 0002:00063064       $N00254                    71117064     dynamorio.exp
 0002:00063075       $N00255                    71117075     dynamorio.exp
 0002:00063089       $N00256                    71117089     dynamorio.exp
 0002:0006309e       $N00257                    7111709e     dynamorio.exp
 0002:000630be       $N00258                    711170be     dynamorio.exp
 0002:000630cd       $N00259                    711170cd     dynamorio.exp
 0002:000630db       $N00260                    711170db     dynamorio.exp
 0002:000630e5       $N00261                    711170e5     dynamorio.exp
 0002:000630f5       $N00262                    711170f5     dynamorio.exp
 0002:00063108       $N00263                    71117108     dynamorio.exp
 0002:00063119       $N00264                    71117119     dynamorio.exp
 0002:00063129       $N00265                    71117129     dynamorio.exp
 0002:0006313b       $N00266                    7111713b     dynamorio.exp
 0002:0006314c       $N00267                    7111714c     dynamorio.exp
 0002:0006315c       $N00268                    7111715c     dynamorio.exp
 0002:00063169       $N00269                    71117169     dynamorio.exp
 0002:0006317b       $N00270                    7111717b     dynamorio.exp
 0002:0006318f       $N00271                    7111718f     dynamorio.exp
 0002:000631a4       $N00272                    711171a4     dynamorio.exp
 0002:000631b6       $N00273                    711171b6     dynamorio.exp
 0002:000631cf       $N00274                    711171cf     dynamorio.exp
 0002:000631e6       $N00275                    711171e6     dynamorio.exp
 0002:000631fb       $N00276                    711171fb     dynamorio.exp
 0002:0006320f       $N00277                    7111720f     dynamorio.exp
 0002:00063225       $N00278                    71117225     dynamorio.exp
 0002:0006323f       $N00279                    7111723f     dynamorio.exp
 0002:00063256       $N00280                    71117256     dynamorio.exp
 0002:0006326b       $N00281                    7111726b     dynamorio.exp
 0002:00063292       $N00282                    71117292     dynamorio.exp
 0002:000632ab       $N00283                    711172ab     dynamorio.exp
 0002:000632c7       $N00284                    711172c7     dynamorio.exp
 0002:000632e3       $N00285                    711172e3     dynamorio.exp
 0002:000632fa       $N00286                    711172fa     dynamorio.exp
 0002:0006331b       $N00287                    7111731b     dynamorio.exp
 0002:00063339       $N00288                    71117339     dynamorio.exp
 0002:00063359       $N00289                    71117359     dynamorio.exp
 0002:00063377       $N00290                    71117377     dynamorio.exp
 0002:00063397       $N00291                    71117397     dynamorio.exp
 0002:000633af       $N00292                    711173af     dynamorio.exp
 0002:000633c9       $N00293                    711173c9     dynamorio.exp
 0002:000633e0       $N00294                    711173e0     dynamorio.exp
 0002:000633f7       $N00295                    711173f7     dynamorio.exp
 0002:0006340e       $N00296                    7111740e     dynamorio.exp
 0002:0006342d       $N00297                    7111742d     dynamorio.exp
 0002:0006344b       $N00298                    7111744b     dynamorio.exp
 0002:0006346b       $N00299                    7111746b     dynamorio.exp
 0002:0006348e       $N00300                    7111748e     dynamorio.exp
 0002:000634ac       $N00301                    711174ac     dynamorio.exp
 0002:000634ca       $N00302                    711174ca     dynamorio.exp
 0002:000634e2       $N00303                    711174e2     dynamorio.exp
 0002:000634f6       $N00304                    711174f6     dynamorio.exp
 0002:00063505       $N00305                    71117505     dynamorio.exp
 0002:00063519       $N00306                    71117519     dynamorio.exp
 0002:00063536       $N00307                    71117536     dynamorio.exp
 0002:0006354b       $N00308                    7111754b     dynamorio.exp
 0002:00063562       $N00309                    71117562     dynamorio.exp
 0002:00063582       $N00310                    71117582     dynamorio.exp
 0002:000635a2       $N00311                    711175a2     dynamorio.exp
 0002:000635b1       $N00312                    711175b1     dynamorio.exp
 0002:000635cd       $N00313                    711175cd     dynamorio.exp
 0002:000635f3       $N00314                    711175f3     dynamorio.exp
 0002:00063604       $N00315                    71117604     dynamorio.exp
 0002:00063616       $N00316                    71117616     dynamorio.exp
 0002:0006362c       $N00317                    7111762c     dynamorio.exp
 0002:00063640       $N00318                    71117640     dynamorio.exp
 0002:00063656       $N00319                    71117656     dynamorio.exp
 0002:00063675       $N00320                    71117675     dynamorio.exp
 0002:0006368a       $N00321                    7111768a     dynamorio.exp
 0002:000636a2       $N00322                    711176a2     dynamorio.exp
 0002:000636b9       $N00323                    711176b9     dynamorio.exp
 0002:000636c6       $N00324                    711176c6     dynamorio.exp
 0002:000636d4       $N00325                    711176d4     dynamorio.exp
 0002:000636e8       $N00326                    711176e8     dynamorio.exp
 0002:00063703       $N00327                    71117703     dynamorio.exp
 0002:0006371e       $N00328                    7111771e     dynamorio.exp
 0002:0006372a       $N00329                    7111772a     dynamorio.exp
 0002:0006373d       $N00330                    7111773d     dynamorio.exp
 0002:0006375a       $N00331                    7111775a     dynamorio.exp
 0002:0006376a       $N00332                    7111776a     dynamorio.exp
 0002:0006377a       $N00333                    7111777a     dynamorio.exp
 0002:00063797       $N00334                    71117797     dynamorio.exp
 0002:000637aa       $N00335                    711177aa     dynamorio.exp
 0002:000637bb       $N00336                    711177bb     dynamorio.exp
 0002:000637c4       $N00337                    711177c4     dynamorio.exp
 0002:000637d0       $N00338                    711177d0     dynamorio.exp
 0002:000637dd       $N00339                    711177dd     dynamorio.exp
 0002:000637e7       $N00340                    711177e7     dynamorio.exp
 0002:000637fa       $N00341                    711177fa     dynamorio.exp
 0002:0006380d       $N00342                    7111780d     dynamorio.exp
 0002:0006382a       $N00343                    7111782a     dynamorio.exp
 0002:0006384a       $N00344                    7111784a     dynamorio.exp
 0002:00063861       $N00345                    71117861     dynamorio.exp
 0002:00063878       $N00346                    71117878     dynamorio.exp
 0002:00063892       $N00347                    71117892     dynamorio.exp
 0002:000638a8       $N00348                    711178a8     dynamorio.exp
 0002:000638c1       $N00349                    711178c1     dynamorio.exp
 0002:000638e3       $N00350                    711178e3     dynamorio.exp
 0002:00063902       $N00351                    71117902     dynamorio.exp
 0002:00063922       $N00352                    71117922     dynamorio.exp
 0002:00063941       $N00353                    71117941     dynamorio.exp
 0002:00063963       $N00354                    71117963     dynamorio.exp
 0002:00063982       $N00355                    71117982     dynamorio.exp
 0002:000639a2       $N00356                    711179a2     dynamorio.exp
 0002:000639c1       $N00357                    711179c1     dynamorio.exp
 0002:000639d6       $N00358                    711179d6     dynamorio.exp
 0002:000639ec       $N00359                    711179ec     dynamorio.exp
 0002:00063a05       $N00360                    71117a05     dynamorio.exp
 0002:00063a23       $N00361                    71117a23     dynamorio.exp
 0002:00063a3d       $N00362                    71117a3d     dynamorio.exp
 0002:00063a52       $N00363                    71117a52     dynamorio.exp
 0002:00063a68       $N00364                    71117a68     dynamorio.exp
 0002:00063a81       $N00365                    71117a81     dynamorio.exp
 0002:00063a97       $N00366                    71117a97     dynamorio.exp
 0002:00063aa7       $N00367                    71117aa7     dynamorio.exp
 0002:00063ab6       $N00368                    71117ab6     dynamorio.exp
 0002:00063ac6       $N00369                    71117ac6     dynamorio.exp
 0002:00063ad9       $N00370                    71117ad9     dynamorio.exp
 0002:00063aea       $N00371                    71117aea     dynamorio.exp
 0002:00063afe       $N00372                    71117afe     dynamorio.exp
 0002:00063b0b       $N00373                    71117b0b     dynamorio.exp
 0002:00063b18       $N00374                    71117b18     dynamorio.exp
 0002:00063b24       $N00375                    71117b24     dynamorio.exp
 0002:00063b3b       $N00376                    71117b3b     dynamorio.exp
 0002:00063b51       $N00377                    71117b51     dynamorio.exp
 0002:00063b6b       $N00378                    71117b6b     dynamorio.exp
 0002:00063b84       $N00379                    71117b84     dynamorio.exp
 0002:00063b92       $N00380                    71117b92     dynamorio.exp
 0002:00063ba9       $N00381                    71117ba9     dynamorio.exp
 0002:00063bd2       $N00382                    71117bd2     dynamorio.exp
 0002:00063bed       $N00383                    71117bed     dynamorio.exp
 0002:00063c0b       $N00384                    71117c0b     dynamorio.exp
 0002:00063c29       $N00385                    71117c29     dynamorio.exp
 0002:00063c42       $N00386                    71117c42     dynamorio.exp
 0002:00063c65       $N00387                    71117c65     dynamorio.exp
 0002:00063c85       $N00388                    71117c85     dynamorio.exp
 0002:00063ca7       $N00389                    71117ca7     dynamorio.exp
 0002:00063cc7       $N00390                    71117cc7     dynamorio.exp
 0002:00063ce9       $N00391                    71117ce9     dynamorio.exp
 0002:00063d03       $N00392                    71117d03     dynamorio.exp
 0002:00063d1f       $N00393                    71117d1f     dynamorio.exp
 0002:00063d38       $N00394                    71117d38     dynamorio.exp
 0002:00063d51       $N00395                    71117d51     dynamorio.exp
 0002:00063d6a       $N00396                    71117d6a     dynamorio.exp
 0002:00063d8b       $N00397                    71117d8b     dynamorio.exp
 0002:00063dab       $N00398                    71117dab     dynamorio.exp
 0002:00063dcd       $N00399                    71117dcd     dynamorio.exp
 0002:00063df2       $N00400                    71117df2     dynamorio.exp
 0002:00063e12       $N00401                    71117e12     dynamorio.exp
 0002:00063e32       $N00402                    71117e32     dynamorio.exp
 0002:00063e4c       $N00403                    71117e4c     dynamorio.exp
 0002:00063e68       $N00404                    71117e68     dynamorio.exp
 0002:00063e7b       $N00405                    71117e7b     dynamorio.exp
 0002:00063e8c       $N00406                    71117e8c     dynamorio.exp
 0002:00063e98       $N00407                    71117e98     dynamorio.exp
 0002:00063ea9       $N00408                    71117ea9     dynamorio.exp
 0002:00063eb6       $N00409                    71117eb6     dynamorio.exp
 0002:00063ec4       $N00410                    71117ec4     dynamorio.exp
 0002:00063ed2       $N00411                    71117ed2     dynamorio.exp
 0002:00063ee0       $N00412                    71117ee0     dynamorio.exp
 0002:00063ef3       $N00413                    71117ef3     dynamorio.exp
 0002:00063f05       $N00414                    71117f05     dynamorio.exp
 0002:00063f18       $N00415                    71117f18     dynamorio.exp
 0002:00063f3e       $N00416                    71117f3e     dynamorio.exp
 0002:00063f56       $N00417                    71117f56     dynamorio.exp
 0002:00063f77       $N00418                    71117f77     dynamorio.exp
 0002:00063f7c       _fabs                      71117f7c     dynamorio.exp
 0002:00063f87       $N00419                    71117f87     dynamorio.exp
 0002:00063f8d       _floor                     71117f8d     dynamorio.exp
 0002:00063f99       $N00420                    71117f99     dynamorio.exp
 0002:00063fab       $N00421                    71117fab     dynamorio.exp
 0002:00063fc3       $N00422                    71117fc3     dynamorio.exp
 0002:00063fcf       $N00423                    71117fcf     dynamorio.exp
 0002:00063fe0       $N00424                    71117fe0     dynamorio.exp
 0002:00063ffb       $N00425                    71117ffb     dynamorio.exp
 0002:00064007       $N00426                    71118007     dynamorio.exp
 0002:0006401b       $N00427                    7111801b     dynamorio.exp
 0002:00064032       $N00428                    71118032     dynamorio.exp
 0002:00064048       $N00429                    71118048     dynamorio.exp
 0002:00064061       $N00430                    71118061     dynamorio.exp
 0002:0006407e       $N00431                    7111807e     dynamorio.exp
 0002:000640a3       $N00432                    711180a3     dynamorio.exp
 0002:000640b0       $N00433                    711180b0     dynamorio.exp
 0002:000640c7       $N00434                    711180c7     dynamorio.exp
 0002:000640de       $N00435                    711180de     dynamorio.exp
 0002:000640f5       $N00436                    711180f5     dynamorio.exp
 0002:0006410c       $N00437                    7111810c     dynamorio.exp
 0002:00064123       $N00438                    71118123     dynamorio.exp
 0002:0006413a       $N00439                    7111813a     dynamorio.exp
 0002:00064151       $N00440                    71118151     dynamorio.exp
 0002:00064168       $N00441                    71118168     dynamorio.exp
 0002:0006417f       $N00442                    7111817f     dynamorio.exp
 0002:00064196       $N00443                    71118196     dynamorio.exp
 0002:000641ad       $N00444                    711181ad     dynamorio.exp
 0002:000641c4       $N00445                    711181c4     dynamorio.exp
 0002:000641db       $N00446                    711181db     dynamorio.exp
 0002:000641f2       $N00447                    711181f2     dynamorio.exp
 0002:00064209       $N00448                    71118209     dynamorio.exp
 0002:00064220       $N00449                    71118220     dynamorio.exp
 0002:00064237       $N00450                    71118237     dynamorio.exp
 0002:0006424e       $N00451                    7111824e     dynamorio.exp
 0002:00064265       $N00452                    71118265     dynamorio.exp
 0002:0006427c       $N00453                    7111827c     dynamorio.exp
 0002:00064293       $N00454                    71118293     dynamorio.exp
 0002:000642aa       $N00455                    711182aa     dynamorio.exp
 0002:000642c1       $N00456                    711182c1     dynamorio.exp
 0002:000642d8       $N00457                    711182d8     dynamorio.exp
 0002:000642ef       $N00458                    711182ef     dynamorio.exp
 0002:00064306       $N00459                    71118306     dynamorio.exp
 0002:0006431d       $N00460                    7111831d     dynamorio.exp
 0002:00064334       $N00461                    71118334     dynamorio.exp
 0002:0006434b       $N00462                    7111834b     dynamorio.exp
 0002:00064362       $N00463                    71118362     dynamorio.exp
 0002:00064379       $N00464                    71118379     dynamorio.exp
 0002:00064390       $N00465                    71118390     dynamorio.exp
 0002:000643a7       $N00466                    711183a7     dynamorio.exp
 0002:000643be       $N00467                    711183be     dynamorio.exp
 0002:000643d5       $N00468                    711183d5     dynamorio.exp
 0002:000643f3       $N00469                    711183f3     dynamorio.exp
 0002:00064411       $N00470                    71118411     dynamorio.exp
 0002:00064423       $N00471                    71118423     dynamorio.exp
 0002:00064436       $N00472                    71118436     dynamorio.exp
 0002:00064444       $N00473                    71118444     dynamorio.exp
 0002:00064456       $N00474                    71118456     dynamorio.exp
 0002:00064472       $N00475                    71118472     dynamorio.exp
 0002:0006447f       $N00476                    7111847f     dynamorio.exp
 0002:00064494       $N00477                    71118494     dynamorio.exp
 0002:0006449f       $N00478                    7111849f     dynamorio.exp
 0002:000644b3       $N00479                    711184b3     dynamorio.exp
 0002:000644c6       $N00480                    711184c6     dynamorio.exp
 0002:000644d7       $N00481                    711184d7     dynamorio.exp
 0002:000644ed       $N00482                    711184ed     dynamorio.exp
 0002:00064508       $N00483                    71118508     dynamorio.exp
 0002:00064516       $N00484                    71118516     dynamorio.exp
 0002:00064527       $N00485                    71118527     dynamorio.exp
 0002:00064542       $N00486                    71118542     dynamorio.exp
 0002:00064555       $N00487                    71118555     dynamorio.exp
 0002:0006456f       $N00488                    7111856f     dynamorio.exp
 0002:0006457e       $N00489                    7111857e     dynamorio.exp
 0002:00064591       $N00490                    71118591     dynamorio.exp
 0002:000645a0       $N00491                    711185a0     dynamorio.exp
 0002:000645b1       $N00492                    711185b1     dynamorio.exp
 0002:000645c9       $N00493                    711185c9     dynamorio.exp
 0002:000645dd       $N00494                    711185dd     dynamorio.exp
 0002:000645f3       $N00495                    711185f3     dynamorio.exp
 0002:00064602       $N00496                    71118602     dynamorio.exp
 0002:00064615       $N00497                    71118615     dynamorio.exp
 0002:00064628       $N00498                    71118628     dynamorio.exp
 0002:0006463b       $N00499                    7111863b     dynamorio.exp
 0002:0006464e       $N00500                    7111864e     dynamorio.exp
 0002:00064671       $N00501                    71118671     dynamorio.exp
 0002:0006467f       $N00502                    7111867f     dynamorio.exp
 0002:00064690       $N00503                    71118690     dynamorio.exp
 0002:000646a9       $N00504                    711186a9     dynamorio.exp
 0002:000646c1       $N00505                    711186c1     dynamorio.exp
 0002:000646cc       $N00506                    711186cc     dynamorio.exp
 0002:000646dd       $N00507                    711186dd     dynamorio.exp
 0002:000646ec       $N00508                    711186ec     dynamorio.exp
 0002:000646f9       $N00509                    711186f9     dynamorio.exp
 0002:00064707       $N00510                    71118707     dynamorio.exp
 0002:0006471c       $N00511                    7111871c     dynamorio.exp
 0002:00064733       $N00512                    71118733     dynamorio.exp
 0002:00064740       $N00513                    71118740     dynamorio.exp
 0002:0006474d       $N00514                    7111874d     dynamorio.exp
 0002:0006475f       $N00515                    7111875f     dynamorio.exp
 0002:00064772       $N00516                    71118772     dynamorio.exp
 0002:0006478d       $N00517                    7111878d     dynamorio.exp
 0002:000647a8       $N00518                    711187a8     dynamorio.exp
 0002:000647c0       $N00519                    711187c0     dynamorio.exp
 0002:000647d9       $N00520                    711187d9     dynamorio.exp
 0002:000647eb       $N00521                    711187eb     dynamorio.exp
 0002:00064800       $N00522                    71118800     dynamorio.exp
 0002:00064811       $N00523                    71118811     dynamorio.exp
 0002:00064823       $N00524                    71118823     dynamorio.exp
 0002:00064838       $N00525                    71118838     dynamorio.exp
 0002:00064848       $N00526                    71118848     dynamorio.exp
 0002:0006485b       $N00527                    7111885b     dynamorio.exp
 0002:0006486a       $N00528                    7111886a     dynamorio.exp
 0002:00064877       $N00529                    71118877     dynamorio.exp
 0002:00064885       $N00530                    71118885     dynamorio.exp
 0002:0006489d       $N00531                    7111889d     dynamorio.exp
 0002:000648aa       $N00532                    711188aa     dynamorio.exp
 0002:000648b7       $N00533                    711188b7     dynamorio.exp
 0002:000648cd       $N00534                    711188cd     dynamorio.exp
 0002:000648e5       $N00535                    711188e5     dynamorio.exp
 0002:000648ff       $N00536                    711188ff     dynamorio.exp
 0002:00064911       $N00537                    71118911     dynamorio.exp
 0002:0006491e       $N00538                    7111891e     dynamorio.exp
 0002:0006492e       $N00539                    7111892e     dynamorio.exp
 0002:00064942       $N00540                    71118942     dynamorio.exp
 0002:00064954       $N00541                    71118954     dynamorio.exp
 0002:00064972       $N00542                    71118972     dynamorio.exp
 0002:00064989       $N00543                    71118989     dynamorio.exp
 0002:00064999       $N00544                    71118999     dynamorio.exp
 0002:000649aa       $N00545                    711189aa     dynamorio.exp
 0002:000649b7       $N00546                    711189b7     dynamorio.exp
 0002:000649c5       $N00547                    711189c5     dynamorio.exp
 0002:000649d3       $N00548                    711189d3     dynamorio.exp
 0002:000649e2       $N00549                    711189e2     dynamorio.exp
 0002:000649f1       $N00550                    711189f1     dynamorio.exp
 0002:00064a00       $N00551                    71118a00     dynamorio.exp
 0002:00064a15       $N00552                    71118a15     dynamorio.exp
 0002:00064a24       $N00553                    71118a24     dynamorio.exp
 0002:00064a37       $N00554                    71118a37     dynamorio.exp
 0002:00064a48       $N00555                    71118a48     dynamorio.exp
 0002:00064a55       $N00556                    71118a55     dynamorio.exp
 0002:00064a68       $N00557                    71118a68     dynamorio.exp
 0002:00064a7f       $N00558                    71118a7f     dynamorio.exp
 0002:00064a8e       $N00559                    71118a8e     dynamorio.exp
 0002:00064a9e       $N00560                    71118a9e     dynamorio.exp
 0002:00064aab       $N00561                    71118aab     dynamorio.exp
 0002:00064ac1       $N00562                    71118ac1     dynamorio.exp
 0002:00064ad1       $N00563                    71118ad1     dynamorio.exp
 0002:00064aed       $N00564                    71118aed     dynamorio.exp
 0002:00064b02       $N00565                    71118b02     dynamorio.exp
 0002:00064b15       $N00566                    71118b15     dynamorio.exp
 0002:00064b24       $N00567                    71118b24     dynamorio.exp
 0002:00064b33       $N00568                    71118b33     dynamorio.exp
 0002:00064b44       $N00569                    71118b44     dynamorio.exp
 0002:00064b57       $N00570                    71118b57     dynamorio.exp
 0002:00064b6a       $N00571                    71118b6a     dynamorio.exp
 0002:00064b7f       $N00572                    71118b7f     dynamorio.exp
 0002:00064b97       $N00573                    71118b97     dynamorio.exp
 0002:00064bb1       $N00574                    71118bb1     dynamorio.exp
 0002:00064bc6       $N00575                    71118bc6     dynamorio.exp
 0002:00064be1       $N00576                    71118be1     dynamorio.exp
 0002:00064bf6       $N00577                    71118bf6     dynamorio.exp
 0002:00064c09       $N00578                    71118c09     dynamorio.exp
 0002:00064c1a       $N00579                    71118c1a     dynamorio.exp
 0002:00064c2b       $N00580                    71118c2b     dynamorio.exp
 0002:00064c3d       $N00581                    71118c3d     dynamorio.exp
 0002:00064c4f       $N00582                    71118c4f     dynamorio.exp
 0002:00064c68       $N00583                    71118c68     dynamorio.exp
 0002:00064c7f       $N00584                    71118c7f     dynamorio.exp
 0002:00064c8b       $N00585                    71118c8b     dynamorio.exp
 0002:00064c97       $N00586                    71118c97     dynamorio.exp
 0002:00064ca2       $N00587                    71118ca2     dynamorio.exp
 0002:00064cb0       $N00588                    71118cb0     dynamorio.exp
 0002:00064ccb       $N00589                    71118ccb     dynamorio.exp
 0002:00064cd9       $N00590                    71118cd9     dynamorio.exp
 0002:00064cf1       $N00591                    71118cf1     dynamorio.exp
 0002:00064d04       $N00592                    71118d04     dynamorio.exp
 0002:00064d1d       $N00593                    71118d1d     dynamorio.exp
 0002:00064d2c       $N00594                    71118d2c     dynamorio.exp
 0002:00064d45       $N00595                    71118d45     dynamorio.exp
 0002:00064d63       $N00596                    71118d63     dynamorio.exp
 0002:00064d72       $N00597                    71118d72     dynamorio.exp
 0002:00064d81       $N00598                    71118d81     dynamorio.exp
 0002:00064d95       $N00599                    71118d95     dynamorio.exp
 0002:00064daa       $N00600                    71118daa     dynamorio.exp
 0002:00064dc1       $N00601                    71118dc1     dynamorio.exp
 0002:00064dd2       $N00602                    71118dd2     dynamorio.exp
 0002:00064deb       $N00603                    71118deb     dynamorio.exp
 0002:00064dff       $N00604                    71118dff     dynamorio.exp
 0002:00064e15       $N00605                    71118e15     dynamorio.exp
 0002:00064e24       $N00606                    71118e24     dynamorio.exp
 0002:00064e37       $N00607                    71118e37     dynamorio.exp
 0002:00064e50       $N00608                    71118e50     dynamorio.exp
 0002:00064e63       $N00609                    71118e63     dynamorio.exp
 0002:00064e77       $N00610                    71118e77     dynamorio.exp
 0002:00064e8a       $N00611                    71118e8a     dynamorio.exp
 0002:00064e98       $N00612                    71118e98     dynamorio.exp
 0002:00064ea9       $N00613                    71118ea9     dynamorio.exp
 0002:00064ebf       $N00614                    71118ebf     dynamorio.exp
 0002:00064ed7       $N00615                    71118ed7     dynamorio.exp
 0002:00064ee9       $N00616                    71118ee9     dynamorio.exp
 0002:00064ef8       $N00617                    71118ef8     dynamorio.exp
 0002:00064f04       $N00618                    71118f04     dynamorio.exp
 0002:00064f18       $N00619                    71118f18     dynamorio.exp
 0002:00064f32       $N00620                    71118f32     dynamorio.exp
 0002:00064f46       $N00621                    71118f46     dynamorio.exp
 0002:00064f58       $N00622                    71118f58     dynamorio.exp
 0002:00064f6a       $N00623                    71118f6a     dynamorio.exp
 0002:00064f7b       $N00624                    71118f7b     dynamorio.exp
 0002:00064f8b       $N00625                    71118f8b     dynamorio.exp
 0002:00064fa7       $N00626                    71118fa7     dynamorio.exp
 0002:00064fb7       $N00627                    71118fb7     dynamorio.exp
 0002:00064fc8       $N00628                    71118fc8     dynamorio.exp
 0002:00064fd6       $N00629                    71118fd6     dynamorio.exp
 0002:00064fe8       $N00630                    71118fe8     dynamorio.exp
 0002:00064ffe       $N00631                    71118ffe     dynamorio.exp
 0002:0006500f       $N00632                    7111900f     dynamorio.exp
 0002:00065028       $N00633                    71119028     dynamorio.exp
 0002:00065038       $N00634                    71119038     dynamorio.exp
 0002:0006504c       $N00635                    7111904c     dynamorio.exp
 0002:00065065       $N00636                    71119065     dynamorio.exp
 0002:00065082       $N00637                    71119082     dynamorio.exp
 0002:000650a3       $N00638                    711190a3     dynamorio.exp
 0002:000650b2       $N00639                    711190b2     dynamorio.exp
 0002:000650d3       $N00640                    711190d3     dynamorio.exp
 0002:000650f3       $N00641                    711190f3     dynamorio.exp
 0002:00065115       $N00642                    71119115     dynamorio.exp
 0002:00065136       $N00643                    71119136     dynamorio.exp
 0002:00065145       $N00644                    71119145     dynamorio.exp
 0002:00065158       $N00645                    71119158     dynamorio.exp
 0002:0006516e       $N00646                    7111916e     dynamorio.exp
 0002:0006518a       $N00647                    7111918a     dynamorio.exp
 0002:000651aa       $N00648                    711191aa     dynamorio.exp
 0002:000651c9       $N00649                    711191c9     dynamorio.exp
 0002:000651e3       $N00650                    711191e3     dynamorio.exp
 0002:000651fc       $N00651                    711191fc     dynamorio.exp
 0002:00065211       $N00652                    71119211     dynamorio.exp
 0002:00065225       $N00653                    71119225     dynamorio.exp
 0002:00065237       $N00654                    71119237     dynamorio.exp
 0002:00065248       $N00655                    71119248     dynamorio.exp
 0002:0006525a       $N00656                    7111925a     dynamorio.exp
 0002:00065277       $N00657                    71119277     dynamorio.exp
 0002:00065299       $N00658                    71119299     dynamorio.exp
 0002:000652b5       $N00659                    711192b5     dynamorio.exp
 0002:000652d6       $N00660                    711192d6     dynamorio.exp
 0002:000652de       _isalnum                   711192de     dynamorio.exp
 0002:000652ec       $N00661                    711192ec     dynamorio.exp
 0002:000652f4       _isalpha                   711192f4     dynamorio.exp
 0002:00065302       $N00662                    71119302     dynamorio.exp
 0002:0006530a       _iscntrl                   7111930a     dynamorio.exp
 0002:00065318       $N00663                    71119318     dynamorio.exp
 0002:00065320       _isdigit                   71119320     dynamorio.exp
 0002:0006532e       $N00664                    7111932e     dynamorio.exp
 0002:00065336       _isgraph                   71119336     dynamorio.exp
 0002:00065344       $N00665                    71119344     dynamorio.exp
 0002:0006534c       _islower                   7111934c     dynamorio.exp
 0002:0006535a       $N00666                    7111935a     dynamorio.exp
 0002:00065362       _isprint                   71119362     dynamorio.exp
 0002:00065370       $N00667                    71119370     dynamorio.exp
 0002:00065378       _ispunct                   71119378     dynamorio.exp
 0002:00065386       $N00668                    71119386     dynamorio.exp
 0002:0006538e       _isspace                   7111938e     dynamorio.exp
 0002:0006539c       $N00669                    7111939c     dynamorio.exp
 0002:000653a4       _isupper                   711193a4     dynamorio.exp
 0002:000653b2       $N00670                    711193b2     dynamorio.exp
 0002:000653bb       _iswalpha                  711193bb     dynamorio.exp
 0002:000653ca       $N00671                    711193ca     dynamorio.exp
 0002:000653d3       _iswctype                  711193d3     dynamorio.exp
 0002:000653e2       $N00672                    711193e2     dynamorio.exp
 0002:000653eb       _iswdigit                  711193eb     dynamorio.exp
 0002:000653fa       $N00673                    711193fa     dynamorio.exp
 0002:00065403       _iswlower                  71119403     dynamorio.exp
 0002:00065412       $N00674                    71119412     dynamorio.exp
 0002:0006541b       _iswspace                  7111941b     dynamorio.exp
 0002:0006542a       $N00675                    7111942a     dynamorio.exp
 0002:00065434       _iswxdigit                 71119434     dynamorio.exp
 0002:00065444       $N00676                    71119444     dynamorio.exp
 0002:0006544d       _isxdigit                  7111944d     dynamorio.exp
 0002:0006545c       $N00677                    7111945c     dynamorio.exp
 0002:00065461       _labs                      71119461     dynamorio.exp
 0002:0006546c       $N00678                    7111946c     dynamorio.exp
 0002:00065470       _log                       71119470     dynamorio.exp
 0002:0006547a       $N00679                    7111947a     dynamorio.exp
 0002:00065483       _mbstowcs                  71119483     dynamorio.exp
 0002:00065492       $N00680                    71119492     dynamorio.exp
 0002:00065499       _memchr                    71119499     dynamorio.exp
 0002:000654a6       $N00681                    711194a6     dynamorio.exp
 0002:000654ad       _memcmp                    711194ad     dynamorio.exp
 0002:000654ba       $N00682                    711194ba     dynamorio.exp
 0002:000654c1       _memcpy                    711194c1     dynamorio.exp
 0002:000654ce       $N00683                    711194ce     dynamorio.exp
 0002:000654d6       _memmove                   711194d6     dynamorio.exp
 0002:000654e4       $N00684                    711194e4     dynamorio.exp
 0002:000654eb       _memset                    711194eb     dynamorio.exp
 0002:000654f8       $N00685                    711194f8     dynamorio.exp
 0002:00065507       $N00686                    71119507     dynamorio.exp
 0002:0006551c       $N00687                    7111951c     dynamorio.exp
 0002:00065531       $N00688                    71119531     dynamorio.exp
 0002:00065547       $N00689                    71119547     dynamorio.exp
 0002:00065560       $N00690                    71119560     dynamorio.exp
 0002:00065579       $N00691                    71119579     dynamorio.exp
 0002:00065593       $N00692                    71119593     dynamorio.exp
 0002:000655b0       $N00693                    711195b0     dynamorio.exp
 0002:000655c6       $N00694                    711195c6     dynamorio.exp
 0002:000655d9       $N00695                    711195d9     dynamorio.exp
 0002:000655f1       $N00696                    711195f1     dynamorio.exp
 0002:00065607       $N00697                    71119607     dynamorio.exp
 0002:0006561f       $N00698                    7111961f     dynamorio.exp
 0002:00065636       $N00699                    71119636     dynamorio.exp
 0002:00065648       $N00700                    71119648     dynamorio.exp
 0002:0006565d       $N00701                    7111965d     dynamorio.exp
 0002:00065673       $N00702                    71119673     dynamorio.exp
 0002:00065684       $N00703                    71119684     dynamorio.exp
 0002:00065693       $N00704                    71119693     dynamorio.exp
 0002:000656a3       $N00705                    711196a3     dynamorio.exp
 0002:000656b6       $N00706                    711196b6     dynamorio.exp
 0002:000656ce       $N00707                    711196ce     dynamorio.exp
 0002:000656df       $N00708                    711196df     dynamorio.exp
 0002:000656f0       $N00709                    711196f0     dynamorio.exp
 0002:0006570b       $N00710                    7111970b     dynamorio.exp
 0002:00065719       $N00711                    71119719     dynamorio.exp
 0002:00065727       $N00712                    71119727     dynamorio.exp
 0002:00065735       $N00713                    71119735     dynamorio.exp
 0002:00065744       $N00714                    71119744     dynamorio.exp
 0002:00065759       $N00715                    71119759     dynamorio.exp
 0002:0006576c       $N00716                    7111976c     dynamorio.exp
 0002:00065781       $N00717                    71119781     dynamorio.exp
 0002:00065790       $N00718                    71119790     dynamorio.exp
 0002:0006579f       $N00719                    7111979f     dynamorio.exp
 0002:000657b7       $N00720                    711197b7     dynamorio.exp
 0002:000657c3       $N00721                    711197c3     dynamorio.exp
 0002:000657d0       $N00722                    711197d0     dynamorio.exp
 0002:000657e2       $N00723                    711197e2     dynamorio.exp
 0002:000657f1       $N00724                    711197f1     dynamorio.exp
 0002:00065802       $N00725                    71119802     dynamorio.exp
 0002:0006581c       $N00726                    7111981c     dynamorio.exp
 0002:0006582b       $N00727                    7111982b     dynamorio.exp
 0002:00065839       $N00728                    71119839     dynamorio.exp
 0002:0006584a       $N00729                    7111984a     dynamorio.exp
 0002:0006585c       $N00730                    7111985c     dynamorio.exp
 0002:00065875       $N00731                    71119875     dynamorio.exp
 0002:0006588d       $N00732                    7111988d     dynamorio.exp
 0002:000658a5       $N00733                    711198a5     dynamorio.exp
 0002:000658ba       $N00734                    711198ba     dynamorio.exp
 0002:000658d0       $N00735                    711198d0     dynamorio.exp
 0002:000658e2       $N00736                    711198e2     dynamorio.exp
 0002:000658ff       $N00737                    711198ff     dynamorio.exp
 0002:0006590e       $N00738                    7111990e     dynamorio.exp
 0002:0006591c       $N00739                    7111991c     dynamorio.exp
 0002:00065930       $N00740                    71119930     dynamorio.exp
 0002:00065942       $N00741                    71119942     dynamorio.exp
 0002:00065956       $N00742                    71119956     dynamorio.exp
 0002:00065964       $N00743                    71119964     dynamorio.exp
 0002:00065976       $N00744                    71119976     dynamorio.exp
 0002:0006598f       $N00745                    7111998f     dynamorio.exp
 0002:000659a5       $N00746                    711199a5     dynamorio.exp
 0002:000659bc       $N00747                    711199bc     dynamorio.exp
 0002:000659cf       $N00748                    711199cf     dynamorio.exp
 0002:000659ed       $N00749                    711199ed     dynamorio.exp
 0002:000659fd       $N00750                    711199fd     dynamorio.exp
 0002:00065a0a       $N00751                    71119a0a     dynamorio.exp
 0002:00065a15       $N00752                    71119a15     dynamorio.exp
 0002:00065a21       $N00753                    71119a21     dynamorio.exp
 0002:00065a33       $N00754                    71119a33     dynamorio.exp
 0002:00065a45       $N00755                    71119a45     dynamorio.exp
 0002:00065a59       $N00756                    71119a59     dynamorio.exp
 0002:00065a73       $N00757                    71119a73     dynamorio.exp
 0002:00065a80       $N00758                    71119a80     dynamorio.exp
 0002:00065a93       $N00759                    71119a93     dynamorio.exp
 0002:00065aa4       $N00760                    71119aa4     dynamorio.exp
 0002:00065abc       $N00761                    71119abc     dynamorio.exp
 0002:00065ac6       $N00762                    71119ac6     dynamorio.exp
 0002:00065ad8       $N00763                    71119ad8     dynamorio.exp
 0002:00065ae6       $N00764                    71119ae6     dynamorio.exp
 0002:00065af7       $N00765                    71119af7     dynamorio.exp
 0002:00065b06       $N00766                    71119b06     dynamorio.exp
 0002:00065b14       $N00767                    71119b14     dynamorio.exp
 0002:00065b23       $N00768                    71119b23     dynamorio.exp
 0002:00065b3a       $N00769                    71119b3a     dynamorio.exp
 0002:00065b4f       $N00770                    71119b4f     dynamorio.exp
 0002:00065b61       $N00771                    71119b61     dynamorio.exp
 0002:00065b74       $N00772                    71119b74     dynamorio.exp
 0002:00065b82       $N00773                    71119b82     dynamorio.exp
 0002:00065b86       _pow                       71119b86     dynamorio.exp
 0002:00065b90       $N00774                    71119b90     dynamorio.exp
 0002:00065ba4       $N00775                    71119ba4     dynamorio.exp
 0002:00065bb5       $N00776                    71119bb5     dynamorio.exp
 0002:00065bd4       $N00777                    71119bd4     dynamorio.exp
 0002:00065beb       $N00778                    71119beb     dynamorio.exp
 0002:00065c03       $N00779                    71119c03     dynamorio.exp
 0002:00065c1b       $N00780                    71119c1b     dynamorio.exp
 0002:00065c32       $N00781                    71119c32     dynamorio.exp
 0002:00065c4c       $N00782                    71119c4c     dynamorio.exp
 0002:00065c62       $N00783                    71119c62     dynamorio.exp
 0002:00065c7b       $N00784                    71119c7b     dynamorio.exp
 0002:00065c93       $N00785                    71119c93     dynamorio.exp
 0002:00065cac       $N00786                    71119cac     dynamorio.exp
 0002:00065cbc       $N00787                    71119cbc     dynamorio.exp
 0002:00065ccb       $N00788                    71119ccb     dynamorio.exp
 0002:00065cdd       $N00789                    71119cdd     dynamorio.exp
 0002:00065ceb       $N00790                    71119ceb     dynamorio.exp
 0002:00065cfb       $N00791                    71119cfb     dynamorio.exp
 0002:00065d0c       $N00792                    71119d0c     dynamorio.exp
 0002:00065d22       $N00793                    71119d22     dynamorio.exp
 0002:00065d3c       $N00794                    71119d3c     dynamorio.exp
 0002:00065d54       $N00795                    71119d54     dynamorio.exp
 0002:00065d68       $N00796                    71119d68     dynamorio.exp
 0002:00065d7d       $N00797                    71119d7d     dynamorio.exp
 0002:00065d8f       $N00798                    71119d8f     dynamorio.exp
 0002:00065d9f       $N00799                    71119d9f     dynamorio.exp
 0002:00065da5       _qsort                     71119da5     dynamorio.exp
 0002:00065db1       $N00800                    71119db1     dynamorio.exp
 0002:00065dbe       $N00801                    71119dbe     dynamorio.exp
 0002:00065dca       $N00802                    71119dca     dynamorio.exp
 0002:00065dd9       $N00803                    71119dd9     dynamorio.exp
 0002:00065de6       $N00804                    71119de6     dynamorio.exp
 0002:00065df3       $N00805                    71119df3     dynamorio.exp
 0002:00065e01       $N00806                    71119e01     dynamorio.exp
 0002:00065e12       $N00807                    71119e12     dynamorio.exp
 0002:00065e1f       $N00808                    71119e1f     dynamorio.exp
 0002:00065e2c       $N00809                    71119e2c     dynamorio.exp
 0002:00065e37       $N00810                    71119e37     dynamorio.exp
 0002:00065e41       $N00811                    71119e41     dynamorio.exp
 0002:00065e4c       $N00812                    71119e4c     dynamorio.exp
 0002:00065e57       $N00813                    71119e57     dynamorio.exp
 0002:00065e65       $N00814                    71119e65     dynamorio.exp
 0002:00065e7a       $N00815                    71119e7a     dynamorio.exp
 0002:00065e89       $N00816                    71119e89     dynamorio.exp
 0002:00065e95       $N00817                    71119e95     dynamorio.exp
 0002:00065ea3       $N00818                    71119ea3     dynamorio.exp
 0002:00065eb7       $N00819                    71119eb7     dynamorio.exp
 0002:00065ecb       $N00820                    71119ecb     dynamorio.exp
 0002:00065edf       $N00821                    71119edf     dynamorio.exp
 0002:00065ef2       $N00822                    71119ef2     dynamorio.exp
 0002:00065efd       $N00823                    71119efd     dynamorio.exp
 0002:00065f08       $N00824                    71119f08     dynamorio.exp
 0002:00065f14       $N00825                    71119f14     dynamorio.exp
 0002:00065f26       $N00826                    71119f26     dynamorio.exp
 0002:00065f39       $N00827                    71119f39     dynamorio.exp
 0002:00065f47       $N00828                    71119f47     dynamorio.exp
 0002:00065f58       $N00829                    71119f58     dynamorio.exp
 0002:00065f6d       $N00830                    71119f6d     dynamorio.exp
 0002:00065f71       _sin                       71119f71     dynamorio.exp
 0002:00065f7b       $N00831                    71119f7b     dynamorio.exp
 0002:00065f80       _sqrt                      71119f80     dynamorio.exp
 0002:00065f8b       $N00832                    71119f8b     dynamorio.exp
 0002:00065f92       _strchr                    71119f92     dynamorio.exp
 0002:00065f9f       $N00833                    71119f9f     dynamorio.exp
 0002:00065fa6       _strcmp                    71119fa6     dynamorio.exp
 0002:00065fb3       $N00834                    71119fb3     dynamorio.exp
 0002:00065fbb       _strcspn                   71119fbb     dynamorio.exp
 0002:00065fc9       $N00835                    71119fc9     dynamorio.exp
 0002:00065fd0       _strlen                    71119fd0     dynamorio.exp
 0002:00065fdd       $N00836                    71119fdd     dynamorio.exp
 0002:00065fe5       _strncat                   71119fe5     dynamorio.exp
 0002:00065ff3       $N00837                    71119ff3     dynamorio.exp
 0002:00065ffb       _strncmp                   71119ffb     dynamorio.exp
 0002:00066009       $N00838                    7111a009     dynamorio.exp
 0002:00066011       _strncpy                   7111a011     dynamorio.exp
 0002:0006601f       $N00839                    7111a01f     dynamorio.exp
 0002:00066027       _strpbrk                   7111a027     dynamorio.exp
 0002:00066035       $N00840                    7111a035     dynamorio.exp
 0002:0006603d       _strrchr                   7111a03d     dynamorio.exp
 0002:0006604b       $N00841                    7111a04b     dynamorio.exp
 0002:00066052       _strspn                    7111a052     dynamorio.exp
 0002:0006605f       $N00842                    7111a05f     dynamorio.exp
 0002:00066066       _strstr                    7111a066     dynamorio.exp
 0002:00066073       $N00843                    7111a073     dynamorio.exp
 0002:0006607a       _strtol                    7111a07a     dynamorio.exp
 0002:00066087       $N00844                    7111a087     dynamorio.exp
 0002:0006608f       _strtoul                   7111a08f     dynamorio.exp
 0002:0006609d       $N00845                    7111a09d     dynamorio.exp
 0002:000660a1       _tan                       7111a0a1     dynamorio.exp
 0002:000660ab       $N00846                    7111a0ab     dynamorio.exp
 0002:000660b3       _tolower                   7111a0b3     dynamorio.exp
 0002:000660c1       $N00847                    7111a0c1     dynamorio.exp
 0002:000660c9       _toupper                   7111a0c9     dynamorio.exp
 0002:000660d7       $N00848                    7111a0d7     dynamorio.exp
 0002:000660e0       _towlower                  7111a0e0     dynamorio.exp
 0002:000660ef       $N00849                    7111a0ef     dynamorio.exp
 0002:000660f8       _towupper                  7111a0f8     dynamorio.exp
 0002:00066107       $N00850                    7111a107     dynamorio.exp
 0002:0006611b       $N00851                    7111a11b     dynamorio.exp
 0002:00066122       _wcscat                    7111a122     dynamorio.exp
 0002:0006612f       $N00852                    7111a12f     dynamorio.exp
 0002:00066136       _wcschr                    7111a136     dynamorio.exp
 0002:00066143       $N00853                    7111a143     dynamorio.exp
 0002:0006614a       _wcscmp                    7111a14a     dynamorio.exp
 0002:00066157       $N00854                    7111a157     dynamorio.exp
 0002:0006615e       _wcscpy                    7111a15e     dynamorio.exp
 0002:0006616b       $N00855                    7111a16b     dynamorio.exp
 0002:00066173       _wcscspn                   7111a173     dynamorio.exp
 0002:00066181       $N00856                    7111a181     dynamorio.exp
 0002:00066188       _wcslen                    7111a188     dynamorio.exp
 0002:00066195       $N00857                    7111a195     dynamorio.exp
 0002:0006619d       _wcsncat                   7111a19d     dynamorio.exp
 0002:000661ab       $N00858                    7111a1ab     dynamorio.exp
 0002:000661b3       _wcsncmp                   7111a1b3     dynamorio.exp
 0002:000661c1       $N00859                    7111a1c1     dynamorio.exp
 0002:000661c9       _wcsncpy                   7111a1c9     dynamorio.exp
 0002:000661d7       $N00860                    7111a1d7     dynamorio.exp
 0002:000661df       _wcspbrk                   7111a1df     dynamorio.exp
 0002:000661ed       $N00861                    7111a1ed     dynamorio.exp
 0002:000661f5       _wcsrchr                   7111a1f5     dynamorio.exp
 0002:00066203       $N00862                    7111a203     dynamorio.exp
 0002:0006620a       _wcsspn                    7111a20a     dynamorio.exp
 0002:00066217       $N00863                    7111a217     dynamorio.exp
 0002:0006621e       _wcsstr                    7111a21e     dynamorio.exp
 0002:0006622b       $N00864                    7111a22b     dynamorio.exp
 0002:00066232       _wcstol                    7111a232     dynamorio.exp
 0002:0006623f       $N00865                    7111a23f     dynamorio.exp
 0002:00066248       _wcstombs                  7111a248     dynamorio.exp
 0002:00066257       $N00866                    7111a257     dynamorio.exp
 0002:0006625f       _wcstoul                   7111a25f     dynamorio.exp
 0002:00067f5c       .idata$6                   7111bf5c     ntdll_imports:ntdll.dll
 0003:0000a12c       _a2c_sentinel              7112612c     fragment.obj
 0003:0000a144       _exception_report_url      71126144     utils.obj
 0003:0000a148       _PADDING                   71126148     utils.obj
 0003:0000a188       _heapmgt                   71126188     heap.obj
 0003:0000a18c       _perscache_user_directory  7112618c     perscache.obj
 0003:0000a194       _bbdump_file               71126194     interp.obj
 0003:0000a204       ?strings@?1??proc_get_cache_size_str@@9@9 71126204     proc_shared.obj
 0003:0000a22c       _selfmod_s2ro              7112622c     mangle.obj
 0003:0000a230       _selfmod_eflags            71126230     mangle.obj
 0003:0000a240       _hello_message             71126240     eventlog.obj
 0003:0000a294       _early_inject_location     71126294     os.obj
 0003:0000a298       ?sygate_term_thread_args@?1??os_terminate_static_arguments@@9@9 71126298     os.obj
 0003:0000a2a8       ?sygate_term_proc_args@?1??os_terminate_static_arguments@@9@9 711262a8     os.obj
 0003:0000a2b8       ?custom_term_proc_args@?1??os_terminate_static_arguments@@9@9 711262b8     os.obj
 0003:0000a2c8       _highest_user_address      711262c8     os.obj
 0003:0000a2cc       ?user_directory_has_ownership@?1??os_user_directory_supports_ownership@@9@9 711262cc     os.obj
 0003:0000cd50       _syscall_requires_action   71128d50     syscall.obj
 0003:0000ce60       _interception_point        71128e60     callback.obj
 0003:0000ce64       ?in_svchost@?1??intercept_unload_dll@@9@9 71128e64     callback.obj
 0003:0000ce6c       _nt_wrappers_intercepted   71128e6c     ntdll.obj
 0003:0000ce70       ?ki_fastsyscall_addr@?1??use_ki_syscall_routines@@9@9 71128e70     ntdll.obj
 0003:0000ce74       ?months@?1??report_intro@@9@9 71128e74     diagnost.obj
 0003:0000d815       _dynamo_options_initialized 71129815     dynamo.obj
 0003:0000d816       ?have_taken_over@?1??dynamorio_app_take_over_helper@@9@9 71129816     dynamo.obj
 0003:0000d818       _dr_earliest_inject_args   71129818     dynamo.obj
 0003:0000d81c       _standalone_init_count     7112981c     dynamo.obj
 0003:0000d820       _datasec_start             71129820     dynamo.obj
 0003:0000d830       _datasec_end               71129830     dynamo.obj
 0003:0000d840       _protect_info              71129840     dynamo.obj
 0003:0000d844       _shared_bb                 71129844     fragment.obj
 0003:0000d848       _shared_trace              71129848     fragment.obj
 0003:0000d84c       _shared_future             7112984c     fragment.obj
 0003:0000d850       _shared_pt                 71129850     fragment.obj
 0003:0000d854       _dead_lists                71129854     fragment.obj
 0003:0000d858       _a2c_empty                 71129858     fragment.obj
 0003:0000d860       _allunits                  71129860     fcache.obj
 0003:0000d864       _shared_cache_bb           71129864     fcache.obj
 0003:0000d868       _shared_cache_trace        71129868     fcache.obj
 0003:0000d86c       _coarse_stub_areas         7112986c     link.obj
 0003:0000d870       ?do_once@?2??external_error@@9@9 71129870     utils.obj
 0003:0000d874       _spinlock_count            71129874     utils.obj
 0003:0000d878       _display_version           71129878     utils.obj
 0003:0000d8d8       _exception_prefix          711298d8     utils.obj
 0003:0000d9dc       _logdir_initialized        711299dc     utils.obj
 0003:0000d9dd       _basedir_initialized       711299dd     utils.obj
 0003:0000d9e0       _client_exception_prefix   711299e0     utils.obj
 0003:0000dae8       _logdir                    71129ae8     utils.obj
 0003:0000dbf0       _basedir                   71129bf0     utils.obj
 0003:0000dcf8       _old_basedir               71129cf8     utils.obj
 0003:0000ddfc       ?exe_md5@?1??get_application_md5@@9@9 71129dfc     utils.obj
 0003:0000de20       _myvals                    71129e20     config.obj
 0003:00013e44       _config_initialized        7112fe44     config.obj
 0003:00013e48       _config                    7112fe48     config.obj
 0003:0001485c       _config_reread_info        7113085c     config.obj
 0003:00014860       _config_reread_vals        71130860     config.obj
 0003:00014868       _kstat_frequency_per_msec  71130868     stats.obj
 0003:00014870       ?kstats_calibrated@?1??kstat_calibrate@@9@9 71130870     stats.obj
 0003:00014878       _temp_heapmgt              71130878     heap.obj
 0003:00014a04       _heap_exiting              71130a04     heap.obj
 0003:00014a05       _vmm_heap_exited           71130a05     heap.obj
 0003:00014a08       _lpad_temp_writable_start  71130a08     heap.obj
 0003:00014a0c       _lpad_temp_writable_size   71130a0c     heap.obj
 0003:00014a14       _executable_areas          71130a14     vmareas.obj
 0003:00014a18       _dynamo_areas              71130a18     vmareas.obj
 0003:00014a1c       _coarse_to_delete          71130a1c     vmareas.obj
 0003:00014a20       _pretend_writable_areas    71130a20     vmareas.obj
 0003:00014a24       _written_areas             71130a24     vmareas.obj
 0003:00014a28       _tamper_resistant_region_start 71130a28     vmareas.obj
 0003:00014a2c       _tamper_resistant_region_end 71130a2c     vmareas.obj
 0003:00014a30       _shared_data               71130a30     vmareas.obj
 0003:00014a34       _todelete                  71130a34     vmareas.obj
 0003:00014a38       _last_deallocated          71130a38     vmareas.obj
 0003:00014a3c       _exemption_lists           71130a3c     moduledb.obj
 0003:00014a48       _started_detach            71130a48     synch.obj
 0003:00014a50       _modlist                   71130a50     loader_shared.obj
 0003:00014a54       _modlist_tail              71130a54     loader_shared.obj
 0003:00014a58       _privmod_static            71130a58     loader_shared.obj
 0003:00015378       _past_initial_libs         71131378     loader_shared.obj
 0003:00015380       ?do_once@?2??d_r_set_avx512_code_in_use@@9@9 71131380     instrument.obj
 0003:00015384       _exit_callbacks            71131384     instrument.obj
 0003:00015390       _thread_init_callbacks     71131390     instrument.obj
 0003:0001539c       _thread_exit_callbacks     7113139c     instrument.obj
 0003:000153a8       _low_on_memory_callbacks   711313a8     instrument.obj
 0003:000153b4       _bb_callbacks              711313b4     instrument.obj
 0003:000153c0       _trace_callbacks           711313c0     instrument.obj
 0003:000153cc       _end_trace_callbacks       711313cc     instrument.obj
 0003:000153d8       _fragdel_callbacks         711313d8     instrument.obj
 0003:000153e4       _restore_state_callbacks   711313e4     instrument.obj
 0003:000153f0       _restore_state_ex_callbacks 711313f0     instrument.obj
 0003:000153fc       _module_load_callbacks     711313fc     instrument.obj
 0003:00015408       _module_unload_callbacks   71131408     instrument.obj
 0003:00015414       _filter_syscall_callbacks  71131414     instrument.obj
 0003:00015420       _pre_syscall_callbacks     71131420     instrument.obj
 0003:0001542c       _post_syscall_callbacks    7113142c     instrument.obj
 0003:00015438       _kernel_xfer_callbacks     71131438     instrument.obj
 0003:00015444       _exception_callbacks       71131444     instrument.obj
 0003:00015450       _clean_call_insertion_callbacks 71131450     instrument.obj
 0003:0001545c       _persist_ro_size_callbacks 7113145c     instrument.obj
 0003:00015468       _persist_ro_callbacks      71131468     instrument.obj
 0003:00015474       _resurrect_ro_callbacks    71131474     instrument.obj
 0003:00015480       _persist_rx_size_callbacks 71131480     instrument.obj
 0003:0001548c       _persist_rx_callbacks      7113148c     instrument.obj
 0003:00015498       _resurrect_rx_callbacks    71131498     instrument.obj
 0003:000154a4       _persist_rw_size_callbacks 711314a4     instrument.obj
 0003:000154b0       _persist_rw_callbacks      711314b0     instrument.obj
 0003:000154bc       _resurrect_rw_callbacks    711314bc     instrument.obj
 0003:000154c8       _persist_patch_callbacks   711314c8     instrument.obj
 0003:000154d4       _num_client_libs           711314d4     instrument.obj
 0003:000154d8       _client_libs               711314d8     instrument.obj
 0003:00026758       _persist_user_data         71142758     instrument.obj
 0003:00026798       _print_to_console          71142798     instrument.obj
 0003:00026799       _block_client_nudge_threads 71142799     instrument.obj
 0003:0002679a       _track_where_am_i          7114279a     instrument.obj
 0003:0002679c       _priv_kernel32             7114279c     instrument.obj
 0003:000267a0       _kernel32_WriteFile        711427a0     instrument.obj
 0003:000267a4       _client_aux_libs           711427a4     instrument.obj
 0003:000267a8       _handlers                  711427a8     annotations.obj
 0003:000267ac       _vg_handlers               711427ac     annotations.obj
 0003:000267b0       _vg_router                 711427b0     annotations.obj
 0003:000267c8       _vg_receiver               711427c8     annotations.obj
 0003:000267d4       _vg_router_arg             711427d4     annotations.obj
 0003:000267e0       _fragment_tree             711427e0     jit_opt.obj
 0003:000267f4       _syscall_method            711427f4     arch.obj
 0003:000267f8       ?selfmod_init@?1??arch_thread_init@@9@9 711427f8     arch.obj
 0003:000267fc       ?do_once@?3??check_syscall_method@@9@9 711427fc     arch.obj
 0003:00026800       ?do_once@?P@??check_syscall_method@@9@9 71142800     arch.obj
 0003:00026804       _initexit_isa_mode         71142804     decode_shared.obj
 0003:00026808       ?do_once@?2??d_r_set_avx512_code_in_use@@9@9 71142808     interp.obj
 0003:0002680c       _reached_image_entry       7114280c     interp.obj
 0003:00026810       _mask                      71142810     proc_shared.obj
 0003:00026814       _avx_enabled               71142814     proc.obj
 0003:00026815       _avx512_enabled            71142815     proc.obj
 0003:00026818       _num_simd_saved            71142818     proc.obj
 0003:0002681c       _num_simd_registers        7114281c     proc.obj
 0003:00026820       _num_simd_sse_avx_registers 71142820     proc.obj
 0003:00026824       _num_simd_sse_avx_saved    71142824     proc.obj
 0003:00026828       _num_opmask_registers      71142828     proc.obj
 0003:0002682c       _xstate_area_kmask_offs    7114282c     proc.obj
 0003:00026830       _xstate_area_zmm_hi256_offs 71142830     proc.obj
 0003:00026834       _xstate_area_hi16_zmm_offs 71142834     proc.obj
 0003:00026838       ?buf@?1??set_selfmod_sandbox_offsets@@9@9 71142838     mangle.obj
 0003:00026938       _callee_info_table         71142938     clean_call_opt_shared.obj
 0003:0002693c       _callee_info_table_exit    7114293c     clean_call_opt_shared.obj
 0003:00026940       ?initialized@?1??init_registry_source@@9@9 71142940     eventlog.obj
 0003:00026944       ?computer_name@?1??get_computer_name@@9@9 71142944     eventlog.obj
 0003:00026958       _shared_eventlog_connection 71142958     eventlog.obj
 0003:00026960       _temp_shared_eventlog_connection 71142960     eventlog.obj
 0003:000271b4       _os_version                711431b4     os.obj
 0003:000271b8       _os_service_pack_major     711431b8     os.obj
 0003:000271bc       _os_service_pack_minor     711431bc     os.obj
 0003:000271c0       _os_build_number           711431c0     os.obj
 0003:000271c4       _os_name                   711431c4     os.obj
 0003:000271c8       _os_release_id             711431c8     os.obj
 0003:00027208       _os_edition                71143208     os.obj
 0003:00027248       _os_name_buf               71143248     os.obj
 0003:0002734c       _dynamo_dll_preferred_base 7114334c     os.obj
 0003:00027350       _tls_local_state_offs      71143350     os.obj
 0003:00027352       _internal_detach           71143352     os.obj
 0003:00027354       _tls_dcontext_offs         71143354     os.obj
 0003:00027358       _early_inject_address      71143358     os.obj
 0003:0002735c       _ldrpLoadDll_address_not_NT 7114335c     os.obj
 0003:00027360       _ldrpLoadDll_address_NT    71143360     os.obj
 0003:00027364       _ldrpLoadImportModule_address 71143364     os.obj
 0003:00027368       _cwd                       71143368     os.obj
 0003:0002746c       _global_profile            7114346c     os.obj
 0003:00027470       _dynamo_dll_profile        71143470     os.obj
 0003:00027474       _ntdll_profile             71143474     os.obj
 0003:00027478       _takeover_table            71143478     os.obj
 0003:0002747c       ?app_start@?1??get_application_base@@9@9 7114347c     os.obj
 0003:00027480       _dynamorio_library_path    71143480     os.obj
 0003:00027584       ?app_end@?1??get_application_end@@9@9 71143584     os.obj
 0003:00027588       ?image_entry_point@?1??get_image_entry@@9@9 71143588     os.obj
 0003:0002758c       ?num_cpu@?1??get_num_processors@@9@9 7114358c     os.obj
 0003:00027590       _debugbox_title_buf        71143590     os.obj
 0003:00027818       ?do_once@?BC@??os_wait_event@@9@9 71143818     os.obj
 0003:0002781c       ?everyone_SID@?1??get_Everyone_SID@@9@9 7114381c     os.obj
 0003:00027820       ?process_SID@?1??get_process_SID_string@@9@9 71143820     os.obj
 0003:000278f0       ?everyone_buf@?1??get_Everyone_SID@@9@9 711438f0     os.obj
 0003:000278fc       ?owner_SID@?1??get_process_owner_SID@@9@9 711438fc     os.obj
 0003:00027900       ?owner_buf@?1??get_process_owner_SID@@9@9 71143900     os.obj
 0003:0002795c       _syscall_extra_idx         7114395c     syscall.obj
 0003:00027960       _syscall_trampoline_pc     71143960     syscall.obj
 0003:00027a6c       _handle2tid_table          71143a6c     syscall.obj
 0003:00027a70       _syscall_trampoline_skip_pc 71143a70     syscall.obj
 0003:00027b80       _syscall_trampoline_hook_pc 71143b80     syscall.obj
 0003:00027c90       _syscall_trampoline_copy_pc 71143c90     syscall.obj
 0003:00028002       ?image_entry_hooked@?1??insert_image_entry_trampoline@@9@9 71144002     callback.obj
 0003:00029000       _interception_code_array   71145000     callback.obj
 0003:00031000       _interception_code         7114d000     callback.obj
 0003:00031004       _interception_cur_pc       7114d004     callback.obj
 0003:00031008       _ldr_init_pc               7114d008     callback.obj
 0003:0003100c       _callback_pc               7114d00c     callback.obj
 0003:00031010       _apc_pc                    7114d010     callback.obj
 0003:00031014       _exception_pc              7114d014     callback.obj
 0003:00031018       _raise_exception_pc        7114d018     callback.obj
 0003:0003101c       _after_callback_orig_pc    7114d01c     callback.obj
 0003:00031020       _after_apc_orig_pc         7114d020     callback.obj
 0003:00031024       _load_dll_pc               7114d024     callback.obj
 0003:00031028       _unload_dll_pc             7114d028     callback.obj
 0003:0003102c       _image_entry_pc            7114d02c     callback.obj
 0003:00031030       _image_entry_trampoline    7114d030     callback.obj
 0003:00031034       _syscall_trampolines_start 7114d034     callback.obj
 0003:00031038       _syscall_trampolines_end   7114d038     callback.obj
 0003:0003103c       _intercept_map             7114d03c     callback.obj
 0003:00031040       _LdrInitializeThunk        7114d040     callback.obj
 0003:00031044       _RtlUserThreadStart        7114d044     callback.obj
 0003:00031048       _KiFastSystemCall          7114d048     callback.obj
 0003:0003104c       _apc_context_xsp_offs      7114d04c     callback.obj
 0003:00031050       ?do_once@?2??internal_dynamo_exception@@9@9 7114d050     callback.obj
 0003:00031054       ?do_once@?5??callback_setup@@9@9 7114d054     callback.obj
 0003:00031058       ?ntcall@?1??nt_wow64_read_virtual_memory64@@9@9 7114d058     ntdll_shared.obj
 0003:0003105c       ?ntcall@?1??nt_wow64_write_virtual_memory64@@9@9 7114d05c     ntdll_shared.obj
 0003:00031060       ?ntcall@?1??nt_wow64_query_info_process64@@9@9 7114d060     ntdll_shared.obj
 0003:00031078       _dr_which_syscall_t        7114d078     ntdll.obj
 0003:0003107c       _own_peb                   7114d07c     ntdll.obj
 0003:00031080       _ntdll_base                7114d080     ntdll.obj
 0003:00031084       ?ntdll_end@?1??is_in_ntdll@@9@9 7114d084     ntdll.obj
 0003:00031088       _alt_tls_spare_taken       7114d088     ntdll.obj
 0003:00031091       ?self_init@?1??is_wow64_process@@9@9 7114d091     ntdll.obj
 0003:00031092       ?self_is_wow64@?1??is_wow64_process@@9@9 7114d092     ntdll.obj
 0003:00031094       ?primary_SID@?1??get_process_primary_SID@@9@9 7114d094     ntdll.obj
 0003:00031098       ?buf@?1??get_process_primary_SID@@9@9 7114d098     ntdll.obj
 0003:000310e8       ?exename@?1??get_application_name@@9@9 7114d0e8     ntdll.obj
 0003:000311f0       ?short_exename@?1??get_application_short_name@@9@9 7114d1f0     ntdll.obj
 0003:000312f8       ?short_unqual_exename@?1??get_application_short_unqualified_name@@9@9 7114d2f8     ntdll.obj
 0003:000313fc       ?pidstr@?1??get_application_pid@@9@9 7114d3fc     ntdll.obj
 0003:0003140c       _addr_getprocaddr          7114d40c     inject.obj
 0003:00031410       _addr_loadlibrarya         7114d410     inject.obj
 0003:00031414       _inject_initialized        7114d414     inject.obj
 0003:00031418       ?full_qualified_name@?1??get_own_qualified_name@@9@9 7114d418     inject_shared.obj
 0003:00031620       ?full_unqualified_name@?1??get_own_unqualified_name@@9@9 7114d620     inject_shared.obj
 0003:00031828       ?short_qualified_name@?1??get_own_short_qualified_name@@9@9 7114d828     inject_shared.obj
 0003:00031a30       ?short_unqualified_name@?1??get_own_short_unqualified_name@@9@9 7114da30     inject_shared.obj
 0003:00031c38       _section2file_table        7114dc38     module.obj
 0003:00031c3c       _DR_module                 7114dc3c     module.obj
 0003:00031c40       ?context64_size@?1??nt_get_context64_size@@9@9 7114dc40     module_shared.obj
 0003:00031c44       _aslr_last_dll_bounds      7114dc44     aslr.obj
 0003:00031c48       ?unique@?5??calculate_publish_name@@9@9 7114dc48     aslr.obj
 0003:00031c50       _tls_next_idx              7114dc50     loader.obj
 0003:00031c54       _tls_array_count           7114dc54     loader.obj
 0003:00031c58       _systemroot                7114dc58     loader.obj
 0003:00031d5c       _windbg_cmds_initialized   7114dd5c     loader.obj
 0003:00031d5d       _private_peb_initialized   7114dd5d     loader.obj
 0003:00031d60       _private_peb               7114dd60     loader.obj
 0003:00031d64       _pre_fls_data              7114dd64     loader.obj
 0003:00031d68       _pre_nt_rpc                7114dd68     loader.obj
 0003:00031d6c       _pre_nls_cache             7114dd6c     loader.obj
 0003:00031d70       _pre_static_tls            7114dd70     loader.obj
 0003:00031d74       _ntdll_NtTickCount         7114dd74     loader.obj
 0003:00031d78       _kernel32_AttachConsole    7114dd78     loader.obj
 0003:00031d7c       _kernel32_FreeConsole      7114dd7c     loader.obj
 0003:00031d80       _bootstrap_ProtectVirtualMemory 7114dd80     loader.obj
 0003:00031d84       _ntdll_table               7114dd84     ntdll_redir.obj
 0003:00031d88       _ntdll_win7_table          7114dd88     ntdll_redir.obj
 0003:00031d8c       _kernel32_table            7114dd8c     kernel32_redir.obj
 0003:00031d90       _priv_kernel32_GetModuleHandleA 7114dd90     kernel32_lib.obj
 0003:00031d94       _priv_kernel32_GetModuleHandleW 7114dd94     kernel32_lib.obj
 0003:00031d98       _priv_kernel32_GetProcAddress 7114dd98     kernel32_lib.obj
 0003:00031d9c       _priv_kernel32_LoadLibraryA 7114dd9c     kernel32_lib.obj
 0003:00031da0       _priv_kernel32_LoadLibraryW 7114dda0     kernel32_lib.obj
 0003:00031da4       _magic_val                 7114dda4     kernel32_mem.obj
 0003:00031da8       _priv_kernel32_OpenConsoleW 7114dda8     kernel32_file.obj
 0003:00031dac       _base_named_obj_dir        7114ddac     kernel32_file.obj
 0003:00031db0       _base_named_pipe_dir       7114ddb0     kernel32_file.obj
 0003:00031db4       ?pipe_counter@?1??redirect_CreatePipe@@9@9 7114ddb4     kernel32_file.obj
 0003:00031db8       _rpcrt4_table              7114ddb8     rpcrt4_redir.obj
 0003:00031dbc       _advapi32_table            7114ddbc     advapi32_redir.obj
 0004:00000804       _num_known_threads         7115a804     dynamo.obj
 0004:00000808       _threads_ever_count        7115a808     dynamo.obj
 0004:0000080c       _reset_at_nth_thread_triggered 7115a80c     dynamo.obj
 0004:00000810       _coarse_emit_fragment      7115a810     fragment.obj
 0004:00000854       _flusher                   7115a854     fragment.obj
 0004:00000858       _allsynch_flusher          7115a858     fragment.obj
 0004:0000085c       _flush_base                7115a85c     fragment.obj
 0004:00000860       _flush_size                7115a860     fragment.obj
 0004:00000864       _tcount                    7115a864     fragment.obj
 0004:00000880       _temp_targetf              7115a880     link.obj
 0004:000008a0       _temp_linkstub             7115a8a0     link.obj
 0004:000008b0       _random_seed               7115a8b0     utils.obj
 0004:000008b8       ?do_threshold_mutex@?N@??vmm_heap_reserve@@9@9 7115a8b8     heap.obj
 0004:000008c0       ?do_threshold_mutex@?7??vmm_heap_commit@@9@9 7115a8c0     heap.obj
 0004:000008c8       _dynamo_areas_pending_remove 7115a8c8     heap.obj
 0004:000008cc       ?do_once@?4??vmm_heap_reserve@@9@9 7115a8cc     heap.obj
 0004:000008d0       ?do_threshold_cur@?N@??vmm_heap_reserve@@9@9 7115a8d0     heap.obj
 0004:000008d4       ?do_once@?BC@??vmm_heap_reserve@@9@9 7115a8d4     heap.obj
 0004:000008d8       ?do_once@?BJ@??vmm_heap_reserve@@9@9 7115a8d8     heap.obj
 0004:000008dc       ?do_threshold_cur@?7??vmm_heap_commit@@9@9 7115a8dc     heap.obj
 0004:000008e0       ?do_once@?N@??vmm_heap_commit@@9@9 7115a8e0     heap.obj
 0004:000008e4       _dynamo_areas_uptodate     7115a8e4     vmareas.obj
 0004:000008e5       _do_once_DllMain           7115a8e5     os.obj
 0005:00000020       _thread_in_DR_exclusion    7115b020     dynamo.obj
 0005:00000040       _dead_tables_lock          7115b040     fragment.obj
 0005:00000048       _tracedump_mutex           7115b048     fragment.obj
 0005:00000064       _allunits_lock             7115b064     fcache.obj
 0005:0000006c       _unit_flush_lock           7115b06c     fcache.obj
 0005:0000008c       _report_buf_lock           7115b08c     utils.obj
 0005:00000094       _prng_lock                 7115b094     utils.obj
 0005:0000009c       _logdir_mutex              7115b09c     utils.obj
 0005:000000ac       _report_buf_lock_owner     7115b0ac     utils.obj
 0005:000000b8       _heap_unit_lock            7115b0b8     heap.obj
 0005:000000c8       _global_alloc_lock         7115b0c8     heap.obj
 0005:000000d8       _low_on_memory_pending_lock 7115b0d8     heap.obj
 0005:000000e8       _special_units_list_lock   7115b0e8     heap.obj
 0005:000000f0       _special_units_list        7115b0f0     heap.obj
 0005:000000fc       _last_deallocated_lock     7115b0fc     vmareas.obj
 0005:00000104       _lazy_delete_lock          7115b104     vmareas.obj
 0005:00000150       _dynamo_detaching_flag     7115b150     synch.obj
 0005:0000016c       _callback_registration_lock 7115b16c     instrument.obj
 0005:00000188       _num_client_nudge_threads  7115b188     instrument.obj
 0005:0000018c       _num_client_sideline_threads 7115b18c     instrument.obj
 0005:00000190       _client_thread_count_lock  7115b190     instrument.obj
 0005:00000198       _client_aux_lib64_lock     7115b198     instrument.obj
 0005:000001a8       _dump_core_lock            7115b1a8     os.obj
 0005:000001b0       _debugbox_lock             7115b1b0     os.obj
 0005:000001c0       _dynamo_detaching_flag     7115b1c0     os.obj
 0005:000001c4       _map_intercept_pc_lock     7115b1c4     callback.obj
 0005:000001cc       _emulate_write_lock        7115b1cc     callback.obj
 0005:000001d4       _exception_stack_lock      7115b1d4     callback.obj
 0005:000001dc       _intercept_hook_lock       7115b1dc     callback.obj
 0005:000001e4       _alt_tls_lock              7115b1e4     ntdll.obj
 0005:000001ec       _reg_mutex                 7115b1ec     diagnost.obj
 0005:000001f4       _aslr_lock                 7115b1f4     aslr.obj
 0005:000001fc       _localheap_lock            7115b1fc     kernel32_mem.obj
 0006:00000000       _nonshared_stats           7115c000     dynamo.obj
 0006:00000f38       _datasec_lock              7115cf38     dynamo.obj
 0006:00000f74       _flush_threads             7115cf74     fragment.obj
 0006:00000f78       _flush_num_threads         7115cf78     fragment.obj
 0006:00000f7c       _pending_delete_threads    7115cf7c     fragment.obj
 0006:00000f80       _shared_flushed            7115cf80     fragment.obj
 0006:00000f84       _flush_synchall            7115cf84     fragment.obj
 0006:00000f88       _reportbuf                 7115cf88     utils.obj
 0006:00001fb0       _wow64_syscall_stack_array 7115dfb0     os.obj
 0006:00001fc4       ?dmp_file@?1??os_dump_core_live_dump@@9@9 7115dfc4     os.obj
 0006:00001fc8       _debugbox_msg_buf          7115dfc8     os.obj
 0006:00002fc8       _dump_core_buf             7115efc8     os.obj
 0006:000030c8       _dump_core_file_name       7115f0c8     os.obj
 0006:000031cc       ?mbi@?1??os_dump_core_live_dump@@9@9 7115f1cc     os.obj
 0006:000031e8       ?cxt@?1??os_dump_core_live_dump@@9@9 7115f1e8     os.obj
 0006:000034b4       ?tr@?1??os_dump_core_live_dump@@9@9 7115f4b4     os.obj
 0006:000034b8       ?my_tr@?1??os_dump_core_live_dump@@9@9 7115f4b8     os.obj
 0006:000034bc       ?i@?1??os_dump_core_live_dump@@9@9 7115f4bc     os.obj
 0006:000034c0       ?my_id@?1??os_dump_core_live_dump@@9@9 7115f4c0     os.obj
 0006:000034c4       ?have_all_threads_lock@?1??os_dump_core_live_dump@@9@9 7115f4c4     os.obj
 0006:000034c8       ?pb@?1??os_dump_core_live_dump@@9@9 7115f4c8     os.obj
 0006:000034cc       ?current_dumping_thread_id@?1??os_dump_core_internal@@9@9 7115f4cc     os.obj
 0006:000034d0       _threads_waiting_count     7115f4d0     callback.obj
 0006:000034d8       _threads_waiting_for_dr_init 7115f4d8     callback.obj
 0006:000036d8       _is_readable_buf           7115f6d8     module_shared.obj
 0006:000036e0       _diagnostic_key_info       7115f6e0     diagnost.obj
 0006:000038f8       _diagnostic_value_info     7115f8f8     diagnost.obj
 0006:00003b00       _keyinfo_name              7115fb00     diagnost.obj
 0006:00003c08       _keyinfo_data              7115fc08     diagnost.obj
 0006:00003e00       _diagnostic_keyname        7115fe00     diagnost.obj
 0006:00004008       _optstring_buf             71160008     diagnost.obj
 0006:00004808       _modpath                   71160808     loader.obj
 0006:00004910       _forwmodpath               71160910     loader.obj
 0007:000000f0       $R000000                   711610f0     resources.res
 0007:000037a8       $R0036B8                   711647a8     resources.res
 0007:00003b48       $R003A58                   71164b48     resources.res

 Exports

  ordinal    name

        1    Forwarded to NTDLL.NtCreateSection
               exported name: NtCreateSection
        2    Forwarded to NTDLL.NtMapViewOfSection
               exported name: NtMapViewOfSection
        3    Forwarded to NTDLL.NtOpenDirectoryObject
               exported name: NtOpenDirectoryObject
        4    Forwarded to NTDLL.NtUnmapViewOfSection
               exported name: NtUnmapViewOfSection
        5    Forwarded to NTDLL.RtlInitUnicodeString
               exported name: RtlInitUnicodeString
        6    Forwarded to NTDLL.__isascii
               exported name: __isascii
        7    Forwarded to NTDLL.__iscsym
               exported name: __iscsym
        8    Forwarded to NTDLL.__iscsymf
               exported name: __iscsymf
        9    Forwarded to NTDLL.__toascii
               exported name: __toascii
       10    ___wrap_calloc
               exported name: __wrap_calloc
       11    ___wrap_free
               exported name: __wrap_free
       12    ___wrap_malloc
               exported name: __wrap_malloc
       13    ___wrap_realloc
               exported name: __wrap_realloc
       14    ___wrap_strdup
               exported name: __wrap_strdup
       15    Forwarded to NTDLL._alldiv
               exported name: _alldiv
       16    Forwarded to NTDLL._allmul
               exported name: _allmul
       17    Forwarded to NTDLL._allrem
               exported name: _allrem
       18    Forwarded to NTDLL._allshl
               exported name: _allshl
       19    Forwarded to NTDLL._allshr
               exported name: _allshr
       20    Forwarded to NTDLL._atoi64
               exported name: _atoi64
       21    Forwarded to NTDLL._aulldiv
               exported name: _aulldiv
       22    Forwarded to NTDLL._aullrem
               exported name: _aullrem
       23    Forwarded to NTDLL._aullshr
               exported name: _aullshr
       24    Forwarded to NTDLL._chkstk
               exported name: _chkstk
       25    Forwarded to NTDLL._fltused
               exported name: _fltused
       26    Forwarded to NTDLL._ftol
               exported name: _ftol
       27    Forwarded to NTDLL._i64toa
               exported name: _i64toa
       28    Forwarded to NTDLL._i64tow
               exported name: _i64tow
       29    Forwarded to NTDLL._itoa
               exported name: _itoa
       30    Forwarded to NTDLL._itow
               exported name: _itow
       31    Forwarded to NTDLL._ltoa
               exported name: _ltoa
       32    Forwarded to NTDLL._ltow
               exported name: _ltow
       33    Forwarded to NTDLL._memccpy
               exported name: _memccpy
       34    Forwarded to NTDLL._memicmp
               exported name: _memicmp
       35    Forwarded to NTDLL._strcmpi
               exported name: _strcmpi
       36    Forwarded to NTDLL._stricmp
               exported name: _stricmp
       37    Forwarded to NTDLL._strlwr
               exported name: _strlwr
       38    Forwarded to NTDLL._strnicmp
               exported name: _strnicmp
       39    Forwarded to NTDLL._strupr
               exported name: _strupr
       40    Forwarded to NTDLL._toupper
               exported name: _toupper
       41    Forwarded to NTDLL._ui64toa
               exported name: _ui64toa
       42    Forwarded to NTDLL._ultoa
               exported name: _ultoa
       43    Forwarded to NTDLL._ultow
               exported name: _ultow
       44    Forwarded to NTDLL._wcsicmp
               exported name: _wcsicmp
       45    Forwarded to NTDLL._wcslwr
               exported name: _wcslwr
       46    Forwarded to NTDLL._wcsnicmp
               exported name: _wcsnicmp
       47    Forwarded to NTDLL._wcsupr
               exported name: _wcsupr
       48    Forwarded to NTDLL._wtoi
               exported name: _wtoi
       49    Forwarded to NTDLL._wtoi64
               exported name: _wtoi64
       50    Forwarded to NTDLL._wtol
               exported name: _wtol
       51    Forwarded to NTDLL.abs
               exported name: abs
       52    Forwarded to NTDLL.atan
               exported name: atan
       53    Forwarded to NTDLL.atoi
               exported name: atoi
       54    Forwarded to NTDLL.atol
               exported name: atol
       55    Forwarded to NTDLL.ceil
               exported name: ceil
       56    Forwarded to NTDLL.cos
               exported name: cos
       57    _decode
               exported name: decode
       58    _decode_as_bb
               exported name: decode_as_bb
       59    _decode_eflags_usage
               exported name: decode_eflags_usage
       60    _decode_first_opcode_byte
               exported name: decode_first_opcode_byte
       61    _decode_from_copy
               exported name: decode_from_copy
       62    _decode_memory_reference_size
               exported name: decode_memory_reference_size
       63    _decode_next_pc
               exported name: decode_next_pc
       64    _decode_opcode_name
               exported name: decode_opcode_name
       65    _decode_sizeof
               exported name: decode_sizeof
       66    _decode_sizeof_ex
               exported name: decode_sizeof_ex
       67    _decode_trace
               exported name: decode_trace
       68    _disassemble
               exported name: disassemble
       69    _disassemble_from_copy
               exported name: disassemble_from_copy
       70    _disassemble_set_syntax
               exported name: disassemble_set_syntax
       71    _disassemble_to_buffer
               exported name: disassemble_to_buffer
       72    _disassemble_with_info
               exported name: disassemble_with_info
       73    _dr_abort
               exported name: dr_abort
       74    _dr_abort_with_code
               exported name: dr_abort_with_code
       75    _dr_allow_unsafe_static_behavior
               exported name: dr_allow_unsafe_static_behavior
       76    _dr_annotation_pass_pc
               exported name: dr_annotation_pass_pc
       77    _dr_annotation_register_call
               exported name: dr_annotation_register_call
       78    _dr_annotation_register_return
               exported name: dr_annotation_register_return
       79    _dr_annotation_register_valgrind
               exported name: dr_annotation_register_valgrind
       80    _dr_annotation_unregister_call
               exported name: dr_annotation_unregister_call
       81    _dr_annotation_unregister_return
               exported name: dr_annotation_unregister_return
       82    _dr_annotation_unregister_valgrind
               exported name: dr_annotation_unregister_valgrind
       83    _dr_app_arg_as_cstring
               exported name: dr_app_arg_as_cstring
       84    _dr_app_cleanup
               exported name: dr_app_cleanup
       85    _dr_app_pc_as_jump_target
               exported name: dr_app_pc_as_jump_target
       86    _dr_app_pc_as_load_target
               exported name: dr_app_pc_as_load_target
       87    _dr_app_pc_for_decoding
               exported name: dr_app_pc_for_decoding
       88    _dr_app_pc_from_cache_pc
               exported name: dr_app_pc_from_cache_pc
       89    _dr_app_recurlock_lock
               exported name: dr_app_recurlock_lock
       90    _dr_app_running_under_dynamorio
               exported name: dr_app_running_under_dynamorio
       91    _dr_app_setup
               exported name: dr_app_setup
       92    _dr_app_setup_and_start
               exported name: dr_app_setup_and_start
       93    _dr_app_start
               exported name: dr_app_start
       94    _dr_app_stop
               exported name: dr_app_stop
       95    _dr_app_stop_and_cleanup
               exported name: dr_app_stop_and_cleanup
       96    _dr_app_stop_and_cleanup_with_stats
               exported name: dr_app_stop_and_cleanup_with_stats
       97    _dr_app_take_over
               exported name: dr_app_take_over
       98    _dr_atomic_add32_return_sum
               exported name: dr_atomic_add32_return_sum
       99    _dr_atomic_load32
               exported name: dr_atomic_load32
      100    _dr_atomic_store32
               exported name: dr_atomic_store32
      101    _dr_bb_exists_at
               exported name: dr_bb_exists_at
      102    _dr_call_on_clean_stack
               exported name: dr_call_on_clean_stack
      103    _dr_cleanup_after_call
               exported name: dr_cleanup_after_call
      104    _dr_client_thread_set_suspendable
               exported name: dr_client_thread_set_suspendable
      105    _dr_clobber_retaddr_after_read
               exported name: dr_clobber_retaddr_after_read
      106    _dr_close_file
               exported name: dr_close_file
      107    _dr_convert_handle_to_pid
               exported name: dr_convert_handle_to_pid
      108    _dr_convert_pid_to_handle
               exported name: dr_convert_pid_to_handle
      109    _dr_copy_module_data
               exported name: dr_copy_module_data
      110    _dr_create_client_thread
               exported name: dr_create_client_thread
      111    _dr_create_dir
               exported name: dr_create_dir
      112    _dr_create_memory_dump
               exported name: dr_create_memory_dump
      113    _dr_custom_alloc
               exported name: dr_custom_alloc
      114    _dr_custom_free
               exported name: dr_custom_free
      115    _dr_delay_flush_region
               exported name: dr_delay_flush_region
      116    _dr_delete_dir
               exported name: dr_delete_dir
      117    _dr_delete_file
               exported name: dr_delete_file
      118    _dr_delete_fragment
               exported name: dr_delete_fragment
      119    _dr_directory_exists
               exported name: dr_directory_exists
      120    _dr_dup_file_handle
               exported name: dr_dup_file_handle
      121    _dr_enable_console_printing
               exported name: dr_enable_console_printing
      122    _dr_event_create
               exported name: dr_event_create
      123    _dr_event_destroy
               exported name: dr_event_destroy
      124    _dr_event_reset
               exported name: dr_event_reset
      125    _dr_event_signal
               exported name: dr_event_signal
      126    _dr_event_wait
               exported name: dr_event_wait
      127    _dr_exit_process
               exported name: dr_exit_process
      128    _dr_file_exists
               exported name: dr_file_exists
      129    _dr_file_seek
               exported name: dr_file_seek
      130    _dr_file_size
               exported name: dr_file_size
      131    _dr_file_tell
               exported name: dr_file_tell
      132    _dr_flush_file
               exported name: dr_flush_file
      133    _dr_flush_region
               exported name: dr_flush_region
      134    _dr_flush_region_ex
               exported name: dr_flush_region_ex
      135    _dr_fprintf
               exported name: dr_fprintf
      136    _dr_fragment_app_pc
               exported name: dr_fragment_app_pc
      137    _dr_fragment_exists_at
               exported name: dr_fragment_exists_at
      138    _dr_fragment_persistable
               exported name: dr_fragment_persistable
      139    _dr_fragment_size
               exported name: dr_fragment_size
      140    _dr_free_module_data
               exported name: dr_free_module_data
      141    _dr_get_app_PEB
               exported name: dr_get_app_PEB
      142    _dr_get_app_args
               exported name: dr_get_app_args
      143    _dr_get_application_name
               exported name: dr_get_application_name
      144    _dr_get_client_base
               exported name: dr_get_client_base
      145    _dr_get_client_path
               exported name: dr_get_client_path
      146    _dr_get_current_directory
               exported name: dr_get_current_directory
      147    _dr_get_current_drcontext
               exported name: dr_get_current_drcontext
      148    _dr_get_dr_segment_base
               exported name: dr_get_dr_segment_base
      149    _dr_get_dr_thread_handle
               exported name: dr_get_dr_thread_handle
      150    _dr_get_error_code
               exported name: dr_get_error_code
      151    _dr_get_integer_option
               exported name: dr_get_integer_option
      152    _dr_get_isa_mode
               exported name: dr_get_isa_mode
      153    _dr_get_logfile
               exported name: dr_get_logfile
      154    _dr_get_main_module
               exported name: dr_get_main_module
      155    _dr_get_mcontext
               exported name: dr_get_mcontext
      156    _dr_get_microseconds
               exported name: dr_get_microseconds
      157    _dr_get_milliseconds
               exported name: dr_get_milliseconds
      158    _dr_get_option_array
               exported name: dr_get_option_array
      159    _dr_get_options
               exported name: dr_get_options
      160    _dr_get_os_version
               exported name: dr_get_os_version
      161    _dr_get_proc_address
               exported name: dr_get_proc_address
      162    _dr_get_proc_address_ex
               exported name: dr_get_proc_address_ex
      163    _dr_get_process_id
               exported name: dr_get_process_id
      164    _dr_get_process_id_from_drcontext
               exported name: dr_get_process_id_from_drcontext
      165    _dr_get_random_seed
               exported name: dr_get_random_seed
      166    _dr_get_random_value
               exported name: dr_get_random_value
      167    _dr_get_stats
               exported name: dr_get_stats
      168    _dr_get_stderr_file
               exported name: dr_get_stderr_file
      169    _dr_get_stdin_file
               exported name: dr_get_stdin_file
      170    _dr_get_stdout_file
               exported name: dr_get_stdout_file
      171    _dr_get_stolen_reg
               exported name: dr_get_stolen_reg
      172    _dr_get_string_option
               exported name: dr_get_string_option
      173    _dr_get_thread_id
               exported name: dr_get_thread_id
      174    _dr_get_time
               exported name: dr_get_time
      175    _dr_get_tls_field
               exported name: dr_get_tls_field
      176    _dr_get_token
               exported name: dr_get_token
      177    _dr_global_alloc
               exported name: dr_global_alloc
      178    _dr_global_free
               exported name: dr_global_free
      179    _dr_insert_call
               exported name: dr_insert_call
      180    _dr_insert_call_ex
               exported name: dr_insert_call_ex
      181    _dr_insert_call_instrumentation
               exported name: dr_insert_call_instrumentation
      182    _dr_insert_cbr_instrumentation
               exported name: dr_insert_cbr_instrumentation
      183    _dr_insert_cbr_instrumentation_ex
               exported name: dr_insert_cbr_instrumentation_ex
      184    _dr_insert_clean_call
               exported name: dr_insert_clean_call
      185    _dr_insert_clean_call_ex
               exported name: dr_insert_clean_call_ex
      186    _dr_insert_get_seg_base
               exported name: dr_insert_get_seg_base
      187    _dr_insert_get_stolen_reg_value
               exported name: dr_insert_get_stolen_reg_value
      188    _dr_insert_it_instrs
               exported name: dr_insert_it_instrs
      189    _dr_insert_mbr_instrumentation
               exported name: dr_insert_mbr_instrumentation
      190    _dr_insert_read_raw_tls
               exported name: dr_insert_read_raw_tls
      191    _dr_insert_read_tls_field
               exported name: dr_insert_read_tls_field
      192    _dr_insert_restore_fpstate
               exported name: dr_insert_restore_fpstate
      193    _dr_insert_save_fpstate
               exported name: dr_insert_save_fpstate
      194    _dr_insert_set_stolen_reg_value
               exported name: dr_insert_set_stolen_reg_value
      195    _dr_insert_ubr_instrumentation
               exported name: dr_insert_ubr_instrumentation
      196    _dr_insert_write_raw_tls
               exported name: dr_insert_write_raw_tls
      197    _dr_insert_write_tls_field
               exported name: dr_insert_write_tls_field
      198    _dr_invoke_x64_routine
               exported name: dr_invoke_x64_routine
      199    _dr_is_detaching
               exported name: dr_is_detaching
      200    _dr_is_notify_on
               exported name: dr_is_notify_on
      201    _dr_is_nudge_thread
               exported name: dr_is_nudge_thread
      202    _dr_is_thread_native
               exported name: dr_is_thread_native
      203    _dr_is_tracking_where_am_i
               exported name: dr_is_tracking_where_am_i
      204    _dr_is_wow64
               exported name: dr_is_wow64
      205    _dr_load_aux_library
               exported name: dr_load_aux_library
      206    _dr_load_aux_x64_library
               exported name: dr_load_aux_x64_library
      207    _dr_log
               exported name: dr_log
      208    _dr_lookup_aux_library_routine
               exported name: dr_lookup_aux_library_routine
      209    _dr_lookup_aux_x64_library_routine
               exported name: dr_lookup_aux_x64_library_routine
      210    _dr_lookup_module
               exported name: dr_lookup_module
      211    _dr_lookup_module_by_name
               exported name: dr_lookup_module_by_name
      212    _dr_lookup_module_section
               exported name: dr_lookup_module_section
      213    _dr_map_executable_file
               exported name: dr_map_executable_file
      214    _dr_map_file
               exported name: dr_map_file
      215    _dr_mark_safe_to_suspend
               exported name: dr_mark_safe_to_suspend
      216    _dr_mark_trace_head
               exported name: dr_mark_trace_head
      217    _dr_max_opnd_accessible_spill_slot
               exported name: dr_max_opnd_accessible_spill_slot
      218    _dr_mcontext_to_context
               exported name: dr_mcontext_to_context
      219    _dr_mcontext_xmm_fields_valid
               exported name: dr_mcontext_xmm_fields_valid
      220    _dr_mcontext_zmm_fields_valid
               exported name: dr_mcontext_zmm_fields_valid
      221    _dr_memory_is_dr_internal
               exported name: dr_memory_is_dr_internal
      222    _dr_memory_is_in_client
               exported name: dr_memory_is_in_client
      223    _dr_memory_is_readable
               exported name: dr_memory_is_readable
      224    _dr_memory_protect
               exported name: dr_memory_protect
      225    _dr_merge_arith_flags
               exported name: dr_merge_arith_flags
      226    _dr_messagebox
               exported name: dr_messagebox
      227    _dr_module_contains_addr
               exported name: dr_module_contains_addr
      228    _dr_module_import_iterator_hasnext
               exported name: dr_module_import_iterator_hasnext
      229    _dr_module_import_iterator_next
               exported name: dr_module_import_iterator_next
      230    _dr_module_import_iterator_start
               exported name: dr_module_import_iterator_start
      231    _dr_module_import_iterator_stop
               exported name: dr_module_import_iterator_stop
      232    _dr_module_iterator_hasnext
               exported name: dr_module_iterator_hasnext
      233    _dr_module_iterator_next
               exported name: dr_module_iterator_next
      234    _dr_module_iterator_start
               exported name: dr_module_iterator_start
      235    _dr_module_iterator_stop
               exported name: dr_module_iterator_stop
      236    _dr_module_preferred_name
               exported name: dr_module_preferred_name
      237    _dr_module_set_should_instrument
               exported name: dr_module_set_should_instrument
      238    _dr_module_should_instrument
               exported name: dr_module_should_instrument
      239    _dr_mutex_create
               exported name: dr_mutex_create
      240    _dr_mutex_destroy
               exported name: dr_mutex_destroy
      241    _dr_mutex_lock
               exported name: dr_mutex_lock
      242    _dr_mutex_mark_as_app
               exported name: dr_mutex_mark_as_app
      243    _dr_mutex_self_owns
               exported name: dr_mutex_self_owns
      244    _dr_mutex_trylock
               exported name: dr_mutex_trylock
      245    _dr_mutex_unlock
               exported name: dr_mutex_unlock
      246    _dr_nonheap_alloc
               exported name: dr_nonheap_alloc
      247    _dr_nonheap_free
               exported name: dr_nonheap_free
      248    _dr_nudge_client
               exported name: dr_nudge_client
      249    _dr_nudge_client_ex
               exported name: dr_nudge_client_ex
      250    _dr_num_app_args
               exported name: dr_num_app_args
      251    _dr_open_file
               exported name: dr_open_file
      252    _dr_page_size
               exported name: dr_page_size
      253    _dr_persist_size
               exported name: dr_persist_size
      254    _dr_persist_start
               exported name: dr_persist_start
      255    _dr_prepare_for_call
               exported name: dr_prepare_for_call
      256    _dr_prepopulate_cache
               exported name: dr_prepopulate_cache
      257    _dr_prepopulate_indirect_targets
               exported name: dr_prepopulate_indirect_targets
      258    _dr_print_instr
               exported name: dr_print_instr
      259    _dr_print_opnd
               exported name: dr_print_opnd
      260    _dr_printf
               exported name: dr_printf
      261    _dr_query_memory
               exported name: dr_query_memory
      262    _dr_query_memory_ex
               exported name: dr_query_memory_ex
      263    _dr_raw_mem_alloc
               exported name: dr_raw_mem_alloc
      264    _dr_raw_mem_free
               exported name: dr_raw_mem_free
      265    _dr_raw_tls_calloc
               exported name: dr_raw_tls_calloc
      266    _dr_raw_tls_cfree
               exported name: dr_raw_tls_cfree
      267    _dr_raw_tls_opnd
               exported name: dr_raw_tls_opnd
      268    _dr_read_file
               exported name: dr_read_file
      269    _dr_read_saved_reg
               exported name: dr_read_saved_reg
      270    _dr_recurlock_create
               exported name: dr_recurlock_create
      271    _dr_recurlock_destroy
               exported name: dr_recurlock_destroy
      272    _dr_recurlock_lock
               exported name: dr_recurlock_lock
      273    _dr_recurlock_mark_as_app
               exported name: dr_recurlock_mark_as_app
      274    _dr_recurlock_self_owns
               exported name: dr_recurlock_self_owns
      275    _dr_recurlock_trylock
               exported name: dr_recurlock_trylock
      276    _dr_recurlock_unlock
               exported name: dr_recurlock_unlock
      277    _dr_redirect_execution
               exported name: dr_redirect_execution
      278    _dr_redirect_native_target
               exported name: dr_redirect_native_target
      279    _dr_reg_spill_slot_opnd
               exported name: dr_reg_spill_slot_opnd
      280    _dr_register_bb_event
               exported name: dr_register_bb_event
      281    _dr_register_clean_call_insertion_event
               exported name: dr_register_clean_call_insertion_event
      282    _dr_register_delete_event
               exported name: dr_register_delete_event
      283    _dr_register_end_trace_event
               exported name: dr_register_end_trace_event
      284    _dr_register_exception_event
               exported name: dr_register_exception_event
      285    _dr_register_exit_event
               exported name: dr_register_exit_event
      286    _dr_register_filter_syscall_event
               exported name: dr_register_filter_syscall_event
      287    _dr_register_kernel_xfer_event
               exported name: dr_register_kernel_xfer_event
      288    _dr_register_low_on_memory_event
               exported name: dr_register_low_on_memory_event
      289    _dr_register_module_load_event
               exported name: dr_register_module_load_event
      290    _dr_register_module_unload_event
               exported name: dr_register_module_unload_event
      291    _dr_register_nudge_event
               exported name: dr_register_nudge_event
      292    _dr_register_persist_patch
               exported name: dr_register_persist_patch
      293    _dr_register_persist_ro
               exported name: dr_register_persist_ro
      294    _dr_register_persist_rw
               exported name: dr_register_persist_rw
      295    _dr_register_persist_rx
               exported name: dr_register_persist_rx
      296    _dr_register_post_syscall_event
               exported name: dr_register_post_syscall_event
      297    _dr_register_pre_syscall_event
               exported name: dr_register_pre_syscall_event
      298    _dr_register_restore_state_event
               exported name: dr_register_restore_state_event
      299    _dr_register_restore_state_ex_event
               exported name: dr_register_restore_state_ex_event
      300    _dr_register_thread_exit_event
               exported name: dr_register_thread_exit_event
      301    _dr_register_thread_init_event
               exported name: dr_register_thread_init_event
      302    _dr_register_trace_event
               exported name: dr_register_trace_event
      303    _dr_remove_it_instrs
               exported name: dr_remove_it_instrs
      304    _dr_rename_file
               exported name: dr_rename_file
      305    _dr_replace_fragment
               exported name: dr_replace_fragment
      306    _dr_request_synchronized_exit
               exported name: dr_request_synchronized_exit
      307    _dr_restore_app_stack
               exported name: dr_restore_app_stack
      308    _dr_restore_arith_flags
               exported name: dr_restore_arith_flags
      309    _dr_restore_arith_flags_from_reg
               exported name: dr_restore_arith_flags_from_reg
      310    _dr_restore_arith_flags_from_xax
               exported name: dr_restore_arith_flags_from_xax
      311    _dr_restore_reg
               exported name: dr_restore_reg
      312    _dr_resume_all_other_threads
               exported name: dr_resume_all_other_threads
      313    _dr_retakeover_suspended_native_thread
               exported name: dr_retakeover_suspended_native_thread
      314    _dr_rwlock_create
               exported name: dr_rwlock_create
      315    _dr_rwlock_destroy
               exported name: dr_rwlock_destroy
      316    _dr_rwlock_mark_as_app
               exported name: dr_rwlock_mark_as_app
      317    _dr_rwlock_read_lock
               exported name: dr_rwlock_read_lock
      318    _dr_rwlock_read_unlock
               exported name: dr_rwlock_read_unlock
      319    _dr_rwlock_self_owns_write_lock
               exported name: dr_rwlock_self_owns_write_lock
      320    _dr_rwlock_write_lock
               exported name: dr_rwlock_write_lock
      321    _dr_rwlock_write_trylock
               exported name: dr_rwlock_write_trylock
      322    _dr_rwlock_write_unlock
               exported name: dr_rwlock_write_unlock
      323    _dr_safe_read
               exported name: dr_safe_read
      324    _dr_safe_write
               exported name: dr_safe_write
      325    _dr_save_arith_flags
               exported name: dr_save_arith_flags
      326    _dr_save_arith_flags_to_reg
               exported name: dr_save_arith_flags_to_reg
      327    _dr_save_arith_flags_to_xax
               exported name: dr_save_arith_flags_to_xax
      328    _dr_save_reg
               exported name: dr_save_reg
      329    _dr_set_client_name
               exported name: dr_set_client_name
      330    _dr_set_client_version_string
               exported name: dr_set_client_version_string
      331    _dr_set_isa_mode
               exported name: dr_set_isa_mode
      332    _dr_set_mcontext
               exported name: dr_set_mcontext
      333    _dr_set_process_exit_behavior
               exported name: dr_set_process_exit_behavior
      334    _dr_set_random_seed
               exported name: dr_set_random_seed
      335    _dr_set_tls_field
               exported name: dr_set_tls_field
      336    _dr_sleep
               exported name: dr_sleep
      337    _dr_snprintf
               exported name: dr_snprintf
      338    _dr_snwprintf
               exported name: dr_snwprintf
      339    _dr_sscanf
               exported name: dr_sscanf
      340    _dr_standalone_exit
               exported name: dr_standalone_exit
      341    _dr_standalone_init
               exported name: dr_standalone_init
      342    _dr_suspend_all_other_threads
               exported name: dr_suspend_all_other_threads
      343    _dr_suspend_all_other_threads_ex
               exported name: dr_suspend_all_other_threads_ex
      344    _dr_swap_to_clean_stack
               exported name: dr_swap_to_clean_stack
      345    _dr_switch_to_app_state
               exported name: dr_switch_to_app_state
      346    _dr_switch_to_app_state_ex
               exported name: dr_switch_to_app_state_ex
      347    _dr_switch_to_dr_state
               exported name: dr_switch_to_dr_state
      348    _dr_switch_to_dr_state_ex
               exported name: dr_switch_to_dr_state_ex
      349    _dr_symbol_export_iterator_hasnext
               exported name: dr_symbol_export_iterator_hasnext
      350    _dr_symbol_export_iterator_next
               exported name: dr_symbol_export_iterator_next
      351    _dr_symbol_export_iterator_start
               exported name: dr_symbol_export_iterator_start
      352    _dr_symbol_export_iterator_stop
               exported name: dr_symbol_export_iterator_stop
      353    _dr_symbol_import_iterator_hasnext
               exported name: dr_symbol_import_iterator_hasnext
      354    _dr_symbol_import_iterator_next
               exported name: dr_symbol_import_iterator_next
      355    _dr_symbol_import_iterator_start
               exported name: dr_symbol_import_iterator_start
      356    _dr_symbol_import_iterator_stop
               exported name: dr_symbol_import_iterator_stop
      357    _dr_syscall_get_param
               exported name: dr_syscall_get_param
      358    _dr_syscall_get_result
               exported name: dr_syscall_get_result
      359    _dr_syscall_get_result_ex
               exported name: dr_syscall_get_result_ex
      360    _dr_syscall_intercept_natively
               exported name: dr_syscall_intercept_natively
      361    _dr_syscall_invoke_another
               exported name: dr_syscall_invoke_another
      362    _dr_syscall_set_param
               exported name: dr_syscall_set_param
      363    _dr_syscall_set_result
               exported name: dr_syscall_set_result
      364    _dr_syscall_set_result_ex
               exported name: dr_syscall_set_result_ex
      365    _dr_syscall_set_sysnum
               exported name: dr_syscall_set_sysnum
      366    _dr_thread_alloc
               exported name: dr_thread_alloc
      367    _dr_thread_free
               exported name: dr_thread_free
      368    _dr_thread_yield
               exported name: dr_thread_yield
      369    _dr_trace_exists_at
               exported name: dr_trace_exists_at
      370    _dr_trace_head_at
               exported name: dr_trace_head_at
      371    _dr_track_where_am_i
               exported name: dr_track_where_am_i
      372    _dr_try_setup
               exported name: dr_try_setup
      373    _dr_try_start
               exported name: dr_try_start
      374    _dr_try_stop
               exported name: dr_try_stop
      375    _dr_unlink_flush_region
               exported name: dr_unlink_flush_region
      376    _dr_unload_aux_library
               exported name: dr_unload_aux_library
      377    _dr_unload_aux_x64_library
               exported name: dr_unload_aux_x64_library
      378    _dr_unmap_executable_file
               exported name: dr_unmap_executable_file
      379    _dr_unmap_file
               exported name: dr_unmap_file
      380    _dr_unregister_bb_event
               exported name: dr_unregister_bb_event
      381    _dr_unregister_clean_call_insertion_event
               exported name: dr_unregister_clean_call_insertion_event
      382    _dr_unregister_delete_event
               exported name: dr_unregister_delete_event
      383    _dr_unregister_end_trace_event
               exported name: dr_unregister_end_trace_event
      384    _dr_unregister_exception_event
               exported name: dr_unregister_exception_event
      385    _dr_unregister_exit_event
               exported name: dr_unregister_exit_event
      386    _dr_unregister_filter_syscall_event
               exported name: dr_unregister_filter_syscall_event
      387    _dr_unregister_kernel_xfer_event
               exported name: dr_unregister_kernel_xfer_event
      388    _dr_unregister_low_on_memory_event
               exported name: dr_unregister_low_on_memory_event
      389    _dr_unregister_module_load_event
               exported name: dr_unregister_module_load_event
      390    _dr_unregister_module_unload_event
               exported name: dr_unregister_module_unload_event
      391    _dr_unregister_nudge_event
               exported name: dr_unregister_nudge_event
      392    _dr_unregister_persist_patch
               exported name: dr_unregister_persist_patch
      393    _dr_unregister_persist_ro
               exported name: dr_unregister_persist_ro
      394    _dr_unregister_persist_rw
               exported name: dr_unregister_persist_rw
      395    _dr_unregister_persist_rx
               exported name: dr_unregister_persist_rx
      396    _dr_unregister_post_syscall_event
               exported name: dr_unregister_post_syscall_event
      397    _dr_unregister_pre_syscall_event
               exported name: dr_unregister_pre_syscall_event
      398    _dr_unregister_restore_state_event
               exported name: dr_unregister_restore_state_event
      399    _dr_unregister_restore_state_ex_event
               exported name: dr_unregister_restore_state_ex_event
      400    _dr_unregister_thread_exit_event
               exported name: dr_unregister_thread_exit_event
      401    _dr_unregister_thread_init_event
               exported name: dr_unregister_thread_init_event
      402    _dr_unregister_trace_event
               exported name: dr_unregister_trace_event
      403    _dr_using_all_private_caches
               exported name: dr_using_all_private_caches
      404    _dr_using_app_state
               exported name: dr_using_app_state
      405    _dr_using_console
               exported name: dr_using_console
      406    _dr_vfprintf
               exported name: dr_vfprintf
      407    _dr_virtual_query
               exported name: dr_virtual_query
      408    _dr_vsnprintf
               exported name: dr_vsnprintf
      409    _dr_vsnwprintf
               exported name: dr_vsnwprintf
      410    _dr_where_am_i
               exported name: dr_where_am_i
      411    _dr_write_file
               exported name: dr_write_file
      412    _dr_write_saved_reg
               exported name: dr_write_saved_reg
      413    _dynamo_auto_start
               exported name: dynamo_auto_start
      414    _dynamorio_app_init
               exported name: dynamorio_app_init
      415    _dynamorio_app_init_and_early_takeover
               exported name: dynamorio_app_init_and_early_takeover
      416    _dynamorio_app_take_over
               exported name: dynamorio_app_take_over
      417    _dynamorio_earliest_init_takeover
               exported name: dynamorio_earliest_init_takeover
      418    Forwarded to NTDLL.fabs
               exported name: fabs
      419    Forwarded to NTDLL.floor
               exported name: floor
      420    _get_register_name
               exported name: get_register_name
      421    _instr_allocate_raw_bits
               exported name: instr_allocate_raw_bits
      422    _instr_build
               exported name: instr_build
      423    _instr_build_bits
               exported name: instr_build_bits
      424    _instr_clear_label_callback
               exported name: instr_clear_label_callback
      425    _instr_clone
               exported name: instr_clone
      426    _instr_cmovcc_to_jcc
               exported name: instr_cmovcc_to_jcc
      427    _instr_cmovcc_triggered
               exported name: instr_cmovcc_triggered
      428    _instr_compute_address
               exported name: instr_compute_address
      429    _instr_compute_address_ex
               exported name: instr_compute_address_ex
      430    _instr_compute_address_ex_pos
               exported name: instr_compute_address_ex_pos
      431    _instr_convert_short_meta_jmp_to_long
               exported name: instr_convert_short_meta_jmp_to_long
      432    _instr_create
               exported name: instr_create
      433    _instr_create_0dst_0src
               exported name: instr_create_0dst_0src
      434    _instr_create_0dst_1src
               exported name: instr_create_0dst_1src
      435    _instr_create_0dst_2src
               exported name: instr_create_0dst_2src
      436    _instr_create_0dst_3src
               exported name: instr_create_0dst_3src
      437    _instr_create_0dst_4src
               exported name: instr_create_0dst_4src
      438    _instr_create_1dst_0src
               exported name: instr_create_1dst_0src
      439    _instr_create_1dst_1src
               exported name: instr_create_1dst_1src
      440    _instr_create_1dst_2src
               exported name: instr_create_1dst_2src
      441    _instr_create_1dst_3src
               exported name: instr_create_1dst_3src
      442    _instr_create_1dst_4src
               exported name: instr_create_1dst_4src
      443    _instr_create_1dst_5src
               exported name: instr_create_1dst_5src
      444    _instr_create_2dst_0src
               exported name: instr_create_2dst_0src
      445    _instr_create_2dst_1src
               exported name: instr_create_2dst_1src
      446    _instr_create_2dst_2src
               exported name: instr_create_2dst_2src
      447    _instr_create_2dst_3src
               exported name: instr_create_2dst_3src
      448    _instr_create_2dst_4src
               exported name: instr_create_2dst_4src
      449    _instr_create_2dst_5src
               exported name: instr_create_2dst_5src
      450    _instr_create_3dst_0src
               exported name: instr_create_3dst_0src
      451    _instr_create_3dst_1src
               exported name: instr_create_3dst_1src
      452    _instr_create_3dst_2src
               exported name: instr_create_3dst_2src
      453    _instr_create_3dst_3src
               exported name: instr_create_3dst_3src
      454    _instr_create_3dst_4src
               exported name: instr_create_3dst_4src
      455    _instr_create_3dst_5src
               exported name: instr_create_3dst_5src
      456    _instr_create_3dst_6src
               exported name: instr_create_3dst_6src
      457    _instr_create_4dst_1src
               exported name: instr_create_4dst_1src
      458    _instr_create_4dst_2src
               exported name: instr_create_4dst_2src
      459    _instr_create_4dst_3src
               exported name: instr_create_4dst_3src
      460    _instr_create_4dst_4src
               exported name: instr_create_4dst_4src
      461    _instr_create_4dst_5src
               exported name: instr_create_4dst_5src
      462    _instr_create_4dst_6src
               exported name: instr_create_4dst_6src
      463    _instr_create_4dst_7src
               exported name: instr_create_4dst_7src
      464    _instr_create_5dst_3src
               exported name: instr_create_5dst_3src
      465    _instr_create_5dst_4src
               exported name: instr_create_5dst_4src
      466    _instr_create_5dst_5src
               exported name: instr_create_5dst_5src
      467    _instr_create_5dst_8src
               exported name: instr_create_5dst_8src
      468    _instr_create_Ndst_Msrc_vardst
               exported name: instr_create_Ndst_Msrc_vardst
      469    _instr_create_Ndst_Msrc_varsrc
               exported name: instr_create_Ndst_Msrc_varsrc
      470    _instr_create_popa
               exported name: instr_create_popa
      471    _instr_create_pusha
               exported name: instr_create_pusha
      472    _instr_destroy
               exported name: instr_destroy
      473    _instr_disassemble
               exported name: instr_disassemble
      474    _instr_disassemble_to_buffer
               exported name: instr_disassemble_to_buffer
      475    _instr_encode
               exported name: instr_encode
      476    _instr_encode_to_copy
               exported name: instr_encode_to_copy
      477    _instr_free
               exported name: instr_free
      478    _instr_free_raw_bits
               exported name: instr_free_raw_bits
      479    _instr_from_noalloc
               exported name: instr_from_noalloc
      480    _instr_get_app_pc
               exported name: instr_get_app_pc
      481    _instr_get_arith_flags
               exported name: instr_get_arith_flags
      482    _instr_get_branch_target_pc
               exported name: instr_get_branch_target_pc
      483    _instr_get_dst
               exported name: instr_get_dst
      484    _instr_get_eflags
               exported name: instr_get_eflags
      485    _instr_get_interrupt_number
               exported name: instr_get_interrupt_number
      486    _instr_get_isa_mode
               exported name: instr_get_isa_mode
      487    _instr_get_label_data_area
               exported name: instr_get_label_data_area
      488    _instr_get_next
               exported name: instr_get_next
      489    _instr_get_next_app
               exported name: instr_get_next_app
      490    _instr_get_note
               exported name: instr_get_note
      491    _instr_get_opcode
               exported name: instr_get_opcode
      492    _instr_get_opcode_eflags
               exported name: instr_get_opcode_eflags
      493    _instr_get_predicate
               exported name: instr_get_predicate
      494    _instr_get_prefix_flag
               exported name: instr_get_prefix_flag
      495    _instr_get_prev
               exported name: instr_get_prev
      496    _instr_get_prev_app
               exported name: instr_get_prev_app
      497    _instr_get_raw_bits
               exported name: instr_get_raw_bits
      498    _instr_get_raw_byte
               exported name: instr_get_raw_byte
      499    _instr_get_raw_word
               exported name: instr_get_raw_word
      500    _instr_get_rel_data_or_instr_target
               exported name: instr_get_rel_data_or_instr_target
      501    _instr_get_src
               exported name: instr_get_src
      502    _instr_get_target
               exported name: instr_get_target
      503    _instr_has_allocated_bits
               exported name: instr_has_allocated_bits
      504    _instr_has_encoding_hint
               exported name: instr_has_encoding_hint
      505    _instr_init
               exported name: instr_init
      506    _instr_invert_cbr
               exported name: instr_invert_cbr
      507    _instr_is_3DNow
               exported name: instr_is_3DNow
      508    _instr_is_app
               exported name: instr_is_app
      509    _instr_is_call
               exported name: instr_is_call
      510    _instr_is_call_direct
               exported name: instr_is_call_direct
      511    _instr_is_call_indirect
               exported name: instr_is_call_indirect
      512    _instr_is_cbr
               exported name: instr_is_cbr
      513    _instr_is_cti
               exported name: instr_is_cti
      514    _instr_is_cti_loop
               exported name: instr_is_cti_loop
      515    _instr_is_cti_short
               exported name: instr_is_cti_short
      516    _instr_is_cti_short_rewrite
               exported name: instr_is_cti_short_rewrite
      517    _instr_is_encoding_possible
               exported name: instr_is_encoding_possible
      518    _instr_is_exclusive_load
               exported name: instr_is_exclusive_load
      519    _instr_is_exclusive_store
               exported name: instr_is_exclusive_store
      520    _instr_is_exit_cti
               exported name: instr_is_exit_cti
      521    _instr_is_far_abs_cti
               exported name: instr_is_far_abs_cti
      522    _instr_is_far_cti
               exported name: instr_is_far_cti
      523    _instr_is_floating
               exported name: instr_is_floating
      524    _instr_is_floating_ex
               exported name: instr_is_floating_ex
      525    _instr_is_gather
               exported name: instr_is_gather
      526    _instr_is_interrupt
               exported name: instr_is_interrupt
      527    _instr_is_label
               exported name: instr_is_label
      528    _instr_is_mbr
               exported name: instr_is_mbr
      529    _instr_is_meta
               exported name: instr_is_meta
      530    _instr_is_meta_may_fault
               exported name: instr_is_meta_may_fault
      531    _instr_is_mmx
               exported name: instr_is_mmx
      532    _instr_is_mov
               exported name: instr_is_mov
      533    _instr_is_mov_constant
               exported name: instr_is_mov_constant
      534    _instr_is_mov_imm_to_tos
               exported name: instr_is_mov_imm_to_tos
      535    _instr_is_near_call_direct
               exported name: instr_is_near_call_direct
      536    _instr_is_near_ubr
               exported name: instr_is_near_ubr
      537    _instr_is_nop
               exported name: instr_is_nop
      538    _instr_is_opmask
               exported name: instr_is_opmask
      539    _instr_is_predicated
               exported name: instr_is_predicated
      540    _instr_is_prefetch
               exported name: instr_is_prefetch
      541    _instr_is_reg_spill_or_restore
               exported name: instr_is_reg_spill_or_restore
      542    _instr_is_rep_string_op
               exported name: instr_is_rep_string_op
      543    _instr_is_return
               exported name: instr_is_return
      544    _instr_is_scatter
               exported name: instr_is_scatter
      545    _instr_is_sse
               exported name: instr_is_sse
      546    _instr_is_sse2
               exported name: instr_is_sse2
      547    _instr_is_sse3
               exported name: instr_is_sse3
      548    _instr_is_sse41
               exported name: instr_is_sse41
      549    _instr_is_sse42
               exported name: instr_is_sse42
      550    _instr_is_sse4A
               exported name: instr_is_sse4A
      551    _instr_is_sse_or_sse2
               exported name: instr_is_sse_or_sse2
      552    _instr_is_ssse3
               exported name: instr_is_ssse3
      553    _instr_is_string_op
               exported name: instr_is_string_op
      554    _instr_is_syscall
               exported name: instr_is_syscall
      555    _instr_is_ubr
               exported name: instr_is_ubr
      556    _instr_is_undefined
               exported name: instr_is_undefined
      557    _instr_is_wow64_syscall
               exported name: instr_is_wow64_syscall
      558    _instr_is_xsave
               exported name: instr_is_xsave
      559    _instr_jcc_taken
               exported name: instr_jcc_taken
      560    _instr_length
               exported name: instr_length
      561    _instr_make_persistent
               exported name: instr_make_persistent
      562    _instr_mem_usage
               exported name: instr_mem_usage
      563    _instr_memory_reference_size
               exported name: instr_memory_reference_size
      564    _instr_needs_encoding
               exported name: instr_needs_encoding
      565    _instr_noalloc_init
               exported name: instr_noalloc_init
      566    _instr_num_dsts
               exported name: instr_num_dsts
      567    _instr_num_srcs
               exported name: instr_num_srcs
      568    _instr_ok_to_emit
               exported name: instr_ok_to_emit
      569    _instr_ok_to_mangle
               exported name: instr_ok_to_mangle
      570    _instr_opcode_valid
               exported name: instr_opcode_valid
      571    _instr_operands_valid
               exported name: instr_operands_valid
      572    _instr_predicate_is_cond
               exported name: instr_predicate_is_cond
      573    _instr_predicate_triggered
               exported name: instr_predicate_triggered
      574    _instr_raw_bits_valid
               exported name: instr_raw_bits_valid
      575    _instr_reads_from_exact_reg
               exported name: instr_reads_from_exact_reg
      576    _instr_reads_from_reg
               exported name: instr_reads_from_reg
      577    _instr_reads_memory
               exported name: instr_reads_memory
      578    _instr_reg_in_dst
               exported name: instr_reg_in_dst
      579    _instr_reg_in_src
               exported name: instr_reg_in_src
      580    _instr_remove_dsts
               exported name: instr_remove_dsts
      581    _instr_remove_srcs
               exported name: instr_remove_srcs
      582    _instr_replace_reg_resize
               exported name: instr_replace_reg_resize
      583    _instr_replace_src_opnd
               exported name: instr_replace_src_opnd
      584    _instr_reset
               exported name: instr_reset
      585    _instr_reuse
               exported name: instr_reuse
      586    _instr_same
               exported name: instr_same
      587    _instr_set_app
               exported name: instr_set_app
      588    _instr_set_branch_target_pc
               exported name: instr_set_branch_target_pc
      589    _instr_set_dst
               exported name: instr_set_dst
      590    _instr_set_encoding_hint
               exported name: instr_set_encoding_hint
      591    _instr_set_isa_mode
               exported name: instr_set_isa_mode
      592    _instr_set_label_callback
               exported name: instr_set_label_callback
      593    _instr_set_meta
               exported name: instr_set_meta
      594    _instr_set_meta_may_fault
               exported name: instr_set_meta_may_fault
      595    _instr_set_meta_no_translation
               exported name: instr_set_meta_no_translation
      596    _instr_set_next
               exported name: instr_set_next
      597    _instr_set_note
               exported name: instr_set_note
      598    _instr_set_num_opnds
               exported name: instr_set_num_opnds
      599    _instr_set_ok_to_emit
               exported name: instr_set_ok_to_emit
      600    _instr_set_ok_to_mangle
               exported name: instr_set_ok_to_mangle
      601    _instr_set_opcode
               exported name: instr_set_opcode
      602    _instr_set_operands_valid
               exported name: instr_set_operands_valid
      603    _instr_set_predicate
               exported name: instr_set_predicate
      604    _instr_set_prefix_flag
               exported name: instr_set_prefix_flag
      605    _instr_set_prev
               exported name: instr_set_prev
      606    _instr_set_raw_bits
               exported name: instr_set_raw_bits
      607    _instr_set_raw_bits_valid
               exported name: instr_set_raw_bits_valid
      608    _instr_set_raw_byte
               exported name: instr_set_raw_byte
      609    _instr_set_raw_bytes
               exported name: instr_set_raw_bytes
      610    _instr_set_raw_word
               exported name: instr_set_raw_word
      611    _instr_set_src
               exported name: instr_set_src
      612    _instr_set_target
               exported name: instr_set_target
      613    _instr_set_translation
               exported name: instr_set_translation
      614    _instr_shrink_to_16_bits
               exported name: instr_shrink_to_16_bits
      615    _instr_uses_fp_reg
               exported name: instr_uses_fp_reg
      616    _instr_uses_reg
               exported name: instr_uses_reg
      617    _instr_valid
               exported name: instr_valid
      618    _instr_writes_memory
               exported name: instr_writes_memory
      619    _instr_writes_to_exact_reg
               exported name: instr_writes_to_exact_reg
      620    _instr_writes_to_reg
               exported name: instr_writes_to_reg
      621    _instr_zeroes_ymmh
               exported name: instr_zeroes_ymmh
      622    _instr_zeroes_zmmh
               exported name: instr_zeroes_zmmh
      623    _instrlist_append
               exported name: instrlist_append
      624    _instrlist_clear
               exported name: instrlist_clear
      625    _instrlist_clear_and_destroy
               exported name: instrlist_clear_and_destroy
      626    _instrlist_clone
               exported name: instrlist_clone
      627    _instrlist_create
               exported name: instrlist_create
      628    _instrlist_cut
               exported name: instrlist_cut
      629    _instrlist_destroy
               exported name: instrlist_destroy
      630    _instrlist_disassemble
               exported name: instrlist_disassemble
      631    _instrlist_encode
               exported name: instrlist_encode
      632    _instrlist_encode_to_copy
               exported name: instrlist_encode_to_copy
      633    _instrlist_first
               exported name: instrlist_first
      634    _instrlist_first_app
               exported name: instrlist_first_app
      635    _instrlist_first_nonlabel
               exported name: instrlist_first_nonlabel
      636    _instrlist_get_auto_predicate
               exported name: instrlist_get_auto_predicate
      637    _instrlist_get_translation_target
               exported name: instrlist_get_translation_target
      638    _instrlist_init
               exported name: instrlist_init
      639    _instrlist_insert_mov_immed_ptrsz
               exported name: instrlist_insert_mov_immed_ptrsz
      640    _instrlist_insert_mov_instr_addr
               exported name: instrlist_insert_mov_instr_addr
      641    _instrlist_insert_push_immed_ptrsz
               exported name: instrlist_insert_push_immed_ptrsz
      642    _instrlist_insert_push_instr_addr
               exported name: instrlist_insert_push_instr_addr
      643    _instrlist_last
               exported name: instrlist_last
      644    _instrlist_last_app
               exported name: instrlist_last_app
      645    _instrlist_meta_append
               exported name: instrlist_meta_append
      646    _instrlist_meta_fault_append
               exported name: instrlist_meta_fault_append
      647    _instrlist_meta_fault_postinsert
               exported name: instrlist_meta_fault_postinsert
      648    _instrlist_meta_fault_preinsert
               exported name: instrlist_meta_fault_preinsert
      649    _instrlist_meta_postinsert
               exported name: instrlist_meta_postinsert
      650    _instrlist_meta_preinsert
               exported name: instrlist_meta_preinsert
      651    _instrlist_postinsert
               exported name: instrlist_postinsert
      652    _instrlist_preinsert
               exported name: instrlist_preinsert
      653    _instrlist_prepend
               exported name: instrlist_prepend
      654    _instrlist_remove
               exported name: instrlist_remove
      655    _instrlist_replace
               exported name: instrlist_replace
      656    _instrlist_set_auto_predicate
               exported name: instrlist_set_auto_predicate
      657    _instrlist_set_fall_through_target
               exported name: instrlist_set_fall_through_target
      658    _instrlist_set_return_target
               exported name: instrlist_set_return_target
      659    _instrlist_set_translation_target
               exported name: instrlist_set_translation_target
      660    Forwarded to NTDLL.isalnum
               exported name: isalnum
      661    Forwarded to NTDLL.isalpha
               exported name: isalpha
      662    Forwarded to NTDLL.iscntrl
               exported name: iscntrl
      663    Forwarded to NTDLL.isdigit
               exported name: isdigit
      664    Forwarded to NTDLL.isgraph
               exported name: isgraph
      665    Forwarded to NTDLL.islower
               exported name: islower
      666    Forwarded to NTDLL.isprint
               exported name: isprint
      667    Forwarded to NTDLL.ispunct
               exported name: ispunct
      668    Forwarded to NTDLL.isspace
               exported name: isspace
      669    Forwarded to NTDLL.isupper
               exported name: isupper
      670    Forwarded to NTDLL.iswalpha
               exported name: iswalpha
      671    Forwarded to NTDLL.iswctype
               exported name: iswctype
      672    Forwarded to NTDLL.iswdigit
               exported name: iswdigit
      673    Forwarded to NTDLL.iswlower
               exported name: iswlower
      674    Forwarded to NTDLL.iswspace
               exported name: iswspace
      675    Forwarded to NTDLL.iswxdigit
               exported name: iswxdigit
      676    Forwarded to NTDLL.isxdigit
               exported name: isxdigit
      677    Forwarded to NTDLL.labs
               exported name: labs
      678    Forwarded to NTDLL.log
               exported name: log
      679    Forwarded to NTDLL.mbstowcs
               exported name: mbstowcs
      680    Forwarded to NTDLL.memchr
               exported name: memchr
      681    Forwarded to NTDLL.memcmp
               exported name: memcmp
      682    Forwarded to NTDLL.memcpy
               exported name: memcpy
      683    Forwarded to NTDLL.memmove
               exported name: memmove
      684    Forwarded to NTDLL.memset
               exported name: memset
      685    _opnd_add_flags
               exported name: opnd_add_flags
      686    _opnd_compute_address
               exported name: opnd_compute_address
      687    _opnd_create_abs_addr
               exported name: opnd_create_abs_addr
      688    _opnd_create_base_disp
               exported name: opnd_create_base_disp
      689    _opnd_create_base_disp_ex
               exported name: opnd_create_base_disp_ex
      690    _opnd_create_far_abs_addr
               exported name: opnd_create_far_abs_addr
      691    _opnd_create_far_base_disp
               exported name: opnd_create_far_base_disp
      692    _opnd_create_far_base_disp_ex
               exported name: opnd_create_far_base_disp_ex
      693    _opnd_create_far_instr
               exported name: opnd_create_far_instr
      694    _opnd_create_far_pc
               exported name: opnd_create_far_pc
      695    _opnd_create_immed_float
               exported name: opnd_create_immed_float
      696    _opnd_create_immed_int
               exported name: opnd_create_immed_int
      697    _opnd_create_immed_int64
               exported name: opnd_create_immed_int64
      698    _opnd_create_immed_uint
               exported name: opnd_create_immed_uint
      699    _opnd_create_instr
               exported name: opnd_create_instr
      700    _opnd_create_instr_ex
               exported name: opnd_create_instr_ex
      701    _opnd_create_mem_instr
               exported name: opnd_create_mem_instr
      702    _opnd_create_null
               exported name: opnd_create_null
      703    _opnd_create_pc
               exported name: opnd_create_pc
      704    _opnd_create_reg
               exported name: opnd_create_reg
      705    _opnd_create_reg_ex
               exported name: opnd_create_reg_ex
      706    _opnd_create_reg_partial
               exported name: opnd_create_reg_partial
      707    _opnd_defines_use
               exported name: opnd_defines_use
      708    _opnd_disassemble
               exported name: opnd_disassemble
      709    _opnd_disassemble_to_buffer
               exported name: opnd_disassemble_to_buffer
      710    _opnd_get_addr
               exported name: opnd_get_addr
      711    _opnd_get_base
               exported name: opnd_get_base
      712    _opnd_get_disp
               exported name: opnd_get_disp
      713    _opnd_get_flags
               exported name: opnd_get_flags
      714    _opnd_get_immed_float
               exported name: opnd_get_immed_float
      715    _opnd_get_immed_int
               exported name: opnd_get_immed_int
      716    _opnd_get_immed_int64
               exported name: opnd_get_immed_int64
      717    _opnd_get_index
               exported name: opnd_get_index
      718    _opnd_get_instr
               exported name: opnd_get_instr
      719    _opnd_get_mem_instr_disp
               exported name: opnd_get_mem_instr_disp
      720    _opnd_get_pc
               exported name: opnd_get_pc
      721    _opnd_get_reg
               exported name: opnd_get_reg
      722    _opnd_get_reg_used
               exported name: opnd_get_reg_used
      723    _opnd_get_scale
               exported name: opnd_get_scale
      724    _opnd_get_segment
               exported name: opnd_get_segment
      725    _opnd_get_segment_selector
               exported name: opnd_get_segment_selector
      726    _opnd_get_shift
               exported name: opnd_get_shift
      727    _opnd_get_size
               exported name: opnd_get_size
      728    _opnd_is_abs_addr
               exported name: opnd_is_abs_addr
      729    _opnd_is_base_disp
               exported name: opnd_is_base_disp
      730    _opnd_is_disp_encode_zero
               exported name: opnd_is_disp_encode_zero
      731    _opnd_is_disp_force_full
               exported name: opnd_is_disp_force_full
      732    _opnd_is_disp_short_addr
               exported name: opnd_is_disp_short_addr
      733    _opnd_is_far_abs_addr
               exported name: opnd_is_far_abs_addr
      734    _opnd_is_far_base_disp
               exported name: opnd_is_far_base_disp
      735    _opnd_is_far_instr
               exported name: opnd_is_far_instr
      736    _opnd_is_far_memory_reference
               exported name: opnd_is_far_memory_reference
      737    _opnd_is_far_pc
               exported name: opnd_is_far_pc
      738    _opnd_is_immed
               exported name: opnd_is_immed
      739    _opnd_is_immed_float
               exported name: opnd_is_immed_float
      740    _opnd_is_immed_int
               exported name: opnd_is_immed_int
      741    _opnd_is_immed_int64
               exported name: opnd_is_immed_int64
      742    _opnd_is_instr
               exported name: opnd_is_instr
      743    _opnd_is_mem_instr
               exported name: opnd_is_mem_instr
      744    _opnd_is_memory_reference
               exported name: opnd_is_memory_reference
      745    _opnd_is_near_abs_addr
               exported name: opnd_is_near_abs_addr
      746    _opnd_is_near_base_disp
               exported name: opnd_is_near_base_disp
      747    _opnd_is_near_instr
               exported name: opnd_is_near_instr
      748    _opnd_is_near_memory_reference
               exported name: opnd_is_near_memory_reference
      749    _opnd_is_near_pc
               exported name: opnd_is_near_pc
      750    _opnd_is_null
               exported name: opnd_is_null
      751    _opnd_is_pc
               exported name: opnd_is_pc
      752    _opnd_is_reg
               exported name: opnd_is_reg
      753    _opnd_is_reg_32bit
               exported name: opnd_is_reg_32bit
      754    _opnd_is_reg_64bit
               exported name: opnd_is_reg_64bit
      755    _opnd_is_reg_partial
               exported name: opnd_is_reg_partial
      756    _opnd_is_reg_pointer_sized
               exported name: opnd_is_reg_pointer_sized
      757    _opnd_is_vsib
               exported name: opnd_is_vsib
      758    _opnd_num_regs_used
               exported name: opnd_num_regs_used
      759    _opnd_replace_reg
               exported name: opnd_replace_reg
      760    _opnd_replace_reg_resize
               exported name: opnd_replace_reg_resize
      761    _opnd_same
               exported name: opnd_same
      762    _opnd_same_address
               exported name: opnd_same_address
      763    _opnd_set_disp
               exported name: opnd_set_disp
      764    _opnd_set_disp_ex
               exported name: opnd_set_disp_ex
      765    _opnd_set_flags
               exported name: opnd_set_flags
      766    _opnd_set_size
               exported name: opnd_set_size
      767    _opnd_share_reg
               exported name: opnd_share_reg
      768    _opnd_shrink_to_16_bits
               exported name: opnd_shrink_to_16_bits
      769    _opnd_size_from_bytes
               exported name: opnd_size_from_bytes
      770    _opnd_size_in_bits
               exported name: opnd_size_in_bits
      771    _opnd_size_in_bytes
               exported name: opnd_size_in_bytes
      772    _opnd_uses_reg
               exported name: opnd_uses_reg
      773    Forwarded to NTDLL.pow
               exported name: pow
      774    _proc_avx512_enabled
               exported name: proc_avx512_enabled
      775    _proc_avx_enabled
               exported name: proc_avx_enabled
      776    _proc_bump_to_end_of_cache_line
               exported name: proc_bump_to_end_of_cache_line
      777    _proc_fpstate_save_size
               exported name: proc_fpstate_save_size
      778    _proc_get_L1_dcache_size
               exported name: proc_get_L1_dcache_size
      779    _proc_get_L1_icache_size
               exported name: proc_get_L1_icache_size
      780    _proc_get_L2_cache_size
               exported name: proc_get_L2_cache_size
      781    _proc_get_all_feature_bits
               exported name: proc_get_all_feature_bits
      782    _proc_get_brand_string
               exported name: proc_get_brand_string
      783    _proc_get_cache_line_size
               exported name: proc_get_cache_line_size
      784    _proc_get_cache_size_str
               exported name: proc_get_cache_size_str
      785    _proc_get_containing_page
               exported name: proc_get_containing_page
      786    _proc_get_family
               exported name: proc_get_family
      787    _proc_get_model
               exported name: proc_get_model
      788    _proc_get_stepping
               exported name: proc_get_stepping
      789    _proc_get_type
               exported name: proc_get_type
      790    _proc_get_vendor
               exported name: proc_get_vendor
      791    _proc_has_feature
               exported name: proc_has_feature
      792    _proc_is_cache_aligned
               exported name: proc_is_cache_aligned
      793    _proc_num_opmask_registers
               exported name: proc_num_opmask_registers
      794    _proc_num_simd_registers
               exported name: proc_num_simd_registers
      795    _proc_num_simd_saved
               exported name: proc_num_simd_saved
      796    _proc_restore_fpstate
               exported name: proc_restore_fpstate
      797    _proc_save_fpstate
               exported name: proc_save_fpstate
      798    _proc_set_vendor
               exported name: proc_set_vendor
      799    Forwarded to NTDLL.qsort
               exported name: qsort
      800    _reg_32_to_16
               exported name: reg_32_to_16
      801    _reg_32_to_8
               exported name: reg_32_to_8
      802    _reg_32_to_opsz
               exported name: reg_32_to_opsz
      803    _reg_get_bits
               exported name: reg_get_bits
      804    _reg_get_size
               exported name: reg_get_size
      805    _reg_get_value
               exported name: reg_get_value
      806    _reg_get_value_ex
               exported name: reg_get_value_ex
      807    _reg_is_32bit
               exported name: reg_is_32bit
      808    _reg_is_64bit
               exported name: reg_is_64bit
      809    _reg_is_bnd
               exported name: reg_is_bnd
      810    _reg_is_fp
               exported name: reg_is_fp
      811    _reg_is_gpr
               exported name: reg_is_gpr
      812    _reg_is_mmx
               exported name: reg_is_mmx
      813    _reg_is_opmask
               exported name: reg_is_opmask
      814    _reg_is_pointer_sized
               exported name: reg_is_pointer_sized
      815    _reg_is_segment
               exported name: reg_is_segment
      816    _reg_is_simd
               exported name: reg_is_simd
      817    _reg_is_stolen
               exported name: reg_is_stolen
      818    _reg_is_strictly_xmm
               exported name: reg_is_strictly_xmm
      819    _reg_is_strictly_ymm
               exported name: reg_is_strictly_ymm
      820    _reg_is_strictly_zmm
               exported name: reg_is_strictly_zmm
      821    _reg_is_vector_simd
               exported name: reg_is_vector_simd
      822    _reg_is_xmm
               exported name: reg_is_xmm
      823    _reg_is_ymm
               exported name: reg_is_ymm
      824    _reg_overlap
               exported name: reg_overlap
      825    _reg_parameter_num
               exported name: reg_parameter_num
      826    _reg_resize_to_opsz
               exported name: reg_resize_to_opsz
      827    _reg_set_value
               exported name: reg_set_value
      828    _reg_set_value_ex
               exported name: reg_set_value_ex
      829    _reg_to_pointer_sized
               exported name: reg_to_pointer_sized
      830    Forwarded to NTDLL.sin
               exported name: sin
      831    Forwarded to NTDLL.sqrt
               exported name: sqrt
      832    Forwarded to NTDLL.strchr
               exported name: strchr
      833    Forwarded to NTDLL.strcmp
               exported name: strcmp
      834    Forwarded to NTDLL.strcspn
               exported name: strcspn
      835    Forwarded to NTDLL.strlen
               exported name: strlen
      836    Forwarded to NTDLL.strncat
               exported name: strncat
      837    Forwarded to NTDLL.strncmp
               exported name: strncmp
      838    Forwarded to NTDLL.strncpy
               exported name: strncpy
      839    Forwarded to NTDLL.strpbrk
               exported name: strpbrk
      840    Forwarded to NTDLL.strrchr
               exported name: strrchr
      841    Forwarded to NTDLL.strspn
               exported name: strspn
      842    Forwarded to NTDLL.strstr
               exported name: strstr
      843    Forwarded to NTDLL.strtol
               exported name: strtol
      844    Forwarded to NTDLL.strtoul
               exported name: strtoul
      845    Forwarded to NTDLL.tan
               exported name: tan
      846    Forwarded to NTDLL.tolower
               exported name: tolower
      847    Forwarded to NTDLL.toupper
               exported name: toupper
      848    Forwarded to NTDLL.towlower
               exported name: towlower
      849    Forwarded to NTDLL.towupper
               exported name: towupper
      850    _unique_build_number
               exported name: unique_build_number
      851    Forwarded to NTDLL.wcscat
               exported name: wcscat
      852    Forwarded to NTDLL.wcschr
               exported name: wcschr
      853    Forwarded to NTDLL.wcscmp
               exported name: wcscmp
      854    Forwarded to NTDLL.wcscpy
               exported name: wcscpy
      855    Forwarded to NTDLL.wcscspn
               exported name: wcscspn
      856    Forwarded to NTDLL.wcslen
               exported name: wcslen
      857    Forwarded to NTDLL.wcsncat
               exported name: wcsncat
      858    Forwarded to NTDLL.wcsncmp
               exported name: wcsncmp
      859    Forwarded to NTDLL.wcsncpy
               exported name: wcsncpy
      860    Forwarded to NTDLL.wcspbrk
               exported name: wcspbrk
      861    Forwarded to NTDLL.wcsrchr
               exported name: wcsrchr
      862    Forwarded to NTDLL.wcsspn
               exported name: wcsspn
      863    Forwarded to NTDLL.wcsstr
               exported name: wcsstr
      864    Forwarded to NTDLL.wcstol
               exported name: wcstol
      865    Forwarded to NTDLL.wcstombs
               exported name: wcstombs
      866    Forwarded to NTDLL.wcstoul
               exported name: wcstoul
